# Disassembly context for constant: 0x206
# binary: /mnt/c/Windows/System32/drivers/applewirelessmouse.sys:     file format pei-x86-64
# generated: 2026-04-27T17:34:28Z

=== HIT at line 1047 ===
   140001fdd:	bd 42 54 4d 54       	mov    ebp,0x544d5442
   140001fe2:	41 8d 74 24 48       	lea    esi,[r12+0x48]
   140001fe7:	44 8b c5             	mov    r8d,ebp
   140001fea:	8b d6                	mov    edx,esi
   140001fec:	b9 00 02 00 00       	mov    ecx,0x200
   140001ff1:	ff 15 69 90 00 00    	call   QWORD PTR [rip+0x9069]        # 0x14000b060
   140001ff7:	48 8b f8             	mov    rdi,rax
   140001ffa:	48 85 c0             	test   rax,rax
   140001ffd:	75 0e                	jne    0x14000200d
   140001fff:	48 8b cb             	mov    rcx,rbx
   140002002:	ff 15 18 91 00 00    	call   QWORD PTR [rip+0x9118]        # 0x14000b120
   140002008:	e9 15 02 00 00       	jmp    0x140002222
   14000200d:	4c 8b c6             	mov    r8,rsi
   140002010:	33 d2                	xor    edx,edx
   140002012:	48 8b cf             	mov    rcx,rdi
   140002015:	e8 26 5d 00 00       	call   0x140007d40
   14000201a:	48 8b 83 b8 00 00 00 	mov    rax,QWORD PTR [rbx+0xb8]
   140002021:	48 8d 0d d0 91 00 00 	lea    rcx,[rip+0x91d0]        # 0x14000b1f8
   140002028:	48 2b c6             	sub    rax,rsi
   14000202b:	44 8b c5             	mov    r8d,ebp
   14000202e:	ba 18 00 00 00       	mov    edx,0x18
   140002033:	48 89 48 08          	mov    QWORD PTR [rax+0x8],rcx
   140002037:	b9 00 02 00 00       	mov    ecx,0x200
   14000203c:	66 c7 00 1b 08       	mov    WORD PTR [rax],0x81b
   140002041:	c7 40 10 48 00 00 02 	mov    DWORD PTR [rax+0x10],0x2000048
   140002048:	48 89 78 18          	mov    QWORD PTR [rax+0x18],rdi
   14000204c:	4c 89 60 20          	mov    QWORD PTR [rax+0x20],r12
   140002050:	ff 15 0a 90 00 00    	call   QWORD PTR [rip+0x900a]        # 0x14000b060
   140002056:	48 8b f0             	mov    rsi,rax
   140002059:	48 85 c0             	test   rax,rax
   14000205c:	75 11                	jne    0x14000206f
   14000205e:	48 8b cb             	mov    rcx,rbx
   140002061:	ff 15 b9 90 00 00    	call   QWORD PTR [rip+0x90b9]        # 0x14000b120
   140002067:	48 8b cf             	mov    rcx,rdi
   14000206a:	e9 ab 01 00 00       	jmp    0x14000221a
   14000206f:	45 33 c0             	xor    r8d,r8d
   140002072:	33 d2                	xor    edx,edx
   140002074:	48 8b ce             	mov    rcx,rsi
   140002077:	ff 15 bb 8f 00 00    	call   QWORD PTR [rip+0x8fbb]        # 0x14000b038
   14000207d:	48 8b 83 b8 00 00 00 	mov    rax,QWORD PTR [rbx+0xb8]
   140002084:	48 8d 0d 15 8d 00 00 	lea    rcx,[rip+0x8d15]        # 0x14000ada0
   14000208b:	48 8b d3             	mov    rdx,rbx
   14000208e:	48 89 48 f0          	mov    QWORD PTR [rax-0x10],rcx
   140002092:	49 8b ce             	mov    rcx,r14
   140002095:	48 89 70 f8          	mov    QWORD PTR [rax-0x8],rsi
   140002099:	c6 40 bb e0          	mov    BYTE PTR [rax-0x45],0xe0
   14000209d:	c7 43 30 bb 00 00 c0 	mov    DWORD PTR [rbx+0x30],0xc00000bb
   1400020a4:	ff 15 de 8f 00 00    	call   QWORD PTR [rip+0x8fde]        # 0x14000b088
   1400020aa:	3d 03 01 00 00       	cmp    eax,0x103
   1400020af:	75 19                	jne    0x1400020ca
   1400020b1:	45 33 c9             	xor    r9d,r9d
   1400020b4:	4c 89 64 24 20       	mov    QWORD PTR [rsp+0x20],r12
   1400020b9:	45 33 c0             	xor    r8d,r8d
   1400020bc:	33 d2                	xor    edx,edx
   1400020be:	48 8b ce             	mov    rcx,rsi
   1400020c1:	ff 15 91 8f 00 00    	call   QWORD PTR [rip+0x8f91]        # 0x14000b058
   1400020c7:	8b 43 30             	mov    eax,DWORD PTR [rbx+0x30]
   1400020ca:	85 c0                	test   eax,eax
   1400020cc:	0f 88 31 01 00 00    	js     0x140002203
   1400020d2:	48 8b 47 20          	mov    rax,QWORD PTR [rdi+0x20]
   1400020d6:	8b d5                	mov    edx,ebp
   1400020d8:	b9 05 01 00 00       	mov    ecx,0x105
   1400020dd:	ff 15 5d 90 00 00    	call   QWORD PTR [rip+0x905d]        # 0x14000b140
   1400020e3:	48 8b e8             	mov    rbp,rax
   1400020e6:	48 85 c0             	test   rax,rax
   1400020e9:	0f 84 14 01 00 00    	je     0x140002203
   1400020ef:	ba 04 00 00 00       	mov    edx,0x4
   1400020f4:	b9 00 02 00 00       	mov    ecx,0x200
   1400020f9:	41 b8 42 54 4d 54    	mov    r8d,0x544d5442
   1400020ff:	ff 15 5b 8f 00 00    	call   QWORD PTR [rip+0x8f5b]        # 0x14000b060
   140002105:	4c 8b e0             	mov    r12,rax
   140002108:	48 85 c0             	test   rax,rax
   14000210b:	75 1b                	jne    0x140002128
   14000210d:	48 8b cb             	mov    rcx,rbx
   140002110:	ff 15 0a 90 00 00    	call   QWORD PTR [rip+0x900a]        # 0x14000b120
   140002116:	48 8b 47 28          	mov    rax,QWORD PTR [rdi+0x28]
   14000211a:	48 8b cd             	mov    rcx,rbp
   14000211d:	ff 15 1d 90 00 00    	call   QWORD PTR [rip+0x901d]        # 0x14000b140
   140002123:	e9 e4 00 00 00       	jmp    0x14000220c
   140002128:	66 c7 00 53 f8       	mov    WORD PTR [rax],0xf853
   14000212d:	45 33 c0             	xor    r8d,r8d

