# Disassembly context for constant: 0x90
# binary: /mnt/c/Windows/System32/drivers/applewirelessmouse.sys:     file format pei-x86-64
# generated: 2026-04-27T17:34:28Z

=== HIT at line 167 ===
   1400011d9:	83 f8 05             	cmp    eax,0x5
   1400011dc:	75 10                	jne    0x1400011ee
   1400011de:	48 8b cd             	mov    rcx,rbp
   1400011e1:	ff 15 59 9e 00 00    	call   QWORD PTR [rip+0x9e59]        # 0x14000b040
   1400011e7:	b9 d4 20 03 b4       	mov    ecx,0xb40320d4
   1400011ec:	eb 41                	jmp    0x14000122f
   1400011ee:	83 f8 06             	cmp    eax,0x6
   1400011f1:	75 10                	jne    0x140001203
   1400011f3:	49 8b ce             	mov    rcx,r14
   1400011f6:	ff 15 44 9e 00 00    	call   QWORD PTR [rip+0x9e44]        # 0x14000b040
   1400011fc:	b9 fc 20 03 b4       	mov    ecx,0xb40320fc
   140001201:	eb 2c                	jmp    0x14000122f
   140001203:	83 f8 07             	cmp    eax,0x7
   140001206:	75 10                	jne    0x140001218
   140001208:	49 8b cf             	mov    rcx,r15
   14000120b:	ff 15 2f 9e 00 00    	call   QWORD PTR [rip+0x9e2f]        # 0x14000b040
   140001211:	b9 04 21 03 b4       	mov    ecx,0xb4032104
   140001216:	eb 17                	jmp    0x14000122f
   140001218:	83 f8 08             	cmp    eax,0x8
   14000121b:	0f 85 16 ff ff ff    	jne    0x140001137
   140001221:	49 8b cc             	mov    rcx,r12
   140001224:	ff 15 16 9e 00 00    	call   QWORD PTR [rip+0x9e16]        # 0x14000b040
   14000122a:	b9 0c 21 03 b4       	mov    ecx,0xb403210c
   14000122f:	e8 c8 0b 00 00       	call   0x140001dfc
   140001234:	e9 fe fe ff ff       	jmp    0x140001137
   140001239:	ba 42 54 4d 54       	mov    edx,0x544d5442
   14000123e:	48 8b cf             	mov    rcx,rdi
   140001241:	ff 15 21 9e 00 00    	call   QWORD PTR [rip+0x9e21]        # 0x14000b068
   140001247:	33 c9                	xor    ecx,ecx
   140001249:	ff 15 29 9e 00 00    	call   QWORD PTR [rip+0x9e29]        # 0x14000b078
   14000124f:	48 8b 8c 24 90 00 00 	mov    rcx,QWORD PTR [rsp+0x90]
   140001256:	00 
   140001257:	48 33 cc             	xor    rcx,rsp
   14000125a:	e8 c1 5a 00 00       	call   0x140006d20
   14000125f:	4c 8d 9c 24 a0 00 00 	lea    r11,[rsp+0xa0]
   140001266:	00 
   140001267:	49 8b 5b 38          	mov    rbx,QWORD PTR [r11+0x38]
   14000126b:	49 8b 6b 40          	mov    rbp,QWORD PTR [r11+0x40]
   14000126f:	49 8b e3             	mov    rsp,r11
   140001272:	41 5f                	pop    r15
   140001274:	41 5e                	pop    r14
   140001276:	41 5c                	pop    r12
   140001278:	5f                   	pop    rdi
   140001279:	5e                   	pop    rsi
   14000127a:	c3                   	ret
   14000127b:	cc                   	int3
   14000127c:	cc                   	int3
   14000127d:	cc                   	int3
   14000127e:	cc                   	int3
   14000127f:	cc                   	int3
   140001280:	48 83 ec 28          	sub    rsp,0x28
   140001284:	48 8b 05 5d dd 00 00 	mov    rax,QWORD PTR [rip+0xdd5d]        # 0x14000efe8
   14000128b:	48 8b d1             	mov    rdx,rcx
   14000128e:	48 8b 0d 5b dd 00 00 	mov    rcx,QWORD PTR [rip+0xdd5b]        # 0x14000eff0
   140001295:	48 8b 80 b0 03 00 00 	mov    rax,QWORD PTR [rax+0x3b0]
   14000129c:	ff 15 9e 9e 00 00    	call   QWORD PTR [rip+0x9e9e]        # 0x14000b140
   1400012a2:	48 8b 15 67 dd 00 00 	mov    rdx,QWORD PTR [rip+0xdd67]        # 0x14000f010
   1400012a9:	48 85 d2             	test   rdx,rdx
   1400012ac:	74 23                	je     0x1400012d1
   1400012ae:	48 8b 05 33 dd 00 00 	mov    rax,QWORD PTR [rip+0xdd33]        # 0x14000efe8
   1400012b5:	48 8b 0d 34 dd 00 00 	mov    rcx,QWORD PTR [rip+0xdd34]        # 0x14000eff0
   1400012bc:	48 8b 80 80 06 00 00 	mov    rax,QWORD PTR [rax+0x680]
   1400012c3:	ff 15 77 9e 00 00    	call   QWORD PTR [rip+0x9e77]        # 0x14000b140
   1400012c9:	48 83 25 3f dd 00 00 	and    QWORD PTR [rip+0xdd3f],0x0        # 0x14000f010
   1400012d0:	00 
   1400012d1:	48 83 c4 28          	add    rsp,0x28
   1400012d5:	c3                   	ret
   1400012d6:	cc                   	int3
   1400012d7:	cc                   	int3
   1400012d8:	48 89 5c 24 10       	mov    QWORD PTR [rsp+0x10],rbx
   1400012dd:	48 89 74 24 18       	mov    QWORD PTR [rsp+0x18],rsi
   1400012e2:	55                   	push   rbp
   1400012e3:	57                   	push   rdi
   1400012e4:	41 56                	push   r14
   1400012e6:	48 8d ac 24 50 ff ff 	lea    rbp,[rsp-0xb0]
   1400012ed:	ff 
   1400012ee:	48 81 ec b0 01 00 00 	sub    rsp,0x1b0
   1400012f5:	48 8b 05 74 b2 00 00 	mov    rax,QWORD PTR [rip+0xb274]        # 0x14000c570
   1400012fc:	48 33 c4             	xor    rax,rsp
   1400012ff:	48 89 85 a0 00 00 00 	mov    QWORD PTR [rbp+0xa0],rax
   140001306:	0f b7 05 f3 6e 00 00 	movzx  eax,WORD PTR [rip+0x6ef3]        # 0x140008200

=== HIT at line 420 ===
   140001670:	5f                   	pop    rdi
   140001671:	5d                   	pop    rbp
   140001672:	c3                   	ret
   140001673:	cc                   	int3
   140001674:	48 83 ec 28          	sub    rsp,0x28
   140001678:	48 8b 15 91 d9 00 00 	mov    rdx,QWORD PTR [rip+0xd991]        # 0x14000f010
   14000167f:	48 85 d2             	test   rdx,rdx
   140001682:	74 23                	je     0x1400016a7
   140001684:	48 8b 05 5d d9 00 00 	mov    rax,QWORD PTR [rip+0xd95d]        # 0x14000efe8
   14000168b:	48 8b 0d 5e d9 00 00 	mov    rcx,QWORD PTR [rip+0xd95e]        # 0x14000eff0
   140001692:	48 8b 80 80 06 00 00 	mov    rax,QWORD PTR [rax+0x680]
   140001699:	ff 15 a1 9a 00 00    	call   QWORD PTR [rip+0x9aa1]        # 0x14000b140
   14000169f:	48 83 25 69 d9 00 00 	and    QWORD PTR [rip+0xd969],0x0        # 0x14000f010
   1400016a6:	00 
   1400016a7:	48 83 c4 28          	add    rsp,0x28
   1400016ab:	c3                   	ret
   1400016ac:	cc                   	int3
   1400016ad:	cc                   	int3
   1400016ae:	cc                   	int3
   1400016af:	cc                   	int3
   1400016b0:	40 53                	rex push rbx
   1400016b2:	48 83 ec 20          	sub    rsp,0x20
   1400016b6:	48 8b 05 2b d9 00 00 	mov    rax,QWORD PTR [rip+0xd92b]        # 0x14000efe8
   1400016bd:	48 8b d1             	mov    rdx,rcx
   1400016c0:	4c 8b 05 51 a9 00 00 	mov    r8,QWORD PTR [rip+0xa951]        # 0x14000c018
   1400016c7:	48 8b 0d 22 d9 00 00 	mov    rcx,QWORD PTR [rip+0xd922]        # 0x14000eff0
   1400016ce:	48 8b 80 50 06 00 00 	mov    rax,QWORD PTR [rax+0x650]
   1400016d5:	ff 15 65 9a 00 00    	call   QWORD PTR [rip+0x9a65]        # 0x14000b140
   1400016db:	48 8b d8             	mov    rbx,rax
   1400016de:	48 8d 88 53 17 00 00 	lea    rcx,[rax+0x1753]
   1400016e5:	e8 a6 1d 00 00       	call   0x140003490
   1400016ea:	48 8d 8b 0b 09 00 00 	lea    rcx,[rbx+0x90b]
   1400016f1:	e8 a6 1d 00 00       	call   0x14000349c
   1400016f6:	48 8d 8b bb 17 00 00 	lea    rcx,[rbx+0x17bb]
   1400016fd:	e8 7e 1d 00 00       	call   0x140003480
   140001702:	33 c0                	xor    eax,eax
   140001704:	48 83 c4 20          	add    rsp,0x20
   140001708:	5b                   	pop    rbx
   140001709:	c3                   	ret
   14000170a:	cc                   	int3
   14000170b:	cc                   	int3
   14000170c:	cc                   	int3
   14000170d:	cc                   	int3
   14000170e:	cc                   	int3
   14000170f:	cc                   	int3
   140001710:	48 83 ec 28          	sub    rsp,0x28
   140001714:	48 8b 05 cd d8 00 00 	mov    rax,QWORD PTR [rip+0xd8cd]        # 0x14000efe8
   14000171b:	48 8b d1             	mov    rdx,rcx
   14000171e:	4c 8b 05 f3 a8 00 00 	mov    r8,QWORD PTR [rip+0xa8f3]        # 0x14000c018
   140001725:	48 8b 0d c4 d8 00 00 	mov    rcx,QWORD PTR [rip+0xd8c4]        # 0x14000eff0
   14000172c:	48 8b 80 50 06 00 00 	mov    rax,QWORD PTR [rax+0x650]
   140001733:	ff 15 07 9a 00 00    	call   QWORD PTR [rip+0x9a07]        # 0x14000b140
   140001739:	33 c0                	xor    eax,eax
   14000173b:	48 83 c4 28          	add    rsp,0x28
   14000173f:	c3                   	ret
   140001740:	48 83 ec 28          	sub    rsp,0x28
   140001744:	48 8b 05 9d d8 00 00 	mov    rax,QWORD PTR [rip+0xd89d]        # 0x14000efe8
   14000174b:	48 8b d1             	mov    rdx,rcx
   14000174e:	4c 8b 05 c3 a8 00 00 	mov    r8,QWORD PTR [rip+0xa8c3]        # 0x14000c018
   140001755:	48 8b 0d 94 d8 00 00 	mov    rcx,QWORD PTR [rip+0xd894]        # 0x14000eff0
   14000175c:	48 8b 80 50 06 00 00 	mov    rax,QWORD PTR [rax+0x650]
   140001763:	ff 15 d7 99 00 00    	call   QWORD PTR [rip+0x99d7]        # 0x14000b140
   140001769:	48 f7 d8             	neg    rax
   14000176c:	1b c0                	sbb    eax,eax
   14000176e:	f7 d0                	not    eax
   140001770:	25 01 00 00 c0       	and    eax,0xc0000001
   140001775:	48 83 c4 28          	add    rsp,0x28
   140001779:	c3                   	ret
   14000177a:	cc                   	int3
   14000177b:	cc                   	int3
   14000177c:	cc                   	int3
   14000177d:	cc                   	int3
   14000177e:	cc                   	int3
   14000177f:	cc                   	int3
   140001780:	33 c0                	xor    eax,eax
   140001782:	c3                   	ret
   140001783:	cc                   	int3
   140001784:	cc                   	int3
   140001785:	cc                   	int3
   140001786:	cc                   	int3
   140001787:	cc                   	int3

=== HIT at line 639 ===
   140001992:	b8 1f 00 00 00       	mov    eax,0x1f
   140001997:	0f 10 0d d2 68 00 00 	movups xmm1,XMMWORD PTR [rip+0x68d2]        # 0x140008270
   14000199e:	0f 11 4f 10          	movups XMMWORD PTR [rdi+0x10],xmm1
   1400019a2:	66 89 44 24 58       	mov    WORD PTR [rsp+0x58],ax
   1400019a7:	ff 15 7b 96 00 00    	call   QWORD PTR [rip+0x967b]        # 0x14000b028
   1400019ad:	48 8d 15 cc 68 00 00 	lea    rdx,[rip+0x68cc]        # 0x140008280
   1400019b4:	48 8d 4c 24 58       	lea    rcx,[rsp+0x58]
   1400019b9:	ff 15 71 96 00 00    	call   QWORD PTR [rip+0x9671]        # 0x14000b030
   1400019bf:	48 8d 45 10          	lea    rax,[rbp+0x10]
   1400019c3:	c7 44 24 68 00 00 0a 	mov    DWORD PTR [rsp+0x68],0xa0000
   1400019ca:	00 
   1400019cb:	41 bc 0a 00 00 00    	mov    r12d,0xa
   1400019d1:	48 89 44 24 70       	mov    QWORD PTR [rsp+0x70],rax
   1400019d6:	33 d2                	xor    edx,edx
   1400019d8:	48 8d 4d a0          	lea    rcx,[rbp-0x60]
   1400019dc:	45 8d 44 24 66       	lea    r8d,[r12+0x66]
   1400019e1:	e8 5a 63 00 00       	call   0x140007d40
   1400019e6:	48 8d 05 c3 68 00 00 	lea    rax,[rip+0x68c3]        # 0x1400082b0
   1400019ed:	c7 45 a8 20 01 00 00 	mov    DWORD PTR [rbp-0x58],0x120
   1400019f4:	48 89 45 b0          	mov    QWORD PTR [rbp-0x50],rax
   1400019f8:	48 8d 15 81 67 00 00 	lea    rdx,[rip+0x6781]        # 0x140008180
   1400019ff:	48 8d 44 24 68       	lea    rax,[rsp+0x68]
   140001a04:	c7 45 c0 01 00 00 01 	mov    DWORD PTR [rbp-0x40],0x1000001
   140001a0b:	48 89 45 b8          	mov    QWORD PTR [rbp-0x48],rax
   140001a0f:	48 8d 4d 88          	lea    rcx,[rbp-0x78]
   140001a13:	48 8d 05 c6 68 00 00 	lea    rax,[rip+0x68c6]        # 0x1400082e0
   140001a1a:	44 89 7d d0          	mov    DWORD PTR [rbp-0x30],r15d
   140001a1e:	48 89 45 c8          	mov    QWORD PTR [rbp-0x38],rax
   140001a22:	ff 15 e8 96 00 00    	call   QWORD PTR [rip+0x96e8]        # 0x14000b110
   140001a28:	48 8d 4d 88          	lea    rcx,[rbp-0x78]
   140001a2c:	ff 15 5e 96 00 00    	call   QWORD PTR [rip+0x965e]        # 0x14000b090
   140001a32:	4c 8d 45 a0          	lea    r8,[rbp-0x60]
   140001a36:	4c 89 7c 24 20       	mov    QWORD PTR [rsp+0x20],r15
   140001a3b:	48 85 c0             	test   rax,rax
   140001a3e:	48 8b d7             	mov    rdx,rdi
   140001a41:	48 0f 44 05 a7 96 00 	cmove  rax,QWORD PTR [rip+0x96a7]        # 0x14000b0f0
   140001a48:	00 
   140001a49:	45 33 c9             	xor    r9d,r9d
   140001a4c:	33 c9                	xor    ecx,ecx
   140001a4e:	ff 15 ec 96 00 00    	call   QWORD PTR [rip+0x96ec]        # 0x14000b140
   140001a54:	33 d2                	xor    edx,edx
   140001a56:	48 8b ce             	mov    rcx,rsi
   140001a59:	8b d8                	mov    ebx,eax
   140001a5b:	ff 15 07 96 00 00    	call   QWORD PTR [rip+0x9607]        # 0x14000b068
   140001a61:	33 d2                	xor    edx,edx
   140001a63:	48 8b cf             	mov    rcx,rdi
   140001a66:	ff 15 fc 95 00 00    	call   QWORD PTR [rip+0x95fc]        # 0x14000b068
   140001a6c:	85 db                	test   ebx,ebx
   140001a6e:	78 29                	js     0x140001a99
   140001a70:	4c 8d 44 24 50       	lea    r8,[rsp+0x50]
   140001a75:	41 8b d4             	mov    edx,r12d
   140001a78:	48 8d 4c 24 68       	lea    rcx,[rsp+0x68]
   140001a7d:	ff 15 95 96 00 00    	call   QWORD PTR [rip+0x9695]        # 0x14000b118
   140001a83:	8a 44 24 50          	mov    al,BYTE PTR [rsp+0x50]
   140001a87:	eb 13                	jmp    0x140001a9c
   140001a89:	48 8b ce             	mov    rcx,rsi
   140001a8c:	eb 03                	jmp    0x140001a91
   140001a8e:	48 8b cf             	mov    rcx,rdi
   140001a91:	33 d2                	xor    edx,edx
   140001a93:	ff 15 cf 95 00 00    	call   QWORD PTR [rip+0x95cf]        # 0x14000b068
   140001a99:	41 8a c6             	mov    al,r14b
   140001a9c:	48 8b 4d 20          	mov    rcx,QWORD PTR [rbp+0x20]
   140001aa0:	48 33 cc             	xor    rcx,rsp
   140001aa3:	e8 78 52 00 00       	call   0x140006d20
   140001aa8:	4c 8d 9c 24 30 01 00 	lea    r11,[rsp+0x130]
   140001aaf:	00 
   140001ab0:	49 8b 5b 20          	mov    rbx,QWORD PTR [r11+0x20]
   140001ab4:	49 8b 73 28          	mov    rsi,QWORD PTR [r11+0x28]
   140001ab8:	49 8b 7b 30          	mov    rdi,QWORD PTR [r11+0x30]
   140001abc:	4d 8b 63 38          	mov    r12,QWORD PTR [r11+0x38]
   140001ac0:	49 8b e3             	mov    rsp,r11
   140001ac3:	41 5f                	pop    r15
   140001ac5:	41 5e                	pop    r14
   140001ac7:	5d                   	pop    rbp
   140001ac8:	c3                   	ret
   140001ac9:	cc                   	int3
   140001aca:	cc                   	int3
   140001acb:	cc                   	int3
   140001acc:	48 89 5c 24 20       	mov    QWORD PTR [rsp+0x20],rbx
   140001ad1:	55                   	push   rbp
   140001ad2:	56                   	push   rsi

=== HIT at line 810 ===
   140001c3d:	0f 10 05 1c 66 00 00 	movups xmm0,XMMWORD PTR [rip+0x661c]        # 0x140008260
   140001c44:	48 89 7d 9f          	mov    QWORD PTR [rbp-0x61],rdi
   140001c48:	48 8d 55 a7          	lea    rdx,[rbp-0x59]
   140001c4c:	66 44 89 65 99       	mov    WORD PTR [rbp-0x67],r12w
   140001c51:	48 8d 4d 97          	lea    rcx,[rbp-0x69]
   140001c55:	0f 11 07             	movups XMMWORD PTR [rdi],xmm0
   140001c58:	b8 1f 00 00 00       	mov    eax,0x1f
   140001c5d:	0f 10 0d 0c 66 00 00 	movups xmm1,XMMWORD PTR [rip+0x660c]        # 0x140008270
   140001c64:	0f 11 4f 10          	movups XMMWORD PTR [rdi+0x10],xmm1
   140001c68:	66 89 45 97          	mov    WORD PTR [rbp-0x69],ax
   140001c6c:	ff 15 b6 93 00 00    	call   QWORD PTR [rip+0x93b6]        # 0x14000b028
   140001c72:	48 8d 15 77 66 00 00 	lea    rdx,[rip+0x6677]        # 0x1400082f0
   140001c79:	48 8d 4d 97          	lea    rcx,[rbp-0x69]
   140001c7d:	ff 15 ad 93 00 00    	call   QWORD PTR [rip+0x93ad]        # 0x14000b030
   140001c83:	33 d2                	xor    edx,edx
   140001c85:	48 8d 4d c7          	lea    rcx,[rbp-0x39]
   140001c89:	44 8d 42 70          	lea    r8d,[rdx+0x70]
   140001c8d:	e8 ae 60 00 00       	call   0x140007d40
   140001c92:	83 65 e7 00          	and    DWORD PTR [rbp-0x19],0x0
   140001c96:	48 8d 05 93 66 00 00 	lea    rax,[rip+0x6693]        # 0x140008330
   140001c9d:	48 83 65 ef 00       	and    QWORD PTR [rbp-0x11],0x0
   140001ca2:	48 8d 15 d7 64 00 00 	lea    rdx,[rip+0x64d7]        # 0x140008180
   140001ca9:	48 89 45 d7          	mov    QWORD PTR [rbp-0x29],rax
   140001cad:	48 8d 4d b7          	lea    rcx,[rbp-0x49]
   140001cb1:	48 8d 45 6f          	lea    rax,[rbp+0x6f]
   140001cb5:	c7 45 cf 24 00 00 00 	mov    DWORD PTR [rbp-0x31],0x24
   140001cbc:	48 89 45 df          	mov    QWORD PTR [rbp-0x21],rax
   140001cc0:	c7 45 f7 04 00 00 00 	mov    DWORD PTR [rbp-0x9],0x4
   140001cc7:	ff 15 43 94 00 00    	call   QWORD PTR [rip+0x9443]        # 0x14000b110
   140001ccd:	48 8d 4d b7          	lea    rcx,[rbp-0x49]
   140001cd1:	ff 15 b9 93 00 00    	call   QWORD PTR [rip+0x93b9]        # 0x14000b090
   140001cd7:	4c 8d 45 c7          	lea    r8,[rbp-0x39]
   140001cdb:	48 8b d7             	mov    rdx,rdi
   140001cde:	48 85 c0             	test   rax,rax
   140001ce1:	48 0f 44 05 07 94 00 	cmove  rax,QWORD PTR [rip+0x9407]        # 0x14000b0f0
   140001ce8:	00 
   140001ce9:	45 33 c9             	xor    r9d,r9d
   140001cec:	48 83 64 24 20 00    	and    QWORD PTR [rsp+0x20],0x0
   140001cf2:	33 c9                	xor    ecx,ecx
   140001cf4:	ff 15 46 94 00 00    	call   QWORD PTR [rip+0x9446]        # 0x14000b140
   140001cfa:	33 d2                	xor    edx,edx
   140001cfc:	48 8b ce             	mov    rcx,rsi
   140001cff:	8b d8                	mov    ebx,eax
   140001d01:	ff 15 61 93 00 00    	call   QWORD PTR [rip+0x9361]        # 0x14000b068
   140001d07:	33 d2                	xor    edx,edx
   140001d09:	48 8b cf             	mov    rcx,rdi
   140001d0c:	ff 15 56 93 00 00    	call   QWORD PTR [rip+0x9356]        # 0x14000b068
   140001d12:	85 db                	test   ebx,ebx
   140001d14:	78 15                	js     0x140001d2b
   140001d16:	8a 45 6f             	mov    al,BYTE PTR [rbp+0x6f]
   140001d19:	eb 12                	jmp    0x140001d2d
   140001d1b:	48 8b ce             	mov    rcx,rsi
   140001d1e:	eb 03                	jmp    0x140001d23
   140001d20:	48 8b cf             	mov    rcx,rdi
   140001d23:	33 d2                	xor    edx,edx
   140001d25:	ff 15 3d 93 00 00    	call   QWORD PTR [rip+0x933d]        # 0x14000b068
   140001d2b:	32 c0                	xor    al,al
   140001d2d:	48 8b 9c 24 28 01 00 	mov    rbx,QWORD PTR [rsp+0x128]
   140001d34:	00 
   140001d35:	48 81 c4 e0 00 00 00 	add    rsp,0xe0
   140001d3c:	41 5f                	pop    r15
   140001d3e:	41 5c                	pop    r12
   140001d40:	5f                   	pop    rdi
   140001d41:	5e                   	pop    rsi
   140001d42:	5d                   	pop    rbp
   140001d43:	c3                   	ret
   140001d44:	48 89 5c 24 08       	mov    QWORD PTR [rsp+0x8],rbx
   140001d49:	48 89 74 24 18       	mov    QWORD PTR [rsp+0x18],rsi
   140001d4e:	57                   	push   rdi
   140001d4f:	48 83 ec 40          	sub    rsp,0x40
   140001d53:	48 8b f1             	mov    rsi,rcx
   140001d56:	ba 00 02 00 00       	mov    edx,0x200
   140001d5b:	b9 01 00 00 00       	mov    ecx,0x1
   140001d60:	41 b8 42 54 4d 54    	mov    r8d,0x544d5442
   140001d66:	ff 15 f4 92 00 00    	call   QWORD PTR [rip+0x92f4]        # 0x14000b060
   140001d6c:	33 db                	xor    ebx,ebx
   140001d6e:	48 8b f8             	mov    rdi,rax
   140001d71:	48 85 c0             	test   rax,rax
   140001d74:	74 74                	je     0x140001dea
   140001d76:	48 8b 05 6b d2 00 00 	mov    rax,QWORD PTR [rip+0xd26b]        # 0x14000efe8
   140001d7d:	48 8d 4c 24 58       	lea    rcx,[rsp+0x58]

=== HIT at line 897 ===
   140001da2:	48 8b 80 f0 03 00 00 	mov    rax,QWORD PTR [rax+0x3f0]
   140001da9:	ff 15 91 93 00 00    	call   QWORD PTR [rip+0x9391]        # 0x14000b140
   140001daf:	85 c0                	test   eax,eax
   140001db1:	78 2a                	js     0x140001ddd
   140001db3:	48 8d 15 06 66 00 00 	lea    rdx,[rip+0x6606]        # 0x1400083c0
   140001dba:	48 8b cf             	mov    rcx,rdi
   140001dbd:	e8 4f 2f 00 00       	call   0x140004d11
   140001dc2:	48 85 c0             	test   rax,rax
   140001dc5:	75 14                	jne    0x140001ddb
   140001dc7:	48 8d 15 22 66 00 00 	lea    rdx,[rip+0x6622]        # 0x1400083f0
   140001dce:	48 8b cf             	mov    rcx,rdi
   140001dd1:	e8 3b 2f 00 00       	call   0x140004d11
   140001dd6:	48 85 c0             	test   rax,rax
   140001dd9:	74 02                	je     0x140001ddd
   140001ddb:	b3 01                	mov    bl,0x1
   140001ddd:	33 d2                	xor    edx,edx
   140001ddf:	48 8b cf             	mov    rcx,rdi
   140001de2:	ff 15 80 92 00 00    	call   QWORD PTR [rip+0x9280]        # 0x14000b068
   140001de8:	8a c3                	mov    al,bl
   140001dea:	48 8b 5c 24 50       	mov    rbx,QWORD PTR [rsp+0x50]
   140001def:	48 8b 74 24 60       	mov    rsi,QWORD PTR [rsp+0x60]
   140001df4:	48 83 c4 40          	add    rsp,0x40
   140001df8:	5f                   	pop    rdi
   140001df9:	c3                   	ret
   140001dfa:	cc                   	int3
   140001dfb:	cc                   	int3
   140001dfc:	48 89 5c 24 08       	mov    QWORD PTR [rsp+0x8],rbx
   140001e01:	48 89 7c 24 20       	mov    QWORD PTR [rsp+0x20],rdi
   140001e06:	55                   	push   rbp
   140001e07:	48 8d 6c 24 a9       	lea    rbp,[rsp-0x57]
   140001e0c:	48 81 ec 90 00 00 00 	sub    rsp,0x90
   140001e13:	8b f9                	mov    edi,ecx
   140001e15:	48 8d 15 44 65 00 00 	lea    rdx,[rip+0x6544]        # 0x140008360
   140001e1c:	48 8d 4d 17          	lea    rcx,[rbp+0x17]
   140001e20:	ff 15 ea 92 00 00    	call   QWORD PTR [rip+0x92ea]        # 0x14000b110
   140001e26:	4c 8d 4d 6f          	lea    r9,[rbp+0x6f]
   140001e2a:	ba 80 00 00 00       	mov    edx,0x80
   140001e2f:	4c 8d 45 77          	lea    r8,[rbp+0x77]
   140001e33:	48 8d 4d 17          	lea    rcx,[rbp+0x17]
   140001e37:	ff 15 63 92 00 00    	call   QWORD PTR [rip+0x9263]        # 0x14000b0a0
   140001e3d:	8b d8                	mov    ebx,eax
   140001e3f:	85 c0                	test   eax,eax
   140001e41:	79 32                	jns    0x140001e75
   140001e43:	48 8d 15 46 65 00 00 	lea    rdx,[rip+0x6546]        # 0x140008390
   140001e4a:	48 8d 4d 17          	lea    rcx,[rbp+0x17]
   140001e4e:	ff 15 bc 92 00 00    	call   QWORD PTR [rip+0x92bc]        # 0x14000b110
   140001e54:	4c 8d 4d 6f          	lea    r9,[rbp+0x6f]
   140001e58:	ba 80 00 00 00       	mov    edx,0x80
   140001e5d:	4c 8d 45 77          	lea    r8,[rbp+0x77]
   140001e61:	48 8d 4d 17          	lea    rcx,[rbp+0x17]
   140001e65:	ff 15 35 92 00 00    	call   QWORD PTR [rip+0x9235]        # 0x14000b0a0
   140001e6b:	8b d8                	mov    ebx,eax
   140001e6d:	85 c0                	test   eax,eax
   140001e6f:	0f 88 82 00 00 00    	js     0x140001ef7
   140001e75:	45 33 c0             	xor    r8d,r8d
   140001e78:	48 8d 4d 37          	lea    rcx,[rbp+0x37]
   140001e7c:	33 d2                	xor    edx,edx
   140001e7e:	ff 15 b4 91 00 00    	call   QWORD PTR [rip+0x91b4]        # 0x14000b038
   140001e84:	48 8b 55 6f          	mov    rdx,QWORD PTR [rbp+0x6f]
   140001e88:	48 8d 45 27          	lea    rax,[rbp+0x27]
   140001e8c:	48 89 44 24 40       	mov    QWORD PTR [rsp+0x40],rax
   140001e91:	45 33 c9             	xor    r9d,r9d
   140001e94:	48 8d 45 37          	lea    rax,[rbp+0x37]
   140001e98:	45 33 c0             	xor    r8d,r8d
   140001e9b:	48 89 44 24 38       	mov    QWORD PTR [rsp+0x38],rax
   140001ea0:	8b cf                	mov    ecx,edi
   140001ea2:	c6 44 24 30 00       	mov    BYTE PTR [rsp+0x30],0x0
   140001ea7:	83 64 24 28 00       	and    DWORD PTR [rsp+0x28],0x0
   140001eac:	48 83 64 24 20 00    	and    QWORD PTR [rsp+0x20],0x0
   140001eb2:	ff 15 c8 91 00 00    	call   QWORD PTR [rip+0x91c8]        # 0x14000b080
   140001eb8:	48 85 c0             	test   rax,rax
   140001ebb:	74 30                	je     0x140001eed
   140001ebd:	48 8b 4d 6f          	mov    rcx,QWORD PTR [rbp+0x6f]
   140001ec1:	48 8b d0             	mov    rdx,rax
   140001ec4:	ff 15 be 91 00 00    	call   QWORD PTR [rip+0x91be]        # 0x14000b088
   140001eca:	8b d8                	mov    ebx,eax
   140001ecc:	3d 03 01 00 00       	cmp    eax,0x103
   140001ed1:	75 1a                	jne    0x140001eed
   140001ed3:	48 83 64 24 20 00    	and    QWORD PTR [rsp+0x20],0x0
   140001ed9:	48 8d 4d 37          	lea    rcx,[rbp+0x37]
   140001edd:	45 33 c9             	xor    r9d,r9d

=== HIT at line 1022 ===
   140001f7b:	41 54                	push   r12
   140001f7d:	41 55                	push   r13
   140001f7f:	41 56                	push   r14
   140001f81:	41 57                	push   r15
   140001f83:	48 83 ec 30          	sub    rsp,0x30
   140001f87:	45 33 e4             	xor    r12d,r12d
   140001f8a:	45 8a e8             	mov    r13b,r8b
   140001f8d:	4c 8b f9             	mov    r15,rcx
   140001f90:	4c 39 61 18          	cmp    QWORD PTR [rcx+0x18],r12
   140001f94:	0f 84 88 02 00 00    	je     0x140002222
   140001f9a:	48 8b 05 47 d0 00 00 	mov    rax,QWORD PTR [rip+0xd047]        # 0x14000efe8
   140001fa1:	48 8b 11             	mov    rdx,QWORD PTR [rcx]
   140001fa4:	48 8b 0d 45 d0 00 00 	mov    rcx,QWORD PTR [rip+0xd045]        # 0x14000eff0
   140001fab:	48 8b 80 00 01 00 00 	mov    rax,QWORD PTR [rax+0x100]
   140001fb2:	ff 15 88 91 00 00    	call   QWORD PTR [rip+0x9188]        # 0x14000b140
   140001fb8:	4c 8b f0             	mov    r14,rax
   140001fbb:	48 85 c0             	test   rax,rax
   140001fbe:	0f 84 5e 02 00 00    	je     0x140002222
   140001fc4:	8a 48 4c             	mov    cl,BYTE PTR [rax+0x4c]
   140001fc7:	33 d2                	xor    edx,edx
   140001fc9:	fe c1                	inc    cl
   140001fcb:	ff 15 0f 91 00 00    	call   QWORD PTR [rip+0x910f]        # 0x14000b0e0
   140001fd1:	48 8b d8             	mov    rbx,rax
   140001fd4:	48 85 c0             	test   rax,rax
   140001fd7:	0f 84 45 02 00 00    	je     0x140002222
   140001fdd:	bd 42 54 4d 54       	mov    ebp,0x544d5442
   140001fe2:	41 8d 74 24 48       	lea    esi,[r12+0x48]
   140001fe7:	44 8b c5             	mov    r8d,ebp
   140001fea:	8b d6                	mov    edx,esi
   140001fec:	b9 00 02 00 00       	mov    ecx,0x200
   140001ff1:	ff 15 69 90 00 00    	call   QWORD PTR [rip+0x9069]        # 0x14000b060
   140001ff7:	48 8b f8             	mov    rdi,rax
   140001ffa:	48 85 c0             	test   rax,rax
   140001ffd:	75 0e                	jne    0x14000200d
   140001fff:	48 8b cb             	mov    rcx,rbx
   140002002:	ff 15 18 91 00 00    	call   QWORD PTR [rip+0x9118]        # 0x14000b120
   140002008:	e9 15 02 00 00       	jmp    0x140002222
   14000200d:	4c 8b c6             	mov    r8,rsi
   140002010:	33 d2                	xor    edx,edx
   140002012:	48 8b cf             	mov    rcx,rdi
   140002015:	e8 26 5d 00 00       	call   0x140007d40
   14000201a:	48 8b 83 b8 00 00 00 	mov    rax,QWORD PTR [rbx+0xb8]
   140002021:	48 8d 0d d0 91 00 00 	lea    rcx,[rip+0x91d0]        # 0x14000b1f8
   140002028:	48 2b c6             	sub    rax,rsi
   14000202b:	44 8b c5             	mov    r8d,ebp
   14000202e:	ba 18 00 00 00       	mov    edx,0x18
   140002033:	48 89 48 08          	mov    QWORD PTR [rax+0x8],rcx
   140002037:	b9 00 02 00 00       	mov    ecx,0x200
   14000203c:	66 c7 00 1b 08       	mov    WORD PTR [rax],0x81b
   140002041:	c7 40 10 48 00 00 02 	mov    DWORD PTR [rax+0x10],0x2000048
   140002048:	48 89 78 18          	mov    QWORD PTR [rax+0x18],rdi
   14000204c:	4c 89 60 20          	mov    QWORD PTR [rax+0x20],r12
   140002050:	ff 15 0a 90 00 00    	call   QWORD PTR [rip+0x900a]        # 0x14000b060
   140002056:	48 8b f0             	mov    rsi,rax
   140002059:	48 85 c0             	test   rax,rax
   14000205c:	75 11                	jne    0x14000206f
   14000205e:	48 8b cb             	mov    rcx,rbx
   140002061:	ff 15 b9 90 00 00    	call   QWORD PTR [rip+0x90b9]        # 0x14000b120
   140002067:	48 8b cf             	mov    rcx,rdi
   14000206a:	e9 ab 01 00 00       	jmp    0x14000221a
   14000206f:	45 33 c0             	xor    r8d,r8d
   140002072:	33 d2                	xor    edx,edx
   140002074:	48 8b ce             	mov    rcx,rsi
   140002077:	ff 15 bb 8f 00 00    	call   QWORD PTR [rip+0x8fbb]        # 0x14000b038
   14000207d:	48 8b 83 b8 00 00 00 	mov    rax,QWORD PTR [rbx+0xb8]
   140002084:	48 8d 0d 15 8d 00 00 	lea    rcx,[rip+0x8d15]        # 0x14000ada0
   14000208b:	48 8b d3             	mov    rdx,rbx
   14000208e:	48 89 48 f0          	mov    QWORD PTR [rax-0x10],rcx
   140002092:	49 8b ce             	mov    rcx,r14
   140002095:	48 89 70 f8          	mov    QWORD PTR [rax-0x8],rsi
   140002099:	c6 40 bb e0          	mov    BYTE PTR [rax-0x45],0xe0
   14000209d:	c7 43 30 bb 00 00 c0 	mov    DWORD PTR [rbx+0x30],0xc00000bb
   1400020a4:	ff 15 de 8f 00 00    	call   QWORD PTR [rip+0x8fde]        # 0x14000b088
   1400020aa:	3d 03 01 00 00       	cmp    eax,0x103
   1400020af:	75 19                	jne    0x1400020ca
   1400020b1:	45 33 c9             	xor    r9d,r9d
   1400020b4:	4c 89 64 24 20       	mov    QWORD PTR [rsp+0x20],r12
   1400020b9:	45 33 c0             	xor    r8d,r8d
   1400020bc:	33 d2                	xor    edx,edx
   1400020be:	48 8b ce             	mov    rcx,rsi
   1400020c1:	ff 15 91 8f 00 00    	call   QWORD PTR [rip+0x8f91]        # 0x14000b058

=== HIT at line 1506 ===
   1400026fd:	45 33 c0             	xor    r8d,r8d
   140002700:	33 d2                	xor    edx,edx
   140002702:	48 8b ce             	mov    rcx,rsi
   140002705:	ff 15 4d 89 00 00    	call   QWORD PTR [rip+0x894d]        # 0x14000b058
   14000270b:	8b 43 30             	mov    eax,DWORD PTR [rbx+0x30]
   14000270e:	85 c0                	test   eax,eax
   140002710:	0f 88 51 01 00 00    	js     0x140002867
   140002716:	48 8b 47 20          	mov    rax,QWORD PTR [rdi+0x20]
   14000271a:	8b d5                	mov    edx,ebp
   14000271c:	b9 05 01 00 00       	mov    ecx,0x105
   140002721:	ff 15 19 8a 00 00    	call   QWORD PTR [rip+0x8a19]        # 0x14000b140
   140002727:	48 8b e8             	mov    rbp,rax
   14000272a:	48 85 c0             	test   rax,rax
   14000272d:	0f 84 34 01 00 00    	je     0x140002867
   140002733:	ba 05 00 00 00       	mov    edx,0x5
   140002738:	b9 00 02 00 00       	mov    ecx,0x200
   14000273d:	41 b8 42 54 4d 54    	mov    r8d,0x544d5442
   140002743:	ff 15 17 89 00 00    	call   QWORD PTR [rip+0x8917]        # 0x14000b060
   140002749:	4c 8b f0             	mov    r14,rax
   14000274c:	48 85 c0             	test   rax,rax
   14000274f:	75 1b                	jne    0x14000276c
   140002751:	48 8b cb             	mov    rcx,rbx
   140002754:	ff 15 c6 89 00 00    	call   QWORD PTR [rip+0x89c6]        # 0x14000b120
   14000275a:	48 8b 47 28          	mov    rax,QWORD PTR [rdi+0x28]
   14000275e:	48 8b cd             	mov    rcx,rbp
   140002761:	ff 15 d9 89 00 00    	call   QWORD PTR [rip+0x89d9]        # 0x14000b140
   140002767:	e9 04 01 00 00       	jmp    0x140002870
   14000276c:	c6 00 53             	mov    BYTE PTR [rax],0x53
   14000276f:	41 80 bf 2c 18 00 00 	cmp    BYTE PTR [r15+0x182c],0x0
   140002776:	00 
   140002777:	75 17                	jne    0x140002790
   140002779:	66 c7 40 01 f1 02    	mov    WORD PTR [rax+0x1],0x2f1
   14000277f:	45 84 e4             	test   r12b,r12b
   140002782:	0f 95 c0             	setne  al
   140002785:	41 88 46 03          	mov    BYTE PTR [r14+0x3],al
   140002789:	b8 04 00 00 00       	mov    eax,0x4
   14000278e:	eb 13                	jmp    0x1400027a3
   140002790:	c6 40 01 d7          	mov    BYTE PTR [rax+0x1],0xd7
   140002794:	45 84 e4             	test   r12b,r12b
   140002797:	0f 95 c0             	setne  al
   14000279a:	41 88 46 02          	mov    BYTE PTR [r14+0x2],al
   14000279e:	b8 03 00 00 00       	mov    eax,0x3
   1400027a3:	89 85 84 00 00 00    	mov    DWORD PTR [rbp+0x84],eax
   1400027a9:	45 33 c0             	xor    r8d,r8d
   1400027ac:	49 8b 47 08          	mov    rax,QWORD PTR [r15+0x8]
   1400027b0:	33 d2                	xor    edx,edx
   1400027b2:	48 89 45 70          	mov    QWORD PTR [rbp+0x70],rax
   1400027b6:	48 8b ce             	mov    rcx,rsi
   1400027b9:	4c 89 b5 88 00 00 00 	mov    QWORD PTR [rbp+0x88],r14
   1400027c0:	49 8b 47 18          	mov    rax,QWORD PTR [r15+0x18]
   1400027c4:	83 a5 80 00 00 00 00 	and    DWORD PTR [rbp+0x80],0x0
   1400027cb:	48 89 45 78          	mov    QWORD PTR [rbp+0x78],rax
   1400027cf:	48 8b 83 b8 00 00 00 	mov    rax,QWORD PTR [rbx+0xb8]
   1400027d6:	c6 40 b8 0f          	mov    BYTE PTR [rax-0x48],0xf
   1400027da:	c7 40 d0 03 00 41 00 	mov    DWORD PTR [rax-0x30],0x410003
   1400027e1:	48 89 68 c0          	mov    QWORD PTR [rax-0x40],rbp
   1400027e5:	ff 15 4d 88 00 00    	call   QWORD PTR [rip+0x884d]        # 0x14000b038
   1400027eb:	48 8b 83 b8 00 00 00 	mov    rax,QWORD PTR [rbx+0xb8]
   1400027f2:	48 8d 0d a7 85 00 00 	lea    rcx,[rip+0x85a7]        # 0x14000ada0
   1400027f9:	48 8b d3             	mov    rdx,rbx
   1400027fc:	48 89 48 f0          	mov    QWORD PTR [rax-0x10],rcx
   140002800:	49 8b cd             	mov    rcx,r13
   140002803:	48 89 70 f8          	mov    QWORD PTR [rax-0x8],rsi
   140002807:	c6 40 bb e0          	mov    BYTE PTR [rax-0x45],0xe0
   14000280b:	c7 43 30 bb 00 00 c0 	mov    DWORD PTR [rbx+0x30],0xc00000bb
   140002812:	ff 15 70 88 00 00    	call   QWORD PTR [rip+0x8870]        # 0x14000b088
   140002818:	3d 03 01 00 00       	cmp    eax,0x103
   14000281d:	75 17                	jne    0x140002836
   14000281f:	48 83 64 24 20 00    	and    QWORD PTR [rsp+0x20],0x0
   140002825:	45 33 c9             	xor    r9d,r9d
   140002828:	45 33 c0             	xor    r8d,r8d
   14000282b:	33 d2                	xor    edx,edx
   14000282d:	48 8b ce             	mov    rcx,rsi
   140002830:	ff 15 22 88 00 00    	call   QWORD PTR [rip+0x8822]        # 0x14000b058
   140002836:	48 8b cb             	mov    rcx,rbx
   140002839:	ff 15 e1 88 00 00    	call   QWORD PTR [rip+0x88e1]        # 0x14000b120
   14000283f:	48 8b 47 28          	mov    rax,QWORD PTR [rdi+0x28]
   140002843:	48 8b cd             	mov    rcx,rbp
   140002846:	ff 15 f4 88 00 00    	call   QWORD PTR [rip+0x88f4]        # 0x14000b140
   14000284c:	33 d2                	xor    edx,edx
   14000284e:	48 8b cf             	mov    rcx,rdi

=== HIT at line 1863 ===
   140002c8e:	03 d0                	add    edx,eax
   140002c90:	41 0f bf c1          	movsx  eax,r9w
   140002c94:	69 c8 ec 09 00 00    	imul   ecx,eax,0x9ec
   140002c9a:	41 8b c3             	mov    eax,r11d
   140002c9d:	66 89 54 24 62       	mov    WORD PTR [rsp+0x62],dx
   140002ca2:	f7 e9                	imul   ecx
   140002ca4:	8b 4c 24 60          	mov    ecx,DWORD PTR [rsp+0x60]
   140002ca8:	44 8b d2             	mov    r10d,edx
   140002cab:	41 c1 fa 05          	sar    r10d,0x5
   140002caf:	41 8b c2             	mov    eax,r10d
   140002cb2:	c1 e8 1f             	shr    eax,0x1f
   140002cb5:	44 03 d0             	add    r10d,eax
   140002cb8:	8b c1                	mov    eax,ecx
   140002cba:	c1 e8 10             	shr    eax,0x10
   140002cbd:	98                   	cwde
   140002cbe:	44 69 c8 ec 09 00 00 	imul   r9d,eax,0x9ec
   140002cc5:	41 8b c3             	mov    eax,r11d
   140002cc8:	41 f7 e9             	imul   r9d
   140002ccb:	c1 fa 05             	sar    edx,0x5
   140002cce:	8b c2                	mov    eax,edx
   140002cd0:	c1 e8 1f             	shr    eax,0x1f
   140002cd3:	03 d0                	add    edx,eax
   140002cd5:	41 0f b7 c0          	movzx  eax,r8w
   140002cd9:	66 41 2b c2          	sub    ax,r10w
   140002cdd:	41 c1 e8 10          	shr    r8d,0x10
   140002ce1:	66 01 84 ab 88 09 00 	add    WORD PTR [rbx+rbp*4+0x988],ax
   140002ce8:	00 
   140002ce9:	66 44 2b c2          	sub    r8w,dx
   140002ced:	66 44 01 84 ab 8a 09 	add    WORD PTR [rbx+rbp*4+0x98a],r8w
   140002cf4:	00 00 
   140002cf6:	89 8c ab 08 09 00 00 	mov    DWORD PTR [rbx+rbp*4+0x908],ecx
   140002cfd:	0f b7 44 1f 0c       	movzx  eax,WORD PTR [rdi+rbx*1+0xc]
   140002d02:	66 89 46 04          	mov    WORD PTR [rsi+0x4],ax
   140002d06:	0f b7 44 1f 0e       	movzx  eax,WORD PTR [rdi+rbx*1+0xe]
   140002d0b:	66 89 46 06          	mov    WORD PTR [rsi+0x6],ax
   140002d0f:	48 83 c6 1c          	add    rsi,0x1c
   140002d13:	4d 3b f4             	cmp    r14,r12
   140002d16:	0f 8c 8b fe ff ff    	jl     0x140002ba7
   140002d1c:	48 8b 5c 24 50       	mov    rbx,QWORD PTR [rsp+0x50]
   140002d21:	48 8b 6c 24 58       	mov    rbp,QWORD PTR [rsp+0x58]
   140002d26:	48 8b 74 24 68       	mov    rsi,QWORD PTR [rsp+0x68]
   140002d2b:	48 83 c4 20          	add    rsp,0x20
   140002d2f:	41 5f                	pop    r15
   140002d31:	41 5e                	pop    r14
   140002d33:	41 5d                	pop    r13
   140002d35:	41 5c                	pop    r12
   140002d37:	5f                   	pop    rdi
   140002d38:	c3                   	ret
   140002d39:	cc                   	int3
   140002d3a:	cc                   	int3
   140002d3b:	cc                   	int3
   140002d3c:	44 89 44 24 18       	mov    DWORD PTR [rsp+0x18],r8d
   140002d41:	55                   	push   rbp
   140002d42:	53                   	push   rbx
   140002d43:	56                   	push   rsi
   140002d44:	57                   	push   rdi
   140002d45:	41 54                	push   r12
   140002d47:	41 55                	push   r13
   140002d49:	41 56                	push   r14
   140002d4b:	41 57                	push   r15
   140002d4d:	48 8d 6c 24 e1       	lea    rbp,[rsp-0x1f]
   140002d52:	48 81 ec a8 00 00 00 	sub    rsp,0xa8
   140002d59:	48 63 fa             	movsxd rdi,edx
   140002d5c:	48 8d b1 88 07 00 00 	lea    rsi,[rcx+0x788]
   140002d63:	48 6b c7 1c          	imul   rax,rdi,0x1c
   140002d67:	48 8b d9             	mov    rbx,rcx
   140002d6a:	48 8d 15 57 93 00 00 	lea    rdx,[rip+0x9357]        # 0x14000c0c8
   140002d71:	45 8b f0             	mov    r14d,r8d
   140002d74:	48 89 45 e7          	mov    QWORD PTR [rbp-0x19],rax
   140002d78:	48 8d 34 be          	lea    rsi,[rsi+rdi*4]
   140002d7c:	4c 8d 2c 08          	lea    r13,[rax+rcx*1]
   140002d80:	45 0f b7 7d 0c       	movzx  r15d,WORD PTR [r13+0xc]
   140002d85:	49 8d 4d 08          	lea    rcx,[r13+0x8]
   140002d89:	45 0f b7 65 0e       	movzx  r12d,WORD PTR [r13+0xe]
   140002d8e:	66 44 89 7d 67       	mov    WORD PTR [rbp+0x67],r15w
   140002d93:	66 44 89 65 69       	mov    WORD PTR [rbp+0x69],r12w
   140002d98:	e8 13 11 00 00       	call   0x140003eb0
   140002d9d:	f3 0f 10 1d 3b 85 00 	movss  xmm3,DWORD PTR [rip+0x853b]        # 0x14000b2e0
   140002da4:	00 
   140002da5:	33 c9                	xor    ecx,ecx
   140002da7:	48 89 45 7f          	mov    QWORD PTR [rbp+0x7f],rax

=== HIT at line 2093 ===
   140002fd2:	48 03 d0             	add    rdx,rax
   140002fd5:	41 0f b7 45 14       	movzx  eax,WORD PTR [r13+0x14]
   140002fda:	66 0f 6e c0          	movd   xmm0,eax
   140002fde:	48 8d 87 42 03 00 00 	lea    rax,[rdi+0x342]
   140002fe5:	48 8d 04 83          	lea    rax,[rbx+rax*4]
   140002fe9:	48 89 44 24 68       	mov    QWORD PTR [rsp+0x68],rax
   140002fee:	48 8d 87 81 01 00 00 	lea    rax,[rdi+0x181]
   140002ff5:	48 8d 04 c3          	lea    rax,[rbx+rax*8]
   140002ff9:	48 89 44 24 60       	mov    QWORD PTR [rsp+0x60],rax
   140002ffe:	48 8d 87 e2 02 00 00 	lea    rax,[rdi+0x2e2]
   140003005:	4c 89 4c 24 58       	mov    QWORD PTR [rsp+0x58],r9
   14000300a:	48 8d 04 83          	lea    rax,[rbx+rax*4]
   14000300e:	45 0f b7 4d 1a       	movzx  r9d,WORD PTR [r13+0x1a]
   140003013:	48 89 44 24 50       	mov    QWORD PTR [rsp+0x50],rax
   140003018:	41 8a 06             	mov    al,BYTE PTR [r14]
   14000301b:	88 44 24 48          	mov    BYTE PTR [rsp+0x48],al
   14000301f:	41 0f b7 84 18 9a 03 	movzx  eax,WORD PTR [r8+rbx*1+0x39a]
   140003026:	00 00 
   140003028:	4d 8d 45 08          	lea    r8,[r13+0x8]
   14000302c:	66 44 89 54 24 40    	mov    WORD PTR [rsp+0x40],r10w
   140003032:	66 44 89 5c 24 38    	mov    WORD PTR [rsp+0x38],r11w
   140003038:	66 89 54 24 30       	mov    WORD PTR [rsp+0x30],dx
   14000303d:	8b 94 bb 08 0a 00 00 	mov    edx,DWORD PTR [rbx+rdi*4+0xa08]
   140003044:	0f 5b c0             	cvtdq2ps xmm0,xmm0
   140003047:	f3 0f 5e c3          	divss  xmm0,xmm3
   14000304b:	f3 0f 2c c8          	cvttss2si ecx,xmm0
   14000304f:	66 89 4c 24 28       	mov    WORD PTR [rsp+0x28],cx
   140003054:	8b 4d 77             	mov    ecx,DWORD PTR [rbp+0x77]
   140003057:	66 89 44 24 20       	mov    WORD PTR [rsp+0x20],ax
   14000305c:	e8 a3 0c 00 00       	call   0x140003d04
   140003061:	0f 10 0d 60 90 00 00 	movups xmm1,XMMWORD PTR [rip+0x9060]        # 0x14000c0c8
   140003068:	8b 84 bb 08 07 00 00 	mov    eax,DWORD PTR [rbx+rdi*4+0x708]
   14000306f:	4c 8b c6             	mov    r8,rsi
   140003072:	0f 10 15 5f 90 00 00 	movups xmm2,XMMWORD PTR [rip+0x905f]        # 0x14000c0d8
   140003079:	44 8b 4d 6f          	mov    r9d,DWORD PTR [rbp+0x6f]
   14000307d:	48 8d 4d f7          	lea    rcx,[rbp-0x9]
   140003081:	8b 55 67             	mov    edx,DWORD PTR [rbp+0x67]
   140003084:	0f 28 e0             	movaps xmm4,xmm0
   140003087:	0f 29 4d f7          	movaps XMMWORD PTR [rbp-0x9],xmm1
   14000308b:	0f 29 55 07          	movaps XMMWORD PTR [rbp+0x7],xmm2
   14000308f:	89 44 24 20          	mov    DWORD PTR [rsp+0x20],eax
   140003093:	e8 98 0f 00 00       	call   0x140004030
   140003098:	f3 0f 59 25 44 82 00 	mulss  xmm4,DWORD PTR [rip+0x8244]        # 0x14000b2e4
   14000309f:	00 
   1400030a0:	44 0f bf 06          	movsx  r8d,WORD PTR [rsi]
   1400030a4:	41 0f bf cf          	movsx  ecx,r15w
   1400030a8:	41 2b c8             	sub    ecx,r8d
   1400030ab:	f3 0f 5a e4          	cvtss2sd xmm4,xmm4
   1400030af:	f2 0f 58 25 b1 81 00 	addsd  xmm4,QWORD PTR [rip+0x81b1]        # 0x14000b268
   1400030b6:	00 
   1400030b7:	f2 0f 2c d4          	cvttsd2si edx,xmm4
   1400030bb:	44 0f bf d2          	movsx  r10d,dx
   1400030bf:	41 3b ca             	cmp    ecx,r10d
   1400030c2:	7e 06                	jle    0x1400030ca
   1400030c4:	41 8d 0c 10          	lea    ecx,[r8+rdx*1]
   1400030c8:	eb 10                	jmp    0x1400030da
   1400030ca:	41 8b c2             	mov    eax,r10d
   1400030cd:	f7 d8                	neg    eax
   1400030cf:	3b c8                	cmp    ecx,eax
   1400030d1:	7d 0c                	jge    0x1400030df
   1400030d3:	41 0f b7 c8          	movzx  ecx,r8w
   1400030d7:	66 2b ca             	sub    cx,dx
   1400030da:	66 89 0e             	mov    WORD PTR [rsi],cx
   1400030dd:	eb 08                	jmp    0x1400030e7
   1400030df:	66 44 89 3e          	mov    WORD PTR [rsi],r15w
   1400030e3:	41 0f b7 cf          	movzx  ecx,r15w
   1400030e7:	44 0f bf 46 02       	movsx  r8d,WORD PTR [rsi+0x2]
   1400030ec:	45 0f bf cc          	movsx  r9d,r12w
   1400030f0:	45 8b d9             	mov    r11d,r9d
   1400030f3:	45 2b d8             	sub    r11d,r8d
   1400030f6:	45 3b da             	cmp    r11d,r10d
   1400030f9:	7e 0a                	jle    0x140003105
   1400030fb:	66 41 03 d0          	add    dx,r8w
   1400030ff:	66 89 56 02          	mov    WORD PTR [rsi+0x2],dx
   140003103:	eb 18                	jmp    0x14000311d
   140003105:	41 f7 da             	neg    r10d
   140003108:	45 3b da             	cmp    r11d,r10d
   14000310b:	7d 0b                	jge    0x140003118
   14000310d:	66 44 2b c2          	sub    r8w,dx
   140003111:	66 44 89 46 02       	mov    WORD PTR [rsi+0x2],r8w
   140003116:	eb 05                	jmp    0x14000311d

=== HIT at line 2244 ===
   14000321d:	66 41 89 45 0c       	mov    WORD PTR [r13+0xc],ax
   140003222:	0f b7 46 02          	movzx  eax,WORD PTR [rsi+0x2]
   140003226:	66 41 89 45 0e       	mov    WORD PTR [r13+0xe],ax
   14000322b:	48 81 c4 a8 00 00 00 	add    rsp,0xa8
   140003232:	41 5f                	pop    r15
   140003234:	41 5e                	pop    r14
   140003236:	41 5d                	pop    r13
   140003238:	41 5c                	pop    r12
   14000323a:	5f                   	pop    rdi
   14000323b:	5e                   	pop    rsi
   14000323c:	5b                   	pop    rbx
   14000323d:	5d                   	pop    rbp
   14000323e:	c3                   	ret
   14000323f:	cc                   	int3
   140003240:	48 89 5c 24 10       	mov    QWORD PTR [rsp+0x10],rbx
   140003245:	48 89 6c 24 18       	mov    QWORD PTR [rsp+0x18],rbp
   14000324a:	48 89 74 24 20       	mov    QWORD PTR [rsp+0x20],rsi
   14000324f:	57                   	push   rdi
   140003250:	41 54                	push   r12
   140003252:	41 55                	push   r13
   140003254:	41 56                	push   r14
   140003256:	41 57                	push   r15
   140003258:	48 81 ec e0 00 00 00 	sub    rsp,0xe0
   14000325f:	48 8b 05 0a 93 00 00 	mov    rax,QWORD PTR [rip+0x930a]        # 0x14000c570
   140003266:	48 33 c4             	xor    rax,rsp
   140003269:	48 89 84 24 d0 00 00 	mov    QWORD PTR [rsp+0xd0],rax
   140003270:	00 
   140003271:	83 64 24 38 00       	and    DWORD PTR [rsp+0x38],0x0
   140003276:	48 8d 99 53 17 00 00 	lea    rbx,[rcx+0x1753]
   14000327d:	83 64 24 3c 00       	and    DWORD PTR [rsp+0x3c],0x0
   140003282:	48 8d a9 0b 09 00 00 	lea    rbp,[rcx+0x90b]
   140003289:	45 8b e8             	mov    r13d,r8d
   14000328c:	4c 8d b9 bb 17 00 00 	lea    r15,[rcx+0x17bb]
   140003293:	48 8b fa             	mov    rdi,rdx
   140003296:	48 8b f1             	mov    rsi,rcx
   140003299:	ba 80 03 00 00       	mov    edx,0x380
   14000329e:	b9 00 02 00 00       	mov    ecx,0x200
   1400032a3:	41 b8 42 54 4d 54    	mov    r8d,0x544d5442
   1400032a9:	45 8a e1             	mov    r12b,r9b
   1400032ac:	ff 15 ae 7d 00 00    	call   QWORD PTR [rip+0x7dae]        # 0x14000b060
   1400032b2:	33 d2                	xor    edx,edx
   1400032b4:	4c 8b f0             	mov    r14,rax
   1400032b7:	48 85 c0             	test   rax,rax
   1400032ba:	0f 84 8c 01 00 00    	je     0x14000344c
   1400032c0:	48 8b c8             	mov    rcx,rax
   1400032c3:	8d 42 07             	lea    eax,[rdx+0x7]
   1400032c6:	44 8d 40 79          	lea    r8d,[rax+0x79]
   1400032ca:	0f 10 07             	movups xmm0,XMMWORD PTR [rdi]
   1400032cd:	0f 11 01             	movups XMMWORD PTR [rcx],xmm0
   1400032d0:	0f 10 4f 10          	movups xmm1,XMMWORD PTR [rdi+0x10]
   1400032d4:	0f 11 49 10          	movups XMMWORD PTR [rcx+0x10],xmm1
   1400032d8:	0f 10 47 20          	movups xmm0,XMMWORD PTR [rdi+0x20]
   1400032dc:	0f 11 41 20          	movups XMMWORD PTR [rcx+0x20],xmm0
   1400032e0:	0f 10 4f 30          	movups xmm1,XMMWORD PTR [rdi+0x30]
   1400032e4:	0f 11 49 30          	movups XMMWORD PTR [rcx+0x30],xmm1
   1400032e8:	0f 10 47 40          	movups xmm0,XMMWORD PTR [rdi+0x40]
   1400032ec:	0f 11 41 40          	movups XMMWORD PTR [rcx+0x40],xmm0
   1400032f0:	0f 10 4f 50          	movups xmm1,XMMWORD PTR [rdi+0x50]
   1400032f4:	0f 11 49 50          	movups XMMWORD PTR [rcx+0x50],xmm1
   1400032f8:	0f 10 47 60          	movups xmm0,XMMWORD PTR [rdi+0x60]
   1400032fc:	0f 11 41 60          	movups XMMWORD PTR [rcx+0x60],xmm0
   140003300:	49 03 c8             	add    rcx,r8
   140003303:	0f 10 4f 70          	movups xmm1,XMMWORD PTR [rdi+0x70]
   140003307:	49 03 f8             	add    rdi,r8
   14000330a:	0f 11 49 f0          	movups XMMWORD PTR [rcx-0x10],xmm1
   14000330e:	48 83 e8 01          	sub    rax,0x1
   140003312:	75 b6                	jne    0x1400032ca
   140003314:	8a 43 5c             	mov    al,BYTE PTR [rbx+0x5c]
   140003317:	41 b8 40 00 00 00    	mov    r8d,0x40
   14000331d:	88 43 5d             	mov    BYTE PTR [rbx+0x5d],al
   140003320:	48 8b cb             	mov    rcx,rbx
   140003323:	8a 43 5e             	mov    al,BYTE PTR [rbx+0x5e]
   140003326:	88 43 5f             	mov    BYTE PTR [rbx+0x5f],al
   140003329:	8a 43 60             	mov    al,BYTE PTR [rbx+0x60]
   14000332c:	88 43 61             	mov    BYTE PTR [rbx+0x61],al
   14000332f:	8b 43 50             	mov    eax,DWORD PTR [rbx+0x50]
   140003332:	89 43 54             	mov    DWORD PTR [rbx+0x54],eax
   140003335:	89 53 50             	mov    DWORD PTR [rbx+0x50],edx
   140003338:	88 53 5c             	mov    BYTE PTR [rbx+0x5c],dl
   14000333b:	88 53 5e             	mov    BYTE PTR [rbx+0x5e],dl
   14000333e:	88 53 60             	mov    BYTE PTR [rbx+0x60],dl

=== HIT at line 2587 ===
   140003707:	f3 0f 59 3d d9 7b 00 	mulss  xmm7,DWORD PTR [rip+0x7bd9]        # 0x14000b2e8
   14000370e:	00 
   14000370f:	44 0f 29 58 a8       	movaps XMMWORD PTR [rax-0x58],xmm11
   140003714:	45 0f 57 db          	xorps  xmm11,xmm11
   140003718:	44 0f 29 60 98       	movaps XMMWORD PTR [rax-0x68],xmm12
   14000371d:	44 0f 29 68 88       	movaps XMMWORD PTR [rax-0x78],xmm13
   140003722:	0f b7 c1             	movzx  eax,cx
   140003725:	44 0f 29 74 24 20    	movaps XMMWORD PTR [rsp+0x20],xmm14
   14000372b:	f3 44 0f 2a d8       	cvtsi2ss xmm11,eax
   140003730:	0f b7 c2             	movzx  eax,dx
   140003733:	f3 0f 2a d0          	cvtsi2ss xmm2,eax
   140003737:	41 0f 28 cb          	movaps xmm1,xmm11
   14000373b:	f3 0f 5f ca          	maxss  xmm1,xmm2
   14000373f:	0f 2f ce             	comiss xmm1,xmm6
   140003742:	0f 86 62 02 00 00    	jbe    0x1400039aa
   140003748:	f3 44 0f 10 25 6f 7b 	movss  xmm12,DWORD PTR [rip+0x7b6f]        # 0x14000b2c0
   14000374f:	00 00 
   140003751:	41 0f 28 c3          	movaps xmm0,xmm11
   140003755:	f3 44 0f 10 2d d6 7a 	movss  xmm13,DWORD PTR [rip+0x7ad6]        # 0x14000b234
   14000375c:	00 00 
   14000375e:	f3 0f 5c c2          	subss  xmm0,xmm2
   140003762:	f3 44 0f 10 0d d9 7a 	movss  xmm9,DWORD PTR [rip+0x7ad9]        # 0x14000b244
   140003769:	00 00 
   14000376b:	f3 0f 59 05 6d 7b 00 	mulss  xmm0,DWORD PTR [rip+0x7b6d]        # 0x14000b2e0
   140003772:	00 
   140003773:	f3 0f 5e c1          	divss  xmm0,xmm1
   140003777:	0f 5a c0             	cvtps2pd xmm0,xmm0
   14000377a:	0f 54 05 7f 7b 00 00 	andps  xmm0,XMMWORD PTR [rip+0x7b7f]        # 0x14000b300
   140003781:	66 0f 5a c8          	cvtpd2ps xmm1,xmm0
   140003785:	44 0f 2f e1          	comiss xmm12,xmm1
   140003789:	72 05                	jb     0x140003790
   14000378b:	0f 57 c9             	xorps  xmm1,xmm1
   14000378e:	eb 1c                	jmp    0x1400037ac
   140003790:	0f 2f 0d 41 7b 00 00 	comiss xmm1,DWORD PTR [rip+0x7b41]        # 0x14000b2d8
   140003797:	72 06                	jb     0x14000379f
   140003799:	41 0f 28 c9          	movaps xmm1,xmm9
   14000379d:	eb 0d                	jmp    0x1400037ac
   14000379f:	f3 41 0f 5c cc       	subss  xmm1,xmm12
   1400037a4:	f3 0f 5e 0d 28 7b 00 	divss  xmm1,DWORD PTR [rip+0x7b28]        # 0x14000b2d4
   1400037ab:	00 
   1400037ac:	0f 5a c1             	cvtps2pd xmm0,xmm1
   1400037af:	f2 0f 10 0d d1 7a 00 	movsd  xmm1,QWORD PTR [rip+0x7ad1]        # 0x14000b288
   1400037b6:	00 
   1400037b7:	e8 54 39 00 00       	call   0x140007110
   1400037bc:	80 bc 24 e8 00 00 00 	cmp    BYTE PTR [rsp+0xe8],0x0
   1400037c3:	00 
   1400037c4:	45 0f 57 c0          	xorps  xmm8,xmm8
   1400037c8:	f3 44 0f 10 b4 24 f0 	movss  xmm14,DWORD PTR [rsp+0xf0]
   1400037cf:	00 00 00 
   1400037d2:	f2 44 0f 5a c0       	cvtsd2ss xmm8,xmm0
   1400037d7:	74 0a                	je     0x1400037e3
   1400037d9:	45 0f 2f f3          	comiss xmm14,xmm11
   1400037dd:	76 04                	jbe    0x1400037e3
   1400037df:	45 0f 57 c0          	xorps  xmm8,xmm8
   1400037e3:	0f 2f f7             	comiss xmm6,xmm7
   1400037e6:	72 06                	jb     0x1400037ee
   1400037e8:	41 0f 28 c9          	movaps xmm1,xmm9
   1400037ec:	eb 1e                	jmp    0x14000380c
   1400037ee:	0f 2f 3d 2f 7a 00 00 	comiss xmm7,DWORD PTR [rip+0x7a2f]        # 0x14000b224
   1400037f5:	72 05                	jb     0x1400037fc
   1400037f7:	0f 57 c9             	xorps  xmm1,xmm1
   1400037fa:	eb 10                	jmp    0x14000380c
   1400037fc:	f3 0f 10 0d 20 7a 00 	movss  xmm1,DWORD PTR [rip+0x7a20]        # 0x14000b224
   140003803:	00 
   140003804:	f3 0f 5c cf          	subss  xmm1,xmm7
   140003808:	f3 0f 58 c9          	addss  xmm1,xmm1
   14000380c:	0f b7 fb             	movzx  edi,bx
   14000380f:	f3 0f 58 c9          	addss  xmm1,xmm1
   140003813:	0f b7 9c 24 d0 00 00 	movzx  ebx,WORD PTR [rsp+0xd0]
   14000381a:	00 
   14000381b:	8b cf                	mov    ecx,edi
   14000381d:	0f b7 c6             	movzx  eax,si
   140003820:	2b c8                	sub    ecx,eax
   140003822:	0f b7 84 24 d8 00 00 	movzx  eax,WORD PTR [rsp+0xd8]
   140003829:	00 
   14000382a:	f3 41 0f 58 c9       	addss  xmm1,xmm9
   14000382f:	66 0f 6e c1          	movd   xmm0,ecx
   140003833:	8b cb                	mov    ecx,ebx
   140003835:	f3 0f e6 c0          	cvtdq2pd xmm0,xmm0
   140003839:	2b c8                	sub    ecx,eax
   14000383b:	0f 54 05 be 7a 00 00 	andps  xmm0,XMMWORD PTR [rip+0x7abe]        # 0x14000b300

=== HIT at line 2786 ===
   1400039ee:	c3                   	ret
   1400039ef:	cc                   	int3
   1400039f0:	48 8b c4             	mov    rax,rsp
   1400039f3:	48 89 58 08          	mov    QWORD PTR [rax+0x8],rbx
   1400039f7:	48 89 68 10          	mov    QWORD PTR [rax+0x10],rbp
   1400039fb:	48 89 70 18          	mov    QWORD PTR [rax+0x18],rsi
   1400039ff:	57                   	push   rdi
   140003a00:	41 56                	push   r14
   140003a02:	41 57                	push   r15
   140003a04:	48 81 ec d0 00 00 00 	sub    rsp,0xd0
   140003a0b:	f3 0f 10 05 09 78 00 	movss  xmm0,DWORD PTR [rip+0x7809]        # 0x14000b21c
   140003a12:	00 
   140003a13:	4d 8b f9             	mov    r15,r9
   140003a16:	0f 29 70 d8          	movaps XMMWORD PTR [rax-0x28],xmm6
   140003a1a:	49 8b e8             	mov    rbp,r8
   140003a1d:	0f 29 78 c8          	movaps XMMWORD PTR [rax-0x38],xmm7
   140003a21:	48 8b da             	mov    rbx,rdx
   140003a24:	44 0f 29 40 b8       	movaps XMMWORD PTR [rax-0x48],xmm8
   140003a29:	4c 8b f1             	mov    r14,rcx
   140003a2c:	44 0f 29 48 a8       	movaps XMMWORD PTR [rax-0x58],xmm9
   140003a31:	45 0f 57 c9          	xorps  xmm9,xmm9
   140003a35:	44 0f 29 50 98       	movaps XMMWORD PTR [rax-0x68],xmm10
   140003a3a:	45 0f 57 d2          	xorps  xmm10,xmm10
   140003a3e:	44 0f 29 58 88       	movaps XMMWORD PTR [rax-0x78],xmm11
   140003a43:	45 0f 57 db          	xorps  xmm11,xmm11
   140003a47:	44 0f 29 64 24 60    	movaps XMMWORD PTR [rsp+0x60],xmm12
   140003a4d:	45 0f 57 e4          	xorps  xmm12,xmm12
   140003a51:	44 0f 29 6c 24 50    	movaps XMMWORD PTR [rsp+0x50],xmm13
   140003a57:	45 0f 57 ed          	xorps  xmm13,xmm13
   140003a5b:	44 0f 29 74 24 40    	movaps XMMWORD PTR [rsp+0x40],xmm14
   140003a61:	e8 9a 1e 00 00       	call   0x140005900
   140003a66:	f2 0f 10 15 12 78 00 	movsd  xmm2,QWORD PTR [rip+0x7812]        # 0x14000b280
   140003a6d:	00 
   140003a6e:	0f 57 c9             	xorps  xmm1,xmm1
   140003a71:	f3 0f 5a c8          	cvtss2sd xmm1,xmm0
   140003a75:	bf 01 00 00 00       	mov    edi,0x1
   140003a7a:	f2 0f 5e d1          	divsd  xmm2,xmm1
   140003a7e:	66 44 0f 5a f2       	cvtpd2ps xmm14,xmm2
   140003a83:	49 63 0c be          	movsxd rcx,DWORD PTR [r14+rdi*4]
   140003a87:	48 6b d1 1c          	imul   rdx,rcx,0x1c
   140003a8b:	48 8b f1             	mov    rsi,rcx
   140003a8e:	0f 10 44 1a 08       	movups xmm0,XMMWORD PTR [rdx+rbx*1+0x8]
   140003a93:	0f 11 44 24 20       	movups XMMWORD PTR [rsp+0x20],xmm0
   140003a98:	85 c9                	test   ecx,ecx
   140003a9a:	0f 8e f4 00 00 00    	jle    0x140003b94
   140003aa0:	48 8b 44 24 20       	mov    rax,QWORD PTR [rsp+0x20]
   140003aa5:	48 c1 e8 08          	shr    rax,0x8
   140003aa9:	2c 03                	sub    al,0x3
   140003aab:	3c 01                	cmp    al,0x1
   140003aad:	0f 87 e1 00 00 00    	ja     0x140003b94
   140003ab3:	80 7c 1a 09 07       	cmp    BYTE PTR [rdx+rbx*1+0x9],0x7
   140003ab8:	75 09                	jne    0x140003ac3
   140003aba:	8a 84 1a 8a 03 00 00 	mov    al,BYTE PTR [rdx+rbx*1+0x38a]
   140003ac1:	eb 04                	jmp    0x140003ac7
   140003ac3:	8a 44 1a 0a          	mov    al,BYTE PTR [rdx+rbx*1+0xa]
   140003ac7:	0f b6 c0             	movzx  eax,al
   140003aca:	ff c8                	dec    eax
   140003acc:	83 f8 04             	cmp    eax,0x4
   140003acf:	0f 87 bf 00 00 00    	ja     0x140003b94
   140003ad5:	0f bf 44 24 28       	movsx  eax,WORD PTR [rsp+0x28]
   140003ada:	45 0f 57 c0          	xorps  xmm8,xmm8
   140003ade:	45 33 c9             	xor    r9d,r9d
   140003ae1:	48 8b d5             	mov    rdx,rbp
   140003ae4:	48 8b cb             	mov    rcx,rbx
   140003ae7:	f3 44 0f 2a c0       	cvtsi2ss xmm8,eax
   140003aec:	41 0f 28 d0          	movaps xmm2,xmm8
   140003af0:	f3 0f 59 15 18 77 00 	mulss  xmm2,DWORD PTR [rip+0x7718]        # 0x14000b210
   140003af7:	00 
   140003af8:	f3 0f 58 d2          	addss  xmm2,xmm2
   140003afc:	e8 77 06 00 00       	call   0x140004178
   140003b01:	0f bf 44 24 2a       	movsx  eax,WORD PTR [rsp+0x2a]
   140003b06:	0f 57 ff             	xorps  xmm7,xmm7
   140003b09:	41 b9 01 00 00 00    	mov    r9d,0x1
   140003b0f:	48 8b d5             	mov    rdx,rbp
   140003b12:	48 8b cb             	mov    rcx,rbx
   140003b15:	0f 28 f0             	movaps xmm6,xmm0
   140003b18:	f3 0f 2a f8          	cvtsi2ss xmm7,eax
   140003b1c:	0f 28 d7             	movaps xmm2,xmm7
   140003b1f:	f3 0f 59 15 e9 76 00 	mulss  xmm2,DWORD PTR [rip+0x76e9]        # 0x14000b210
   140003b26:	00 
   140003b27:	f3 0f 58 d2          	addss  xmm2,xmm2

=== HIT at line 2965 ===
   140003cb7:	00 
   140003cb8:	f7 ea                	imul   edx
   140003cba:	41 8b c0             	mov    eax,r8d
   140003cbd:	c1 fa 0a             	sar    edx,0xa
   140003cc0:	8b ca                	mov    ecx,edx
   140003cc2:	c1 e9 1f             	shr    ecx,0x1f
   140003cc5:	03 d1                	add    edx,ecx
   140003cc7:	66 89 94 24 08 01 00 	mov    WORD PTR [rsp+0x108],dx
   140003cce:	00 
   140003ccf:	f2 0f 2c c8          	cvttsd2si ecx,xmm0
   140003cd3:	0f bf d1             	movsx  edx,cx
   140003cd6:	69 ca f4 01 00 00    	imul   ecx,edx,0x1f4
   140003cdc:	f7 e9                	imul   ecx
   140003cde:	c1 fa 0a             	sar    edx,0xa
   140003ce1:	8b c2                	mov    eax,edx
   140003ce3:	c1 e8 1f             	shr    eax,0x1f
   140003ce6:	03 d0                	add    edx,eax
   140003ce8:	66 89 94 24 0a 01 00 	mov    WORD PTR [rsp+0x10a],dx
   140003cef:	00 
   140003cf0:	8b 84 24 08 01 00 00 	mov    eax,DWORD PTR [rsp+0x108]
   140003cf7:	41 89 07             	mov    DWORD PTR [r15],eax
   140003cfa:	49 8b e3             	mov    rsp,r11
   140003cfd:	41 5f                	pop    r15
   140003cff:	41 5e                	pop    r14
   140003d01:	5f                   	pop    rdi
   140003d02:	c3                   	ret
   140003d03:	cc                   	int3
   140003d04:	48 8b c4             	mov    rax,rsp
   140003d07:	48 89 58 08          	mov    QWORD PTR [rax+0x8],rbx
   140003d0b:	57                   	push   rdi
   140003d0c:	48 81 ec 90 00 00 00 	sub    rsp,0x90
   140003d13:	0f 29 70 e8          	movaps XMMWORD PTR [rax-0x18],xmm6
   140003d17:	8b f9                	mov    edi,ecx
   140003d19:	2b fa                	sub    edi,edx
   140003d1b:	0f 29 78 d8          	movaps XMMWORD PTR [rax-0x28],xmm7
   140003d1f:	44 0f 29 40 c8       	movaps XMMWORD PTR [rax-0x38],xmm8
   140003d24:	45 0f b7 d1          	movzx  r10d,r9w
   140003d28:	45 0f 57 c0          	xorps  xmm8,xmm8
   140003d2c:	0f 57 f6             	xorps  xmm6,xmm6
   140003d2f:	83 ff 40             	cmp    edi,0x40
   140003d32:	7e 0a                	jle    0x140003d3e
   140003d34:	f3 0f 10 15 00 75 00 	movss  xmm2,DWORD PTR [rip+0x7500]        # 0x14000b23c
   140003d3b:	00 
   140003d3c:	eb 08                	jmp    0x140003d46
   140003d3e:	f3 0f 10 15 ce 74 00 	movss  xmm2,DWORD PTR [rip+0x74ce]        # 0x14000b214
   140003d45:	00 
   140003d46:	48 8b 8c 24 f0 00 00 	mov    rcx,QWORD PTR [rsp+0xf0]
   140003d4d:	00 
   140003d4e:	f3 0f 10 3d ee 74 00 	movss  xmm7,DWORD PTR [rip+0x74ee]        # 0x14000b244
   140003d55:	00 
   140003d56:	8a 9c 24 e8 00 00 00 	mov    bl,BYTE PTR [rsp+0xe8]
   140003d5d:	0f 28 cf             	movaps xmm1,xmm7
   140003d60:	44 0f b7 8c 24 d0 00 	movzx  r9d,WORD PTR [rsp+0xd0]
   140003d67:	00 00 
   140003d69:	f3 0f 5c ca          	subss  xmm1,xmm2
   140003d6d:	f3 0f 59 11          	mulss  xmm2,DWORD PTR [rcx]
   140003d71:	0f b7 94 24 c0 00 00 	movzx  edx,WORD PTR [rsp+0xc0]
   140003d78:	00 
   140003d79:	41 0f b7 c2          	movzx  eax,r10w
   140003d7d:	66 0f 6e c0          	movd   xmm0,eax
   140003d81:	0f 5b c0             	cvtdq2ps xmm0,xmm0
   140003d84:	f3 0f 59 c8          	mulss  xmm1,xmm0
   140003d88:	f3 0f 58 ca          	addss  xmm1,xmm2
   140003d8c:	f3 0f 11 09          	movss  DWORD PTR [rcx],xmm1
   140003d90:	41 0f b7 40 0c       	movzx  eax,WORD PTR [r8+0xc]
   140003d95:	44 0f b7 84 24 c8 00 	movzx  r8d,WORD PTR [rsp+0xc8]
   140003d9c:	00 00 
   140003d9e:	66 0f 6e d0          	movd   xmm2,eax
   140003da2:	48 8b 84 24 f8 00 00 	mov    rax,QWORD PTR [rsp+0xf8]
   140003da9:	00 
   140003daa:	0f 5b d2             	cvtdq2ps xmm2,xmm2
   140003dad:	f3 0f 10 00          	movss  xmm0,DWORD PTR [rax]
   140003db1:	f3 0f 5e 15 27 75 00 	divss  xmm2,DWORD PTR [rip+0x7527]        # 0x14000b2e0
   140003db8:	00 
   140003db9:	f3 0f 59 05 7f 74 00 	mulss  xmm0,DWORD PTR [rip+0x747f]        # 0x14000b240
   140003dc0:	00 
   140003dc1:	f3 0f 59 15 43 74 00 	mulss  xmm2,DWORD PTR [rip+0x7443]        # 0x14000b20c
   140003dc8:	00 
   140003dc9:	f3 0f 58 d0          	addss  xmm2,xmm0
   140003dcd:	f3 0f 11 10          	movss  DWORD PTR [rax],xmm2
   140003dd1:	48 8b 84 24 08 01 00 	mov    rax,QWORD PTR [rsp+0x108]

=== HIT at line 3067 ===
   140003e2b:	72 05                	jb     0x140003e32
   140003e2d:	0f 28 f7             	movaps xmm6,xmm7
   140003e30:	eb 18                	jmp    0x140003e4a
   140003e32:	f3 0f 10 15 9a 74 00 	movss  xmm2,DWORD PTR [rip+0x749a]        # 0x14000b2d4
   140003e39:	00 
   140003e3a:	0f 2f c2             	comiss xmm0,xmm2
   140003e3d:	73 0b                	jae    0x140003e4a
   140003e3f:	0f 28 f2             	movaps xmm6,xmm2
   140003e42:	f3 0f 5c f0          	subss  xmm6,xmm0
   140003e46:	f3 0f 5e f2          	divss  xmm6,xmm2
   140003e4a:	44 0f 2f c0          	comiss xmm8,xmm0
   140003e4e:	73 1d                	jae    0x140003e6d
   140003e50:	f3 0f 10 15 84 74 00 	movss  xmm2,DWORD PTR [rip+0x7484]        # 0x14000b2dc
   140003e57:	00 
   140003e58:	0f 2f c2             	comiss xmm0,xmm2
   140003e5b:	72 05                	jb     0x140003e62
   140003e5d:	0f 57 ff             	xorps  xmm7,xmm7
   140003e60:	eb 0b                	jmp    0x140003e6d
   140003e62:	0f 28 fa             	movaps xmm7,xmm2
   140003e65:	f3 0f 5c f8          	subss  xmm7,xmm0
   140003e69:	f3 0f 5e fa          	divss  xmm7,xmm2
   140003e6d:	f3 0f 59 3d 9f 73 00 	mulss  xmm7,DWORD PTR [rip+0x739f]        # 0x14000b214
   140003e74:	00 
   140003e75:	f3 0f 5f f7          	maxss  xmm6,xmm7
   140003e79:	f3 41 0f 5f c8       	maxss  xmm1,xmm8
   140003e7e:	f3 41 0f 5f f0       	maxss  xmm6,xmm8
   140003e83:	0f 2f ce             	comiss xmm1,xmm6
   140003e86:	77 03                	ja     0x140003e8b
   140003e88:	0f 28 ce             	movaps xmm1,xmm6
   140003e8b:	0f 28 7c 24 70       	movaps xmm7,XMMWORD PTR [rsp+0x70]
   140003e90:	4c 8d 9c 24 90 00 00 	lea    r11,[rsp+0x90]
   140003e97:	00 
   140003e98:	49 8b 5b 10          	mov    rbx,QWORD PTR [r11+0x10]
   140003e9c:	0f 28 c1             	movaps xmm0,xmm1
   140003e9f:	41 0f 28 73 f0       	movaps xmm6,XMMWORD PTR [r11-0x10]
   140003ea4:	45 0f 28 43 d0       	movaps xmm8,XMMWORD PTR [r11-0x30]
   140003ea9:	49 8b e3             	mov    rsp,r11
   140003eac:	5f                   	pop    rdi
   140003ead:	c3                   	ret
   140003eae:	cc                   	int3
   140003eaf:	cc                   	int3
   140003eb0:	48 8b c4             	mov    rax,rsp
   140003eb3:	48 83 ec 68          	sub    rsp,0x68
   140003eb7:	83 64 24 70 00       	and    DWORD PTR [rsp+0x70],0x0
   140003ebc:	83 64 24 74 00       	and    DWORD PTR [rsp+0x74],0x0
   140003ec1:	0f 29 70 e8          	movaps XMMWORD PTR [rax-0x18],xmm6
   140003ec5:	0f 29 78 d8          	movaps XMMWORD PTR [rax-0x28],xmm7
   140003ec9:	44 0f 29 40 c8       	movaps XMMWORD PTR [rax-0x38],xmm8
   140003ece:	45 0f 57 c0          	xorps  xmm8,xmm8
   140003ed2:	44 0f 29 48 b8       	movaps XMMWORD PTR [rax-0x48],xmm9
   140003ed7:	45 0f 57 c9          	xorps  xmm9,xmm9
   140003edb:	0f bf 41 10          	movsx  eax,WORD PTR [rcx+0x10]
   140003edf:	66 0f 6e c0          	movd   xmm0,eax
   140003ee3:	0f b7 41 0c          	movzx  eax,WORD PTR [rcx+0xc]
   140003ee7:	f3 0f e6 c0          	cvtdq2pd xmm0,xmm0
   140003eeb:	66 0f 6e e0          	movd   xmm4,eax
   140003eef:	0f b7 41 0e          	movzx  eax,WORD PTR [rcx+0xe]
   140003ef3:	f2 0f 59 05 9d 73 00 	mulsd  xmm0,QWORD PTR [rip+0x739d]        # 0x14000b298
   140003efa:	00 
   140003efb:	0f 5b e4             	cvtdq2ps xmm4,xmm4
   140003efe:	f2 0f 59 05 22 73 00 	mulsd  xmm0,QWORD PTR [rip+0x7322]        # 0x14000b228
   140003f05:	00 
   140003f06:	f3 0f 5e 25 d2 73 00 	divss  xmm4,DWORD PTR [rip+0x73d2]        # 0x14000b2e0
   140003f0d:	00 
   140003f0e:	66 0f 6e d8          	movd   xmm3,eax
   140003f12:	8b 02                	mov    eax,DWORD PTR [rdx]
   140003f14:	0f 5b db             	cvtdq2ps xmm3,xmm3
   140003f17:	66 0f 5a d0          	cvtpd2ps xmm2,xmm0
   140003f1b:	f3 0f 5e 1d bd 73 00 	divss  xmm3,DWORD PTR [rip+0x73bd]        # 0x14000b2e0
   140003f22:	00 
   140003f23:	83 f8 01             	cmp    eax,0x1
   140003f26:	75 08                	jne    0x140003f30
   140003f28:	f3 44 0f 10 4a 0c    	movss  xmm9,DWORD PTR [rdx+0xc]
   140003f2e:	eb 6f                	jmp    0x140003f9f
   140003f30:	83 f8 03             	cmp    eax,0x3
   140003f33:	75 29                	jne    0x140003f5e
   140003f35:	f2 0f 10 05 53 73 00 	movsd  xmm0,QWORD PTR [rip+0x7353]        # 0x14000b290
   140003f3c:	00 
   140003f3d:	0f 5a ca             	cvtps2pd xmm1,xmm2
   140003f40:	66 0f 2f c1          	comisd xmm0,xmm1
   140003f44:	76 08                	jbe    0x140003f4e

=== HIT at line 3729 ===
   14000470f:	8a 45 ee             	mov    al,BYTE PTR [rbp-0x12]
   140004712:	88 07                	mov    BYTE PTR [rdi],al
   140004714:	0f b7 45 e0          	movzx  eax,WORD PTR [rbp-0x20]
   140004718:	66 89 47 02          	mov    WORD PTR [rdi+0x2],ax
   14000471c:	0f b7 45 e2          	movzx  eax,WORD PTR [rbp-0x1e]
   140004720:	66 89 47 04          	mov    WORD PTR [rdi+0x4],ax
   140004724:	c6 47 01 01          	mov    BYTE PTR [rdi+0x1],0x1
   140004728:	74 08                	je     0x140004732
   14000472a:	66 89 5f 06          	mov    WORD PTR [rdi+0x6],bx
   14000472e:	66 89 5f 08          	mov    WORD PTR [rdi+0x8],bx
   140004732:	0f bf 4d e6          	movsx  ecx,WORD PTR [rbp-0x1a]
   140004736:	0f bf 55 e4          	movsx  edx,WORD PTR [rbp-0x1c]
   14000473a:	0f b7 45 ec          	movzx  eax,WORD PTR [rbp-0x14]
   14000473e:	0f bf 5d e8          	movsx  ebx,WORD PTR [rbp-0x18]
   140004742:	66 89 4f 0c          	mov    WORD PTR [rdi+0xc],cx
   140004746:	0f af ca             	imul   ecx,edx
   140004749:	66 89 57 0a          	mov    WORD PTR [rdi+0xa],dx
   14000474d:	66 89 47 0e          	mov    WORD PTR [rdi+0xe],ax
   140004751:	66 89 5f 10          	mov    WORD PTR [rdi+0x10],bx
   140004755:	66 0f 6e c1          	movd   xmm0,ecx
   140004759:	f3 0f e6 c0          	cvtdq2pd xmm0,xmm0
   14000475d:	e8 3e 06 00 00       	call   0x140004da0
   140004762:	f2 0f 2c c8          	cvttsd2si ecx,xmm0
   140004766:	ba 58 02 00 00       	mov    edx,0x258
   14000476b:	4c 8d 47 fe          	lea    r8,[rdi-0x2]
   14000476f:	8b c2                	mov    eax,edx
   140004771:	66 3b ca             	cmp    cx,dx
   140004774:	66 0f 4f c1          	cmovg  ax,cx
   140004778:	0f bf c8             	movsx  ecx,ax
   14000477b:	81 e9 ae 01 00 00    	sub    ecx,0x1ae
   140004781:	69 c3 90 01 00 00    	imul   eax,ebx,0x190
   140004787:	99                   	cdq
   140004788:	f7 f9                	idiv   ecx
   14000478a:	66 89 47 12          	mov    WORD PTR [rdi+0x12],ax
   14000478e:	66 89 47 14          	mov    WORD PTR [rdi+0x14],ax
   140004792:	33 c0                	xor    eax,eax
   140004794:	89 47 16             	mov    DWORD PTR [rdi+0x16],eax
   140004797:	0f b6 45 ea          	movzx  eax,BYTE PTR [rbp-0x16]
   14000479b:	44 8b 4e 40          	mov    r9d,DWORD PTR [rsi+0x40]
   14000479f:	48 6b c8 1c          	imul   rcx,rax,0x1c
   1400047a3:	48 8b 45 50          	mov    rax,QWORD PTR [rbp+0x50]
   1400047a7:	48 81 c1 13 09 00 00 	add    rcx,0x913
   1400047ae:	48 03 c8             	add    rcx,rax
   1400047b1:	8b 90 0b 09 00 00    	mov    edx,DWORD PTR [rax+0x90b]
   1400047b7:	e8 9c 04 00 00       	call   0x140004c58
   1400047bc:	45 33 ed             	xor    r13d,r13d
   1400047bf:	83 cb ff             	or     ebx,0xffffffff
   1400047c2:	0f b6 4e 34          	movzx  ecx,BYTE PTR [rsi+0x34]
   1400047c6:	41 ff c7             	inc    r15d
   1400047c9:	41 83 c6 08          	add    r14d,0x8
   1400047cd:	48 83 c7 1c          	add    rdi,0x1c
   1400047d1:	44 3b f9             	cmp    r15d,ecx
   1400047d4:	0f 8c 08 ff ff ff    	jl     0x1400046e2
   1400047da:	b0 01                	mov    al,0x1
   1400047dc:	eb 02                	jmp    0x1400047e0
   1400047de:	32 c0                	xor    al,al
   1400047e0:	4c 8d 5c 24 40       	lea    r11,[rsp+0x40]
   1400047e5:	49 8b 5b 30          	mov    rbx,QWORD PTR [r11+0x30]
   1400047e9:	49 8b 73 38          	mov    rsi,QWORD PTR [r11+0x38]
   1400047ed:	49 8b 7b 40          	mov    rdi,QWORD PTR [r11+0x40]
   1400047f1:	49 8b e3             	mov    rsp,r11
   1400047f4:	41 5f                	pop    r15
   1400047f6:	41 5e                	pop    r14
   1400047f8:	41 5d                	pop    r13
   1400047fa:	41 5c                	pop    r12
   1400047fc:	5d                   	pop    rbp
   1400047fd:	c3                   	ret
   1400047fe:	cc                   	int3
   1400047ff:	cc                   	int3
   140004800:	48 89 7c 24 08       	mov    QWORD PTR [rsp+0x8],rdi
   140004805:	8a 01                	mov    al,BYTE PTR [rcx]
   140004807:	33 ff                	xor    edi,edi
   140004809:	88 42 08             	mov    BYTE PTR [rdx+0x8],al
   14000480c:	4d 8b d8             	mov    r11,r8
   14000480f:	8a 41 06             	mov    al,BYTE PTR [rcx+0x6]
   140004812:	88 42 20             	mov    BYTE PTR [rdx+0x20],al
   140004815:	b8 00 00 fc ff       	mov    eax,0xfffc0000
   14000481a:	40 88 7a 22          	mov    BYTE PTR [rdx+0x22],dil
   14000481e:	45 8b 40 08          	mov    r8d,DWORD PTR [r8+0x8]
   140004822:	45 8b d0             	mov    r10d,r8d
   140004825:	44 8b 49 08          	mov    r9d,DWORD PTR [rcx+0x8]

=== HIT at line 3884 ===
   14000492b:	8a 45 ee             	mov    al,BYTE PTR [rbp-0x12]
   14000492e:	88 07                	mov    BYTE PTR [rdi],al
   140004930:	0f b7 45 e0          	movzx  eax,WORD PTR [rbp-0x20]
   140004934:	66 89 47 02          	mov    WORD PTR [rdi+0x2],ax
   140004938:	0f b7 45 e2          	movzx  eax,WORD PTR [rbp-0x1e]
   14000493c:	66 89 47 04          	mov    WORD PTR [rdi+0x4],ax
   140004940:	c6 47 01 01          	mov    BYTE PTR [rdi+0x1],0x1
   140004944:	74 08                	je     0x14000494e
   140004946:	66 89 5f 06          	mov    WORD PTR [rdi+0x6],bx
   14000494a:	66 89 5f 08          	mov    WORD PTR [rdi+0x8],bx
   14000494e:	0f bf 4d e6          	movsx  ecx,WORD PTR [rbp-0x1a]
   140004952:	0f bf 55 e4          	movsx  edx,WORD PTR [rbp-0x1c]
   140004956:	0f b7 45 ec          	movzx  eax,WORD PTR [rbp-0x14]
   14000495a:	0f bf 5d e8          	movsx  ebx,WORD PTR [rbp-0x18]
   14000495e:	66 89 4f 0c          	mov    WORD PTR [rdi+0xc],cx
   140004962:	0f af ca             	imul   ecx,edx
   140004965:	66 89 57 0a          	mov    WORD PTR [rdi+0xa],dx
   140004969:	66 89 47 0e          	mov    WORD PTR [rdi+0xe],ax
   14000496d:	66 89 5f 10          	mov    WORD PTR [rdi+0x10],bx
   140004971:	66 0f 6e c1          	movd   xmm0,ecx
   140004975:	f3 0f e6 c0          	cvtdq2pd xmm0,xmm0
   140004979:	e8 22 04 00 00       	call   0x140004da0
   14000497e:	f2 0f 2c c8          	cvttsd2si ecx,xmm0
   140004982:	ba 58 02 00 00       	mov    edx,0x258
   140004987:	4c 8d 47 fe          	lea    r8,[rdi-0x2]
   14000498b:	8b c2                	mov    eax,edx
   14000498d:	66 3b ca             	cmp    cx,dx
   140004990:	66 0f 4f c1          	cmovg  ax,cx
   140004994:	0f bf c8             	movsx  ecx,ax
   140004997:	81 e9 ae 01 00 00    	sub    ecx,0x1ae
   14000499d:	69 c3 90 01 00 00    	imul   eax,ebx,0x190
   1400049a3:	99                   	cdq
   1400049a4:	f7 f9                	idiv   ecx
   1400049a6:	66 89 47 12          	mov    WORD PTR [rdi+0x12],ax
   1400049aa:	66 89 47 14          	mov    WORD PTR [rdi+0x14],ax
   1400049ae:	33 c0                	xor    eax,eax
   1400049b0:	89 47 16             	mov    DWORD PTR [rdi+0x16],eax
   1400049b3:	0f b6 45 ea          	movzx  eax,BYTE PTR [rbp-0x16]
   1400049b7:	44 8b 4e 44          	mov    r9d,DWORD PTR [rsi+0x44]
   1400049bb:	48 6b c8 1c          	imul   rcx,rax,0x1c
   1400049bf:	48 8b 45 50          	mov    rax,QWORD PTR [rbp+0x50]
   1400049c3:	48 81 c1 13 09 00 00 	add    rcx,0x913
   1400049ca:	48 03 c8             	add    rcx,rax
   1400049cd:	8b 90 0b 09 00 00    	mov    edx,DWORD PTR [rax+0x90b]
   1400049d3:	e8 80 02 00 00       	call   0x140004c58
   1400049d8:	45 33 ed             	xor    r13d,r13d
   1400049db:	83 cb ff             	or     ebx,0xffffffff
   1400049de:	0f b6 4e 34          	movzx  ecx,BYTE PTR [rsi+0x34]
   1400049e2:	41 ff c7             	inc    r15d
   1400049e5:	41 83 c6 08          	add    r14d,0x8
   1400049e9:	48 83 c7 1c          	add    rdi,0x1c
   1400049ed:	44 3b f9             	cmp    r15d,ecx
   1400049f0:	0f 8c 08 ff ff ff    	jl     0x1400048fe
   1400049f6:	b0 01                	mov    al,0x1
   1400049f8:	eb 02                	jmp    0x1400049fc
   1400049fa:	32 c0                	xor    al,al
   1400049fc:	4c 8d 5c 24 40       	lea    r11,[rsp+0x40]
   140004a01:	49 8b 5b 30          	mov    rbx,QWORD PTR [r11+0x30]
   140004a05:	49 8b 73 38          	mov    rsi,QWORD PTR [r11+0x38]
   140004a09:	49 8b 7b 40          	mov    rdi,QWORD PTR [r11+0x40]
   140004a0d:	49 8b e3             	mov    rsp,r11
   140004a10:	41 5f                	pop    r15
   140004a12:	41 5e                	pop    r14
   140004a14:	41 5d                	pop    r13
   140004a16:	41 5c                	pop    r12
   140004a18:	5d                   	pop    rbp
   140004a19:	c3                   	ret
   140004a1a:	cc                   	int3
   140004a1b:	cc                   	int3
   140004a1c:	48 89 5c 24 08       	mov    QWORD PTR [rsp+0x8],rbx
   140004a21:	57                   	push   rdi
   140004a22:	48 83 ec 70          	sub    rsp,0x70
   140004a26:	41 8b 80 13 01 00 00 	mov    eax,DWORD PTR [r8+0x113]
   140004a2d:	49 8b d8             	mov    rbx,r8
   140004a30:	8b fa                	mov    edi,edx
   140004a32:	48 8b d1             	mov    rdx,rcx
   140004a35:	85 c0                	test   eax,eax
   140004a37:	75 05                	jne    0x140004a3e
   140004a39:	83 ff 08             	cmp    edi,0x8
   140004a3c:	72 3f                	jb     0x140004a7d
   140004a3e:	48 8d 88 17 01 00 00 	lea    rcx,[rax+0x117]

=== HIT at line 4370 ===
   14000503d:	f2 0f 59 15 93 63 00 	mulsd  xmm2,QWORD PTR [rip+0x6393]        # 0x14000b3d8
   140005044:	00 
   140005045:	f2 0f 5c f0          	subsd  xmm6,xmm0
   140005049:	f2 0f 5c ce          	subsd  xmm1,xmm6
   14000504d:	f2 0f 5c c8          	subsd  xmm1,xmm0
   140005051:	f2 0f 5c d1          	subsd  xmm2,xmm1
   140005055:	49 83 f8 30          	cmp    r8,0x30
   140005059:	76 29                	jbe    0x140005084
   14000505b:	0f 28 ce             	movaps xmm1,xmm6
   14000505e:	0f 28 c3             	movaps xmm0,xmm3
   140005061:	f2 0f 59 05 67 63 00 	mulsd  xmm0,QWORD PTR [rip+0x6367]        # 0x14000b3d0
   140005068:	00 
   140005069:	0f 28 d3             	movaps xmm2,xmm3
   14000506c:	f2 0f 59 15 54 63 00 	mulsd  xmm2,QWORD PTR [rip+0x6354]        # 0x14000b3c8
   140005073:	00 
   140005074:	f2 0f 5c f0          	subsd  xmm6,xmm0
   140005078:	f2 0f 5c ce          	subsd  xmm1,xmm6
   14000507c:	f2 0f 5c c8          	subsd  xmm1,xmm0
   140005080:	f2 0f 5c d1          	subsd  xmm2,xmm1
   140005084:	0f 28 fe             	movaps xmm7,xmm6
   140005087:	83 e1 03             	and    ecx,0x3
   14000508a:	f2 0f 5c fa          	subsd  xmm7,xmm2
   14000508e:	f2 0f 5c f7          	subsd  xmm6,xmm7
   140005092:	f2 0f 5c f2          	subsd  xmm6,xmm2
   140005096:	eb 39                	jmp    0x1400050d1
   140005098:	4c 8d 8c 24 80 00 00 	lea    r9,[rsp+0x80]
   14000509f:	00 
   1400050a0:	0f 28 c6             	movaps xmm0,xmm6
   1400050a3:	4c 8d 84 24 98 00 00 	lea    r8,[rsp+0x98]
   1400050aa:	00 
   1400050ab:	48 8d 94 24 90 00 00 	lea    rdx,[rsp+0x90]
   1400050b2:	00 
   1400050b3:	e8 b8 0b 00 00       	call   0x140005c70
   1400050b8:	8b 8c 24 80 00 00 00 	mov    ecx,DWORD PTR [rsp+0x80]
   1400050bf:	f2 0f 10 bc 24 90 00 	movsd  xmm7,QWORD PTR [rsp+0x90]
   1400050c6:	00 00 
   1400050c8:	f2 0f 10 b4 24 98 00 	movsd  xmm6,QWORD PTR [rsp+0x98]
   1400050cf:	00 00 
   1400050d1:	83 e9 01             	sub    ecx,0x1
   1400050d4:	0f 84 be 00 00 00    	je     0x140005198
   1400050da:	83 e9 01             	sub    ecx,0x1
   1400050dd:	74 25                	je     0x140005104
   1400050df:	83 f9 01             	cmp    ecx,0x1
   1400050e2:	74 10                	je     0x1400050f4
   1400050e4:	0f 28 cf             	movaps xmm1,xmm7
   1400050e7:	f2 0f 59 f7          	mulsd  xmm6,xmm7
   1400050eb:	f2 0f 59 cf          	mulsd  xmm1,xmm7
   1400050ef:	e9 63 fd ff ff       	jmp    0x140004e57
   1400050f4:	0f 28 ce             	movaps xmm1,xmm6
   1400050f7:	0f 28 c7             	movaps xmm0,xmm7
   1400050fa:	e8 fd 04 00 00       	call   0x1400055fc
   1400050ff:	e9 a6 00 00 00       	jmp    0x1400051aa
   140005104:	f2 0f 10 1d f4 62 00 	movsd  xmm3,QWORD PTR [rip+0x62f4]        # 0x14000b400
   14000510b:	00 
   14000510c:	0f 28 cf             	movaps xmm1,xmm7
   14000510f:	f2 0f 10 25 69 61 00 	movsd  xmm4,QWORD PTR [rip+0x6169]        # 0x14000b280
   140005116:	00 
   140005117:	f2 0f 59 cf          	mulsd  xmm1,xmm7
   14000511b:	0f 28 ec             	movaps xmm5,xmm4
   14000511e:	f2 0f 59 f7          	mulsd  xmm6,xmm7
   140005122:	0f 28 c1             	movaps xmm0,xmm1
   140005125:	0f 28 d1             	movaps xmm2,xmm1
   140005128:	f2 0f 59 05 b0 62 00 	mulsd  xmm0,QWORD PTR [rip+0x62b0]        # 0x14000b3e0
   14000512f:	00 
   140005130:	f2 0f 59 15 30 61 00 	mulsd  xmm2,QWORD PTR [rip+0x6130]        # 0x14000b268
   140005137:	00 
   140005138:	f2 0f 5c d8          	subsd  xmm3,xmm0
   14000513c:	f2 0f 5c ea          	subsd  xmm5,xmm2
   140005140:	f2 0f 59 d9          	mulsd  xmm3,xmm1
   140005144:	f2 0f 5c e5          	subsd  xmm4,xmm5
   140005148:	f2 0f 5c 1d c0 62 00 	subsd  xmm3,QWORD PTR [rip+0x62c0]        # 0x14000b410
   14000514f:	00 
   140005150:	f2 0f 5c e2          	subsd  xmm4,xmm2
   140005154:	f2 0f 59 d9          	mulsd  xmm3,xmm1
   140005158:	f2 0f 5c e6          	subsd  xmm4,xmm6
   14000515c:	f2 0f 58 1d bc 62 00 	addsd  xmm3,QWORD PTR [rip+0x62bc]        # 0x14000b420
   140005163:	00 
   140005164:	f2 0f 59 d9          	mulsd  xmm3,xmm1
   140005168:	f2 0f 5c 1d c0 62 00 	subsd  xmm3,QWORD PTR [rip+0x62c0]        # 0x14000b430
   14000516f:	00 
   140005170:	f2 0f 59 d9          	mulsd  xmm3,xmm1

=== HIT at line 4712 ===
   140005569:	0f 28 ec             	movaps xmm5,xmm4
   14000556c:	f2 0f 59 f7          	mulsd  xmm6,xmm7
   140005570:	0f 28 c1             	movaps xmm0,xmm1
   140005573:	0f 28 d1             	movaps xmm2,xmm1
   140005576:	f2 0f 59 05 62 5e 00 	mulsd  xmm0,QWORD PTR [rip+0x5e62]        # 0x14000b3e0
   14000557d:	00 
   14000557e:	f2 41 0f 59 d1       	mulsd  xmm2,xmm9
   140005583:	f2 0f 5c d8          	subsd  xmm3,xmm0
   140005587:	f2 0f 5c ea          	subsd  xmm5,xmm2
   14000558b:	f2 0f 59 d9          	mulsd  xmm3,xmm1
   14000558f:	f2 0f 5c e5          	subsd  xmm4,xmm5
   140005593:	f2 0f 5c 1d 75 5e 00 	subsd  xmm3,QWORD PTR [rip+0x5e75]        # 0x14000b410
   14000559a:	00 
   14000559b:	f2 0f 5c e2          	subsd  xmm4,xmm2
   14000559f:	f2 0f 59 d9          	mulsd  xmm3,xmm1
   1400055a3:	f2 0f 5c e6          	subsd  xmm4,xmm6
   1400055a7:	f2 0f 58 1d 71 5e 00 	addsd  xmm3,QWORD PTR [rip+0x5e71]        # 0x14000b420
   1400055ae:	00 
   1400055af:	f2 0f 59 d9          	mulsd  xmm3,xmm1
   1400055b3:	f2 0f 5c 1d 75 5e 00 	subsd  xmm3,QWORD PTR [rip+0x5e75]        # 0x14000b430
   1400055ba:	00 
   1400055bb:	f2 0f 59 d9          	mulsd  xmm3,xmm1
   1400055bf:	f2 0f 59 c9          	mulsd  xmm1,xmm1
   1400055c3:	f2 0f 58 1d 75 5e 00 	addsd  xmm3,QWORD PTR [rip+0x5e75]        # 0x14000b440
   1400055ca:	00 
   1400055cb:	f2 0f 59 d9          	mulsd  xmm3,xmm1
   1400055cf:	f2 0f 58 dc          	addsd  xmm3,xmm4
   1400055d3:	f2 0f 58 dd          	addsd  xmm3,xmm5
   1400055d7:	0f 28 c3             	movaps xmm0,xmm3
   1400055da:	0f 28 7c 24 70       	movaps xmm7,XMMWORD PTR [rsp+0x70]
   1400055df:	4c 8d 9c 24 90 00 00 	lea    r11,[rsp+0x90]
   1400055e6:	00 
   1400055e7:	41 0f 28 73 f0       	movaps xmm6,XMMWORD PTR [r11-0x10]
   1400055ec:	45 0f 28 43 d0       	movaps xmm8,XMMWORD PTR [r11-0x30]
   1400055f1:	45 0f 28 4b c0       	movaps xmm9,XMMWORD PTR [r11-0x40]
   1400055f6:	49 8b e3             	mov    rsp,r11
   1400055f9:	5b                   	pop    rbx
   1400055fa:	c3                   	ret
   1400055fb:	cc                   	int3
   1400055fc:	66 0f 2e 0d bc 5d 00 	ucomisd xmm1,QWORD PTR [rip+0x5dbc]        # 0x14000b3c0
   140005603:	00 
   140005604:	0f 28 e8             	movaps xmm5,xmm0
   140005607:	0f 28 e0             	movaps xmm4,xmm0
   14000560a:	f2 0f 59 e8          	mulsd  xmm5,xmm0
   14000560e:	0f 28 d5             	movaps xmm2,xmm5
   140005611:	0f 28 dd             	movaps xmm3,xmm5
   140005614:	f2 0f 59 15 dc 5d 00 	mulsd  xmm2,QWORD PTR [rip+0x5ddc]        # 0x14000b3f8
   14000561b:	00 
   14000561c:	f2 0f 59 d8          	mulsd  xmm3,xmm0
   140005620:	f2 0f 5c 15 e0 5d 00 	subsd  xmm2,QWORD PTR [rip+0x5de0]        # 0x14000b408
   140005627:	00 
   140005628:	f2 0f 59 d5          	mulsd  xmm2,xmm5
   14000562c:	f2 0f 58 15 e4 5d 00 	addsd  xmm2,QWORD PTR [rip+0x5de4]        # 0x14000b418
   140005633:	00 
   140005634:	f2 0f 59 d5          	mulsd  xmm2,xmm5
   140005638:	f2 0f 5c 15 e8 5d 00 	subsd  xmm2,QWORD PTR [rip+0x5de8]        # 0x14000b428
   14000563f:	00 
   140005640:	f2 0f 59 d5          	mulsd  xmm2,xmm5
   140005644:	f2 0f 58 15 ec 5d 00 	addsd  xmm2,QWORD PTR [rip+0x5dec]        # 0x14000b438
   14000564b:	00 
   14000564c:	7a 1a                	jp     0x140005668
   14000564e:	75 18                	jne    0x140005668
   140005650:	f2 0f 59 d5          	mulsd  xmm2,xmm5
   140005654:	f2 0f 5c 15 ec 5d 00 	subsd  xmm2,QWORD PTR [rip+0x5dec]        # 0x14000b448
   14000565b:	00 
   14000565c:	f2 0f 59 d3          	mulsd  xmm2,xmm3
   140005660:	f2 0f 58 d0          	addsd  xmm2,xmm0
   140005664:	0f 28 c2             	movaps xmm0,xmm2
   140005667:	c3                   	ret
   140005668:	0f 28 c1             	movaps xmm0,xmm1
   14000566b:	f2 0f 59 d3          	mulsd  xmm2,xmm3
   14000566f:	f2 0f 59 05 f1 5b 00 	mulsd  xmm0,QWORD PTR [rip+0x5bf1]        # 0x14000b268
   140005676:	00 
   140005677:	f2 0f 59 1d e9 5d 00 	mulsd  xmm3,QWORD PTR [rip+0x5de9]        # 0x14000b468
   14000567e:	00 
   14000567f:	f2 0f 5c c2          	subsd  xmm0,xmm2
   140005683:	f2 0f 59 c5          	mulsd  xmm0,xmm5
   140005687:	f2 0f 5c c1          	subsd  xmm0,xmm1
   14000568b:	f2 0f 5c c3          	subsd  xmm0,xmm3
   14000568f:	f2 0f 5c e0          	subsd  xmm4,xmm0
   140005693:	0f 28 c4             	movaps xmm0,xmm4

=== HIT at line 4930 ===
   140005864:	72 f3                	jb     0x140005859
   140005866:	eb 06                	jmp    0x14000586e
   140005868:	41 ff c3             	inc    r11d
   14000586b:	4d 03 d2             	add    r10,r10
   14000586e:	4d 3b d5             	cmp    r10,r13
   140005871:	72 f5                	jb     0x140005868
   140005873:	43 8d 04 c9          	lea    eax,[r9+r9*8]
   140005877:	41 2b f3             	sub    esi,r11d
   14000587a:	c1 e0 02             	shl    eax,0x2
   14000587d:	40 8a ce             	mov    cl,sil
   140005880:	2b d8                	sub    ebx,eax
   140005882:	49 d3 e8             	shr    r8,cl
   140005885:	41 2b db             	sub    ebx,r11d
   140005888:	4d 0b c2             	or     r8,r10
   14000588b:	83 c3 34             	add    ebx,0x34
   14000588e:	48 b8 ff ff ff ff ff 	movabs rax,0xfffffffffffff
   140005895:	ff 0f 00 
   140005898:	4c 23 c0             	and    r8,rax
   14000589b:	48 63 d3             	movsxd rdx,ebx
   14000589e:	48 81 c2 ff 03 00 00 	add    rdx,0x3ff
   1400058a5:	48 b9 00 00 00 00 00 	movabs rcx,0x8000000000000000
   1400058ac:	00 00 80 
   1400058af:	48 c1 e2 34          	shl    rdx,0x34
   1400058b3:	49 0b d0             	or     rdx,r8
   1400058b6:	48 8b c2             	mov    rax,rdx
   1400058b9:	48 0b c1             	or     rax,rcx
   1400058bc:	85 ed                	test   ebp,ebp
   1400058be:	48 0f 44 c2          	cmove  rax,rdx
   1400058c2:	48 89 04 24          	mov    QWORD PTR [rsp],rax
   1400058c6:	f2 0f 10 04 24       	movsd  xmm0,QWORD PTR [rsp]
   1400058cb:	f2 0f 59 05 bd 59 00 	mulsd  xmm0,QWORD PTR [rip+0x59bd]        # 0x14000b290
   1400058d2:	00 
   1400058d3:	f2 41 0f 11 06       	movsd  QWORD PTR [r14],xmm0
   1400058d8:	48 8b 4c 24 60       	mov    rcx,QWORD PTR [rsp+0x60]
   1400058dd:	48 33 cc             	xor    rcx,rsp
   1400058e0:	e8 3b 14 00 00       	call   0x140006d20
   1400058e5:	4c 8d 5c 24 70       	lea    r11,[rsp+0x70]
   1400058ea:	49 8b 5b 30          	mov    rbx,QWORD PTR [r11+0x30]
   1400058ee:	49 8b 6b 48          	mov    rbp,QWORD PTR [r11+0x48]
   1400058f2:	49 8b e3             	mov    rsp,r11
   1400058f5:	41 5e                	pop    r14
   1400058f7:	41 5d                	pop    r13
   1400058f9:	41 5c                	pop    r12
   1400058fb:	5f                   	pop    rdi
   1400058fc:	5e                   	pop    rsi
   1400058fd:	c3                   	ret
   1400058fe:	cc                   	int3
   1400058ff:	cc                   	int3
   140005900:	40 53                	rex push rbx
   140005902:	48 83 ec 60          	sub    rsp,0x60
   140005906:	48 b8 ff ff ff ff ff 	movabs rax,0x7fffffffffffffff
   14000590d:	ff ff 7f 
   140005910:	0f 29 74 24 50       	movaps XMMWORD PTR [rsp+0x50],xmm6
   140005915:	0f 28 f0             	movaps xmm6,xmm0
   140005918:	0f 57 e4             	xorps  xmm4,xmm4
   14000591b:	f3 0f 5a e6          	cvtss2sd xmm4,xmm6
   14000591f:	f2 0f 11 a4 24 80 00 	movsd  QWORD PTR [rsp+0x80],xmm4
   140005926:	00 00 
   140005928:	48 8b 9c 24 80 00 00 	mov    rbx,QWORD PTR [rsp+0x80]
   14000592f:	00 
   140005930:	48 8b cb             	mov    rcx,rbx
   140005933:	48 23 c8             	and    rcx,rax
   140005936:	48 b8 18 2d 44 54 fb 	movabs rax,0x3fe921fb54442d18
   14000593d:	21 e9 3f 
   140005940:	48 3b c8             	cmp    rcx,rax
   140005943:	0f 87 b0 00 00 00    	ja     0x1400059f9
   140005949:	48 b8 00 00 00 00 00 	movabs rax,0x3f80000000000000
   140005950:	00 80 3f 
   140005953:	48 3b c8             	cmp    rcx,rax
   140005956:	73 48                	jae    0x1400059a0
   140005958:	48 b8 00 00 00 00 00 	movabs rax,0x3f20000000000000
   14000595f:	00 20 3f 
   140005962:	48 3b c8             	cmp    rcx,rax
   140005965:	73 1d                	jae    0x140005984
   140005967:	48 85 c9             	test   rcx,rcx
   14000596a:	0f 84 eb 02 00 00    	je     0x140005c5b
   140005970:	b9 10 00 00 00       	mov    ecx,0x10
   140005975:	8b d1                	mov    edx,ecx
   140005977:	e8 74 0a 00 00       	call   0x1400063f0
   14000597c:	0f 28 c6             	movaps xmm0,xmm6
   14000597f:	e9 d7 02 00 00       	jmp    0x140005c5b

=== HIT at line 5144 ===
   140005b83:	f2 0f 59 05 45 58 00 	mulsd  xmm0,QWORD PTR [rip+0x5845]        # 0x14000b3d0
   140005b8a:	00 
   140005b8b:	0f 28 d3             	movaps xmm2,xmm3
   140005b8e:	f2 0f 59 15 32 58 00 	mulsd  xmm2,QWORD PTR [rip+0x5832]        # 0x14000b3c8
   140005b95:	00 
   140005b96:	f2 0f 5c e0          	subsd  xmm4,xmm0
   140005b9a:	f2 0f 5c cc          	subsd  xmm1,xmm4
   140005b9e:	f2 0f 5c c8          	subsd  xmm1,xmm0
   140005ba2:	f2 0f 5c d1          	subsd  xmm2,xmm1
   140005ba6:	f2 0f 5c e2          	subsd  xmm4,xmm2
   140005baa:	83 e2 03             	and    edx,0x3
   140005bad:	eb 1f                	jmp    0x140005bce
   140005baf:	4c 8d 44 24 78       	lea    r8,[rsp+0x78]
   140005bb4:	48 8d 94 24 88 00 00 	lea    rdx,[rsp+0x88]
   140005bbb:	00 
   140005bbc:	e8 df fa ff ff       	call   0x1400056a0
   140005bc1:	8b 54 24 78          	mov    edx,DWORD PTR [rsp+0x78]
   140005bc5:	f2 0f 10 a4 24 88 00 	movsd  xmm4,QWORD PTR [rsp+0x88]
   140005bcc:	00 00 
   140005bce:	f2 0f 10 1d ca 58 00 	movsd  xmm3,QWORD PTR [rip+0x58ca]        # 0x14000b4a0
   140005bd5:	00 
   140005bd6:	0f 28 d4             	movaps xmm2,xmm4
   140005bd9:	f2 0f 59 d4          	mulsd  xmm2,xmm4
   140005bdd:	0f 28 c2             	movaps xmm0,xmm2
   140005be0:	0f 28 ca             	movaps xmm1,xmm2
   140005be3:	f2 0f 59 05 9d 58 00 	mulsd  xmm0,QWORD PTR [rip+0x589d]        # 0x14000b488
   140005bea:	00 
   140005beb:	f2 0f 59 cc          	mulsd  xmm1,xmm4
   140005bef:	f2 0f 5c d8          	subsd  xmm3,xmm0
   140005bf3:	0f 28 c2             	movaps xmm0,xmm2
   140005bf6:	f2 0f 59 05 92 58 00 	mulsd  xmm0,QWORD PTR [rip+0x5892]        # 0x14000b490
   140005bfd:	00 
   140005bfe:	f2 0f 59 d9          	mulsd  xmm3,xmm1
   140005c02:	f2 0f 5c 05 9e 58 00 	subsd  xmm0,QWORD PTR [rip+0x589e]        # 0x14000b4a8
   140005c09:	00 
   140005c0a:	f2 0f 59 c2          	mulsd  xmm0,xmm2
   140005c0e:	f2 0f 58 05 9a 58 00 	addsd  xmm0,QWORD PTR [rip+0x589a]        # 0x14000b4b0
   140005c15:	00 
   140005c16:	f2 0f 5e d8          	divsd  xmm3,xmm0
   140005c1a:	f2 0f 58 dc          	addsd  xmm3,xmm4
   140005c1e:	85 db                	test   ebx,ebx
   140005c20:	74 1f                	je     0x140005c41
   140005c22:	f6 c2 01             	test   dl,0x1
   140005c25:	74 0e                	je     0x140005c35
   140005c27:	f2 0f 10 05 89 58 00 	movsd  xmm0,QWORD PTR [rip+0x5889]        # 0x14000b4b8
   140005c2e:	00 
   140005c2f:	f2 0f 5e c3          	divsd  xmm0,xmm3
   140005c33:	eb 03                	jmp    0x140005c38
   140005c35:	0f 28 c3             	movaps xmm0,xmm3
   140005c38:	0f 57 c5             	xorps  xmm0,xmm5
   140005c3b:	f2 0f 5a c0          	cvtsd2ss xmm0,xmm0
   140005c3f:	eb 1a                	jmp    0x140005c5b
   140005c41:	f6 c2 01             	test   dl,0x1
   140005c44:	74 0e                	je     0x140005c54
   140005c46:	f2 0f 10 05 6a 58 00 	movsd  xmm0,QWORD PTR [rip+0x586a]        # 0x14000b4b8
   140005c4d:	00 
   140005c4e:	f2 0f 5e c3          	divsd  xmm0,xmm3
   140005c52:	eb 03                	jmp    0x140005c57
   140005c54:	0f 28 c3             	movaps xmm0,xmm3
   140005c57:	66 0f 5a c0          	cvtpd2ps xmm0,xmm0
   140005c5b:	0f 28 74 24 50       	movaps xmm6,XMMWORD PTR [rsp+0x50]
   140005c60:	48 83 c4 60          	add    rsp,0x60
   140005c64:	5b                   	pop    rbx
   140005c65:	c3                   	ret
   140005c66:	cc                   	int3
   140005c67:	cc                   	int3
   140005c68:	cc                   	int3
   140005c69:	cc                   	int3
   140005c6a:	cc                   	int3
   140005c6b:	cc                   	int3
   140005c6c:	cc                   	int3
   140005c6d:	cc                   	int3
   140005c6e:	cc                   	int3
   140005c6f:	cc                   	int3
   140005c70:	48 8b c4             	mov    rax,rsp
   140005c73:	55                   	push   rbp
   140005c74:	53                   	push   rbx
   140005c75:	56                   	push   rsi
   140005c76:	57                   	push   rdi
   140005c77:	41 54                	push   r12
   140005c79:	41 55                	push   r13

=== HIT at line 5236 ===
   140005cb1:	4c 8b 14 24          	mov    r10,QWORD PTR [rsp]
   140005cb5:	48 8d 3d a4 64 00 00 	lea    rdi,[rip+0x64a4]        # 0x14000c160
   140005cbc:	48 83 65 a8 00       	and    QWORD PTR [rbp-0x58],0x0
   140005cc1:	41 bc ff 03 00 00    	mov    r12d,0x3ff
   140005cc7:	4d 8b da             	mov    r11,r10
   140005cca:	48 b8 00 00 00 00 00 	movabs rax,0x10000000000000
   140005cd1:	00 10 00 
   140005cd4:	49 c1 eb 34          	shr    r11,0x34
   140005cd8:	49 bd ff ff ff ff ff 	movabs r13,0xfffffffffffff
   140005cdf:	ff 0f 00 
   140005ce2:	41 81 e3 ff 07 00 00 	and    r11d,0x7ff
   140005ce9:	4d 23 d5             	and    r10,r13
   140005cec:	4c 0b d0             	or     r10,rax
   140005cef:	45 2b dc             	sub    r11d,r12d
   140005cf2:	b8 67 66 66 66       	mov    eax,0x66666667
   140005cf7:	4d 8b f0             	mov    r14,r8
   140005cfa:	41 f7 eb             	imul   r11d
   140005cfd:	49 8b d9             	mov    rbx,r9
   140005d00:	c1 fa 02             	sar    edx,0x2
   140005d03:	8b c2                	mov    eax,edx
   140005d05:	c1 e8 1f             	shr    eax,0x1f
   140005d08:	03 d0                	add    edx,eax
   140005d0a:	4c 63 c2             	movsxd r8,edx
   140005d0d:	8d 04 92             	lea    eax,[rdx+rdx*4]
   140005d10:	03 c0                	add    eax,eax
   140005d12:	44 2b d8             	sub    r11d,eax
   140005d15:	48 63 c2             	movsxd rax,edx
   140005d18:	4a 8b 94 c7 88 00 00 	mov    rdx,QWORD PTR [rdi+r8*8+0x88]
   140005d1f:	00 
   140005d20:	49 0f af d2          	imul   rdx,r10
   140005d24:	48 8b 8c c7 90 00 00 	mov    rcx,QWORD PTR [rdi+rax*8+0x90]
   140005d2b:	00 
   140005d2c:	49 0f af ca          	imul   rcx,r10
   140005d30:	48 8b c1             	mov    rax,rcx
   140005d33:	48 c1 e9 0a          	shr    rcx,0xa
   140005d37:	48 03 d1             	add    rdx,rcx
   140005d3a:	49 23 c4             	and    rax,r12
   140005d3d:	4a 8b 8c c7 80 00 00 	mov    rcx,QWORD PTR [rdi+r8*8+0x80]
   140005d44:	00 
   140005d45:	48 89 45 a0          	mov    QWORD PTR [rbp-0x60],rax
   140005d49:	48 8b c2             	mov    rax,rdx
   140005d4c:	48 c1 ea 0a          	shr    rdx,0xa
   140005d50:	49 23 c4             	and    rax,r12
   140005d53:	48 89 45 98          	mov    QWORD PTR [rbp-0x68],rax
   140005d57:	49 0f af ca          	imul   rcx,r10
   140005d5b:	48 03 ca             	add    rcx,rdx
   140005d5e:	4a 8b 54 c7 78       	mov    rdx,QWORD PTR [rdi+r8*8+0x78]
   140005d63:	49 0f af d2          	imul   rdx,r10
   140005d67:	48 8b c1             	mov    rax,rcx
   140005d6a:	48 c1 e9 0a          	shr    rcx,0xa
   140005d6e:	48 03 d1             	add    rdx,rcx
   140005d71:	49 23 c4             	and    rax,r12
   140005d74:	4a 8b 4c c7 70       	mov    rcx,QWORD PTR [rdi+r8*8+0x70]
   140005d79:	48 89 45 90          	mov    QWORD PTR [rbp-0x70],rax
   140005d7d:	48 8b c2             	mov    rax,rdx
   140005d80:	48 c1 ea 0a          	shr    rdx,0xa
   140005d84:	49 23 c4             	and    rax,r12
   140005d87:	48 89 45 88          	mov    QWORD PTR [rbp-0x78],rax
   140005d8b:	49 0f af ca          	imul   rcx,r10
   140005d8f:	48 03 ca             	add    rcx,rdx
   140005d92:	4a 8b 54 c7 68       	mov    rdx,QWORD PTR [rdi+r8*8+0x68]
   140005d97:	49 0f af d2          	imul   rdx,r10
   140005d9b:	48 8b c1             	mov    rax,rcx
   140005d9e:	48 c1 e9 0a          	shr    rcx,0xa
   140005da2:	48 03 d1             	add    rdx,rcx
   140005da5:	49 23 c4             	and    rax,r12
   140005da8:	4a 8b 4c c7 60       	mov    rcx,QWORD PTR [rdi+r8*8+0x60]
   140005dad:	48 89 45 80          	mov    QWORD PTR [rbp-0x80],rax
   140005db1:	48 8b c2             	mov    rax,rdx
   140005db4:	48 c1 ea 0a          	shr    rdx,0xa
   140005db8:	49 23 c4             	and    rax,r12
   140005dbb:	48 89 44 24 78       	mov    QWORD PTR [rsp+0x78],rax
   140005dc0:	49 0f af ca          	imul   rcx,r10
   140005dc4:	48 03 ca             	add    rcx,rdx
   140005dc7:	4a 8b 54 c7 58       	mov    rdx,QWORD PTR [rdi+r8*8+0x58]
   140005dcc:	49 0f af d2          	imul   rdx,r10
   140005dd0:	48 8b c1             	mov    rax,rcx
   140005dd3:	48 c1 e9 0a          	shr    rcx,0xa
   140005dd7:	49 23 c4             	and    rax,r12
   140005dda:	48 03 d1             	add    rdx,rcx
   140005ddd:	48 89 44 24 70       	mov    QWORD PTR [rsp+0x70],rax

=== HIT at line 5467 ===
   140005ff5:	48 b9 00 00 00 00 00 	movabs rcx,0x3ff0000000000000
   140005ffc:	00 f0 3f 
   140005fff:	48 03 ca             	add    rcx,rdx
   140006002:	49 0b c9             	or     rcx,r9
   140006005:	49 b9 00 00 00 00 00 	movabs r9,0x8000000000000000
   14000600c:	00 00 80 
   14000600f:	48 8b c1             	mov    rax,rcx
   140006012:	49 0b c1             	or     rax,r9
   140006015:	85 ff                	test   edi,edi
   140006017:	48 0f 44 c1          	cmove  rax,rcx
   14000601b:	49 c1 e8 0c          	shr    r8,0xc
   14000601f:	48 89 04 24          	mov    QWORD PTR [rsp],rax
   140006023:	48 b8 00 00 00 00 00 	movabs rax,0x3ca0000000000000
   14000602a:	00 a0 3c 
   14000602d:	f2 44 0f 10 04 24    	movsd  xmm8,QWORD PTR [rsp]
   140006033:	48 03 c2             	add    rax,rdx
   140006036:	48 89 04 24          	mov    QWORD PTR [rsp],rax
   14000603a:	4c 0b c0             	or     r8,rax
   14000603d:	f2 0f 10 04 24       	movsd  xmm0,QWORD PTR [rsp]
   140006042:	4c 89 04 24          	mov    QWORD PTR [rsp],r8
   140006046:	f2 0f 10 3c 24       	movsd  xmm7,QWORD PTR [rsp]
   14000604b:	f2 0f 5c f8          	subsd  xmm7,xmm0
   14000604f:	85 ff                	test   edi,edi
   140006051:	74 0a                	je     0x14000605d
   140006053:	f2 0f 59 3d 7d 54 00 	mulsd  xmm7,QWORD PTR [rip+0x547d]        # 0x14000b4d8
   14000605a:	00 
   14000605b:	eb 0a                	jmp    0x140006067
   14000605d:	0f 28 c7             	movaps xmm0,xmm7
   140006060:	f2 0f 58 c7          	addsd  xmm0,xmm7
   140006064:	0f 28 f8             	movaps xmm7,xmm0
   140006067:	f2 0f 59 3d 21 52 00 	mulsd  xmm7,QWORD PTR [rip+0x5221]        # 0x14000b290
   14000606e:	00 
   14000606f:	41 0f 28 e0          	movaps xmm4,xmm8
   140006073:	f2 44 0f 11 04 24    	movsd  QWORD PTR [rsp],xmm8
   140006079:	41 0f 28 f0          	movaps xmm6,xmm8
   14000607d:	48 8b 04 24          	mov    rax,QWORD PTR [rsp]
   140006081:	f2 0f 59 35 07 52 00 	mulsd  xmm6,QWORD PTR [rip+0x5207]        # 0x14000b290
   140006088:	00 
   140006089:	48 25 00 00 00 f8    	and    rax,0xfffffffff8000000
   14000608f:	48 89 04 24          	mov    QWORD PTR [rsp],rax
   140006093:	f2 0f 10 14 24       	movsd  xmm2,QWORD PTR [rsp]
   140006098:	f2 44 0f 59 05 1f 54 	mulsd  xmm8,QWORD PTR [rip+0x541f]        # 0x14000b4c0
   14000609f:	00 00 
   1400060a1:	f2 0f 5c e2          	subsd  xmm4,xmm2
   1400060a5:	0f 28 ea             	movaps xmm5,xmm2
   1400060a8:	f2 0f 59 15 18 54 00 	mulsd  xmm2,QWORD PTR [rip+0x5418]        # 0x14000b4c8
   1400060af:	00 
   1400060b0:	f2 0f 59 2d 18 54 00 	mulsd  xmm5,QWORD PTR [rip+0x5418]        # 0x14000b4d0
   1400060b7:	00 
   1400060b8:	0f 28 c4             	movaps xmm0,xmm4
   1400060bb:	f2 41 0f 58 f8       	addsd  xmm7,xmm8
   1400060c0:	f2 0f 59 05 08 54 00 	mulsd  xmm0,QWORD PTR [rip+0x5408]        # 0x14000b4d0
   1400060c7:	00 
   1400060c8:	f2 0f 59 25 f8 53 00 	mulsd  xmm4,QWORD PTR [rip+0x53f8]        # 0x14000b4c8
   1400060cf:	00 
   1400060d0:	f2 0f 5c ee          	subsd  xmm5,xmm6
   1400060d4:	f2 0f 58 e8          	addsd  xmm5,xmm0
   1400060d8:	f2 0f 58 ea          	addsd  xmm5,xmm2
   1400060dc:	f2 0f 58 ec          	addsd  xmm5,xmm4
   1400060e0:	f2 0f 58 ef          	addsd  xmm5,xmm7
   1400060e4:	0f 28 c5             	movaps xmm0,xmm5
   1400060e7:	f2 0f 58 c6          	addsd  xmm0,xmm6
   1400060eb:	f2 0f 5c f0          	subsd  xmm6,xmm0
   1400060ef:	f2 0f 11 06          	movsd  QWORD PTR [rsi],xmm0
   1400060f3:	f2 0f 58 f5          	addsd  xmm6,xmm5
   1400060f7:	f2 41 0f 11 36       	movsd  QWORD PTR [r14],xmm6
   1400060fc:	48 8b 8d b0 0e 00 00 	mov    rcx,QWORD PTR [rbp+0xeb0]
   140006103:	48 33 cc             	xor    rcx,rsp
   140006106:	e8 15 0c 00 00       	call   0x140006d20
   14000610b:	4c 8d 9c 24 f0 0f 00 	lea    r11,[rsp+0xff0]
   140006112:	00 
   140006113:	41 0f 28 73 f0       	movaps xmm6,XMMWORD PTR [r11-0x10]
   140006118:	41 0f 28 7b e0       	movaps xmm7,XMMWORD PTR [r11-0x20]
   14000611d:	45 0f 28 43 d0       	movaps xmm8,XMMWORD PTR [r11-0x30]
   140006122:	49 8b e3             	mov    rsp,r11
   140006125:	41 5e                	pop    r14
   140006127:	41 5d                	pop    r13
   140006129:	41 5c                	pop    r12
   14000612b:	5f                   	pop    rdi
   14000612c:	5e                   	pop    rsi
   14000612d:	5b                   	pop    rbx

=== HIT at line 5658 ===
   140006290:	74 1b                	je     0x1400062ad
   140006292:	41 3b c6             	cmp    eax,r14d
   140006295:	74 10                	je     0x1400062a7
   140006297:	89 5c 24 40          	mov    DWORD PTR [rsp+0x40],ebx
   14000629b:	3d 00 03 00 00       	cmp    eax,0x300
   1400062a0:	75 13                	jne    0x1400062b5
   1400062a2:	41 0b df             	or     ebx,r15d
   1400062a5:	eb 0a                	jmp    0x1400062b1
   1400062a7:	0f ba eb 0e          	bts    ebx,0xe
   1400062ab:	eb 04                	jmp    0x1400062b1
   1400062ad:	0f ba eb 0d          	bts    ebx,0xd
   1400062b1:	89 5c 24 40          	mov    DWORD PTR [rsp+0x40],ebx
   1400062b5:	41 81 e0 00 00 00 03 	and    r8d,0x3000000
   1400062bc:	41 81 f8 00 00 00 01 	cmp    r8d,0x1000000
   1400062c3:	74 1d                	je     0x1400062e2
   1400062c5:	41 81 f8 00 00 00 02 	cmp    r8d,0x2000000
   1400062cc:	74 0f                	je     0x1400062dd
   1400062ce:	41 81 f8 00 00 00 03 	cmp    r8d,0x3000000
   1400062d5:	75 15                	jne    0x1400062ec
   1400062d7:	0f ba eb 0f          	bts    ebx,0xf
   1400062db:	eb 0b                	jmp    0x1400062e8
   1400062dd:	83 cb 40             	or     ebx,0x40
   1400062e0:	eb 06                	jmp    0x1400062e8
   1400062e2:	81 cb 40 80 00 00    	or     ebx,0x8040
   1400062e8:	89 5c 24 40          	mov    DWORD PTR [rsp+0x40],ebx
   1400062ec:	80 3d 5d 62 00 00 00 	cmp    BYTE PTR [rip+0x625d],0x0        # 0x14000c550
   1400062f3:	74 36                	je     0x14000632b
   1400062f5:	f6 c3 40             	test   bl,0x40
   1400062f8:	74 31                	je     0x14000632b
   1400062fa:	8b cb                	mov    ecx,ebx
   1400062fc:	e8 8f 05 00 00       	call   0x140006890
   140006301:	eb 32                	jmp    0x140006335
   140006303:	c6 05 46 62 00 00 00 	mov    BYTE PTR [rip+0x6246],0x0        # 0x14000c550
   14000630a:	8b 5c 24 40          	mov    ebx,DWORD PTR [rsp+0x40]
   14000630e:	83 e3 bf             	and    ebx,0xffffffbf
   140006311:	8b cb                	mov    ecx,ebx
   140006313:	e8 78 05 00 00       	call   0x140006890
   140006318:	be 00 01 00 00       	mov    esi,0x100
   14000631d:	41 be 00 02 00 00    	mov    r14d,0x200
   140006323:	41 bf 00 60 00 00    	mov    r15d,0x6000
   140006329:	eb 0a                	jmp    0x140006335
   14000632b:	83 e3 bf             	and    ebx,0xffffffbf
   14000632e:	8b cb                	mov    ecx,ebx
   140006330:	e8 5b 05 00 00       	call   0x140006890
   140006335:	8b cb                	mov    ecx,ebx
   140006337:	c1 e9 03             	shr    ecx,0x3
   14000633a:	83 e1 10             	and    ecx,0x10
   14000633d:	8b c3                	mov    eax,ebx
   14000633f:	8b d1                	mov    edx,ecx
   140006341:	83 ca 08             	or     edx,0x8
   140006344:	41 23 c6             	and    eax,r14d
   140006347:	0f 44 d1             	cmove  edx,ecx
   14000634a:	8b c3                	mov    eax,ebx
   14000634c:	8b ca                	mov    ecx,edx
   14000634e:	83 c9 04             	or     ecx,0x4
   140006351:	25 00 04 00 00       	and    eax,0x400
   140006356:	0f 44 ca             	cmove  ecx,edx
   140006359:	8b c3                	mov    eax,ebx
   14000635b:	8b d1                	mov    edx,ecx
   14000635d:	83 ca 02             	or     edx,0x2
   140006360:	25 00 08 00 00       	and    eax,0x800
   140006365:	0f 44 d1             	cmove  edx,ecx
   140006368:	8b c3                	mov    eax,ebx
   14000636a:	8b ca                	mov    ecx,edx
   14000636c:	83 c9 01             	or     ecx,0x1
   14000636f:	25 00 10 00 00       	and    eax,0x1000
   140006374:	0f 44 ca             	cmove  ecx,edx
   140006377:	8b c3                	mov    eax,ebx
   140006379:	8b d1                	mov    edx,ecx
   14000637b:	0f ba ea 13          	bts    edx,0x13
   14000637f:	23 c6                	and    eax,esi
   140006381:	0f 44 d1             	cmove  edx,ecx
   140006384:	8b c3                	mov    eax,ebx
   140006386:	41 23 c7             	and    eax,r15d
   140006389:	74 22                	je     0x1400063ad
   14000638b:	3d 00 20 00 00       	cmp    eax,0x2000
   140006390:	74 19                	je     0x1400063ab
   140006392:	3d 00 40 00 00       	cmp    eax,0x4000
   140006397:	74 0d                	je     0x1400063a6
   140006399:	41 3b c7             	cmp    eax,r15d
   14000639c:	75 0f                	jne    0x1400063ad

=== HIT at line 5753 ===
   1400063cb:	81 ca 00 00 00 03    	or     edx,0x3000000
   1400063d1:	eb 04                	jmp    0x1400063d7
   1400063d3:	0f ba ea 19          	bts    edx,0x19
   1400063d7:	8b c2                	mov    eax,edx
   1400063d9:	48 8b 5c 24 48       	mov    rbx,QWORD PTR [rsp+0x48]
   1400063de:	48 8b 74 24 50       	mov    rsi,QWORD PTR [rsp+0x50]
   1400063e3:	48 83 c4 20          	add    rsp,0x20
   1400063e7:	41 5f                	pop    r15
   1400063e9:	41 5e                	pop    r14
   1400063eb:	41 5c                	pop    r12
   1400063ed:	c3                   	ret
   1400063ee:	cc                   	int3
   1400063ef:	cc                   	int3
   1400063f0:	48 83 ec 28          	sub    rsp,0x28
   1400063f4:	0f ba f2 13          	btr    edx,0x13
   1400063f8:	e8 33 fd ff ff       	call   0x140006130
   1400063fd:	48 83 c4 28          	add    rsp,0x28
   140006401:	c3                   	ret
   140006402:	cc                   	int3
   140006403:	cc                   	int3
   140006404:	48 8b c4             	mov    rax,rsp
   140006407:	53                   	push   rbx
   140006408:	48 83 ec 50          	sub    rsp,0x50
   14000640c:	f2 0f 10 84 24 80 00 	movsd  xmm0,QWORD PTR [rsp+0x80]
   140006413:	00 00 
   140006415:	8b d9                	mov    ebx,ecx
   140006417:	f2 0f 10 8c 24 88 00 	movsd  xmm1,QWORD PTR [rsp+0x88]
   14000641e:	00 00 
   140006420:	ba c0 ff 00 00       	mov    edx,0xffc0
   140006425:	89 48 c8             	mov    DWORD PTR [rax-0x38],ecx
   140006428:	48 8b 8c 24 90 00 00 	mov    rcx,QWORD PTR [rsp+0x90]
   14000642f:	00 
   140006430:	f2 0f 11 40 e0       	movsd  QWORD PTR [rax-0x20],xmm0
   140006435:	f2 0f 11 48 e8       	movsd  QWORD PTR [rax-0x18],xmm1
   14000643a:	f2 0f 11 58 d8       	movsd  QWORD PTR [rax-0x28],xmm3
   14000643f:	4c 89 40 d0          	mov    QWORD PTR [rax-0x30],r8
   140006443:	e8 14 08 00 00       	call   0x140006c5c
   140006448:	48 8d 4c 24 20       	lea    rcx,[rsp+0x20]
   14000644d:	e8 2e b3 ff ff       	call   0x140001780
   140006452:	85 c0                	test   eax,eax
   140006454:	75 07                	jne    0x14000645d
   140006456:	8b cb                	mov    ecx,ebx
   140006458:	e8 bb 07 00 00       	call   0x140006c18
   14000645d:	f2 0f 10 44 24 40    	movsd  xmm0,QWORD PTR [rsp+0x40]
   140006463:	48 83 c4 50          	add    rsp,0x50
   140006467:	5b                   	pop    rbx
   140006468:	c3                   	ret
   140006469:	cc                   	int3
   14000646a:	cc                   	int3
   14000646b:	cc                   	int3
   14000646c:	48 89 5c 24 08       	mov    QWORD PTR [rsp+0x8],rbx
   140006471:	48 89 74 24 10       	mov    QWORD PTR [rsp+0x10],rsi
   140006476:	57                   	push   rdi
   140006477:	48 83 ec 20          	sub    rsp,0x20
   14000647b:	8b d9                	mov    ebx,ecx
   14000647d:	48 8b f2             	mov    rsi,rdx
   140006480:	83 e3 1f             	and    ebx,0x1f
   140006483:	8b f9                	mov    edi,ecx
   140006485:	f6 c1 08             	test   cl,0x8
   140006488:	74 14                	je     0x14000649e
   14000648a:	40 84 f6             	test   sil,sil
   14000648d:	79 0f                	jns    0x14000649e
   14000648f:	b9 01 00 00 00       	mov    ecx,0x1
   140006494:	e8 3f 08 00 00       	call   0x140006cd8
   140006499:	83 e3 f7             	and    ebx,0xfffffff7
   14000649c:	eb 57                	jmp    0x1400064f5
   14000649e:	b9 04 00 00 00       	mov    ecx,0x4
   1400064a3:	40 84 f9             	test   cl,dil
   1400064a6:	74 11                	je     0x1400064b9
   1400064a8:	48 0f ba e6 09       	bt     rsi,0x9
   1400064ad:	73 0a                	jae    0x1400064b9
   1400064af:	e8 24 08 00 00       	call   0x140006cd8
   1400064b4:	83 e3 fb             	and    ebx,0xfffffffb
   1400064b7:	eb 3c                	jmp    0x1400064f5
   1400064b9:	40 f6 c7 01          	test   dil,0x1
   1400064bd:	74 16                	je     0x1400064d5
   1400064bf:	48 0f ba e6 0a       	bt     rsi,0xa
   1400064c4:	73 0f                	jae    0x1400064d5
   1400064c6:	b9 08 00 00 00       	mov    ecx,0x8
   1400064cb:	e8 08 08 00 00       	call   0x140006cd8
   1400064d0:	83 e3 fe             	and    ebx,0xfffffffe

=== HIT at line 6153 ===
   14000696f:	48 89 70 20          	mov    QWORD PTR [rax+0x20],rsi
   140006973:	48 89 48 08          	mov    QWORD PTR [rax+0x8],rcx
   140006977:	57                   	push   rdi
   140006978:	48 83 ec 20          	sub    rsp,0x20
   14000697c:	33 ed                	xor    ebp,ebp
   14000697e:	41 8b f1             	mov    esi,r9d
   140006981:	21 69 04             	and    DWORD PTR [rcx+0x4],ebp
   140006984:	48 8b fa             	mov    rdi,rdx
   140006987:	21 69 08             	and    DWORD PTR [rcx+0x8],ebp
   14000698a:	48 8b d9             	mov    rbx,rcx
   14000698d:	21 69 0c             	and    DWORD PTR [rcx+0xc],ebp
   140006990:	41 f6 c0 10          	test   r8b,0x10
   140006994:	74 09                	je     0x14000699f
   140006996:	83 49 04 01          	or     DWORD PTR [rcx+0x4],0x1
   14000699a:	bd 8f 00 00 c0       	mov    ebp,0xc000008f
   14000699f:	41 f6 c0 02          	test   r8b,0x2
   1400069a3:	74 09                	je     0x1400069ae
   1400069a5:	83 49 04 02          	or     DWORD PTR [rcx+0x4],0x2
   1400069a9:	bd 93 00 00 c0       	mov    ebp,0xc0000093
   1400069ae:	41 f6 c0 01          	test   r8b,0x1
   1400069b2:	74 09                	je     0x1400069bd
   1400069b4:	83 49 04 04          	or     DWORD PTR [rcx+0x4],0x4
   1400069b8:	bd 91 00 00 c0       	mov    ebp,0xc0000091
   1400069bd:	41 f6 c0 04          	test   r8b,0x4
   1400069c1:	74 09                	je     0x1400069cc
   1400069c3:	83 49 04 08          	or     DWORD PTR [rcx+0x4],0x8
   1400069c7:	bd 8e 00 00 c0       	mov    ebp,0xc000008e
   1400069cc:	41 f6 c0 08          	test   r8b,0x8
   1400069d0:	74 09                	je     0x1400069db
   1400069d2:	83 49 04 10          	or     DWORD PTR [rcx+0x4],0x10
   1400069d6:	bd 90 00 00 c0       	mov    ebp,0xc0000090
   1400069db:	48 8b 02             	mov    rax,QWORD PTR [rdx]
   1400069de:	48 c1 e8 07          	shr    rax,0x7
   1400069e2:	c1 e0 04             	shl    eax,0x4
   1400069e5:	f7 d0                	not    eax
   1400069e7:	33 41 08             	xor    eax,DWORD PTR [rcx+0x8]
   1400069ea:	83 e0 10             	and    eax,0x10
   1400069ed:	31 41 08             	xor    DWORD PTR [rcx+0x8],eax
   1400069f0:	8b 41 08             	mov    eax,DWORD PTR [rcx+0x8]
   1400069f3:	48 8b 0a             	mov    rcx,QWORD PTR [rdx]
   1400069f6:	48 c1 e9 09          	shr    rcx,0x9
   1400069fa:	c1 e1 03             	shl    ecx,0x3
   1400069fd:	f7 d1                	not    ecx
   1400069ff:	33 c8                	xor    ecx,eax
   140006a01:	83 e1 08             	and    ecx,0x8
   140006a04:	33 c8                	xor    ecx,eax
   140006a06:	89 4b 08             	mov    DWORD PTR [rbx+0x8],ecx
   140006a09:	48 8b 02             	mov    rax,QWORD PTR [rdx]
   140006a0c:	48 c1 e8 0a          	shr    rax,0xa
   140006a10:	c1 e0 02             	shl    eax,0x2
   140006a13:	f7 d0                	not    eax
   140006a15:	33 c1                	xor    eax,ecx
   140006a17:	83 e0 04             	and    eax,0x4
   140006a1a:	33 c1                	xor    eax,ecx
   140006a1c:	89 43 08             	mov    DWORD PTR [rbx+0x8],eax
   140006a1f:	48 8b 0a             	mov    rcx,QWORD PTR [rdx]
   140006a22:	48 c1 e9 0b          	shr    rcx,0xb
   140006a26:	03 c9                	add    ecx,ecx
   140006a28:	f7 d1                	not    ecx
   140006a2a:	33 c8                	xor    ecx,eax
   140006a2c:	83 e1 02             	and    ecx,0x2
   140006a2f:	33 c8                	xor    ecx,eax
   140006a31:	89 4b 08             	mov    DWORD PTR [rbx+0x8],ecx
   140006a34:	8b 02                	mov    eax,DWORD PTR [rdx]
   140006a36:	48 c1 e8 0c          	shr    rax,0xc
   140006a3a:	f7 d0                	not    eax
   140006a3c:	33 c1                	xor    eax,ecx
   140006a3e:	83 e0 01             	and    eax,0x1
   140006a41:	33 c1                	xor    eax,ecx
   140006a43:	89 43 08             	mov    DWORD PTR [rbx+0x8],eax
   140006a46:	e8 ad 02 00 00       	call   0x140006cf8
   140006a4b:	a8 01                	test   al,0x1
   140006a4d:	74 04                	je     0x140006a53
   140006a4f:	83 4b 0c 10          	or     DWORD PTR [rbx+0xc],0x10
   140006a53:	a8 04                	test   al,0x4
   140006a55:	74 04                	je     0x140006a5b
   140006a57:	83 4b 0c 08          	or     DWORD PTR [rbx+0xc],0x8
   140006a5b:	a8 08                	test   al,0x8
   140006a5d:	74 04                	je     0x140006a63
   140006a5f:	83 4b 0c 04          	or     DWORD PTR [rbx+0xc],0x4
   140006a63:	a8 10                	test   al,0x10

=== HIT at line 6385 ===
   140006c47:	8b d8                	mov    ebx,eax
   140006c49:	83 e3 3f             	and    ebx,0x3f
   140006c4c:	e8 49 fc ff ff       	call   0x14000689a
   140006c51:	8b c3                	mov    eax,ebx
   140006c53:	48 83 c4 20          	add    rsp,0x20
   140006c57:	5b                   	pop    rbx
   140006c58:	c3                   	ret
   140006c59:	cc                   	int3
   140006c5a:	cc                   	int3
   140006c5b:	cc                   	int3
   140006c5c:	48 89 5c 24 18       	mov    QWORD PTR [rsp+0x18],rbx
   140006c61:	48 89 74 24 20       	mov    QWORD PTR [rsp+0x20],rsi
   140006c66:	57                   	push   rdi
   140006c67:	48 83 ec 20          	sub    rsp,0x20
   140006c6b:	48 8b da             	mov    rbx,rdx
   140006c6e:	48 8b f9             	mov    rdi,rcx
   140006c71:	e8 8a 10 00 00       	call   0x140007d00
   140006c76:	8b f0                	mov    esi,eax
   140006c78:	89 44 24 38          	mov    DWORD PTR [rsp+0x38],eax
   140006c7c:	8b cb                	mov    ecx,ebx
   140006c7e:	f7 d1                	not    ecx
   140006c80:	81 c9 7f 80 ff ff    	or     ecx,0xffff807f
   140006c86:	23 c8                	and    ecx,eax
   140006c88:	23 fb                	and    edi,ebx
   140006c8a:	0b cf                	or     ecx,edi
   140006c8c:	89 4c 24 30          	mov    DWORD PTR [rsp+0x30],ecx
   140006c90:	80 3d c9 58 00 00 00 	cmp    BYTE PTR [rip+0x58c9],0x0        # 0x14000c560
   140006c97:	74 25                	je     0x140006cbe
   140006c99:	f6 c1 40             	test   cl,0x40
   140006c9c:	74 20                	je     0x140006cbe
   140006c9e:	e8 ed fb ff ff       	call   0x140006890
   140006ca3:	eb 21                	jmp    0x140006cc6
   140006ca5:	c6 05 b4 58 00 00 00 	mov    BYTE PTR [rip+0x58b4],0x0        # 0x14000c560
   140006cac:	8b 4c 24 30          	mov    ecx,DWORD PTR [rsp+0x30]
   140006cb0:	83 e1 bf             	and    ecx,0xffffffbf
   140006cb3:	e8 d8 fb ff ff       	call   0x140006890
   140006cb8:	8b 74 24 38          	mov    esi,DWORD PTR [rsp+0x38]
   140006cbc:	eb 08                	jmp    0x140006cc6
   140006cbe:	83 e1 bf             	and    ecx,0xffffffbf
   140006cc1:	e8 ca fb ff ff       	call   0x140006890
   140006cc6:	8b c6                	mov    eax,esi
   140006cc8:	48 8b 5c 24 40       	mov    rbx,QWORD PTR [rsp+0x40]
   140006ccd:	48 8b 74 24 48       	mov    rsi,QWORD PTR [rsp+0x48]
   140006cd2:	48 83 c4 20          	add    rsp,0x20
   140006cd6:	5f                   	pop    rdi
   140006cd7:	c3                   	ret
   140006cd8:	40 53                	rex push rbx
   140006cda:	48 83 ec 20          	sub    rsp,0x20
   140006cde:	48 8b d9             	mov    rbx,rcx
   140006ce1:	e8 1a 10 00 00       	call   0x140007d00
   140006ce6:	83 e3 3f             	and    ebx,0x3f
   140006ce9:	0b c3                	or     eax,ebx
   140006ceb:	8b c8                	mov    ecx,eax
   140006ced:	e8 9e fb ff ff       	call   0x140006890
   140006cf2:	48 83 c4 20          	add    rsp,0x20
   140006cf6:	5b                   	pop    rbx
   140006cf7:	c3                   	ret
   140006cf8:	48 83 ec 28          	sub    rsp,0x28
   140006cfc:	e8 ff 0f 00 00       	call   0x140007d00
   140006d01:	83 e0 3f             	and    eax,0x3f
   140006d04:	48 83 c4 28          	add    rsp,0x28
   140006d08:	c3                   	ret
   140006d09:	cc                   	int3
   140006d0a:	cc                   	int3
   140006d0b:	cc                   	int3
   140006d0c:	cc                   	int3
   140006d0d:	cc                   	int3
   140006d0e:	cc                   	int3
   140006d0f:	cc                   	int3
   140006d10:	cc                   	int3
   140006d11:	cc                   	int3
   140006d12:	cc                   	int3
   140006d13:	cc                   	int3
   140006d14:	cc                   	int3
   140006d15:	cc                   	int3
   140006d16:	66 66 0f 1f 84 00 00 	data16 nop WORD PTR [rax+rax*1+0x0]
   140006d1d:	00 00 00 
   140006d20:	48 3b 0d 49 58 00 00 	cmp    rcx,QWORD PTR [rip+0x5849]        # 0x14000c570
   140006d27:	75 10                	jne    0x140006d39
   140006d29:	48 c1 c1 10          	rol    rcx,0x10
   140006d2d:	66 f7 c1 ff ff       	test   cx,0xffff

=== HIT at line 6514 ===
   140006dc1:	48 89 6c 24 10       	mov    QWORD PTR [rsp+0x10],rbp
   140006dc6:	48 89 74 24 18       	mov    QWORD PTR [rsp+0x18],rsi
   140006dcb:	57                   	push   rdi
   140006dcc:	48 83 ec 20          	sub    rsp,0x20
   140006dd0:	33 ed                	xor    ebp,ebp
   140006dd2:	48 8b f2             	mov    rsi,rdx
   140006dd5:	48 8b f9             	mov    rdi,rcx
   140006dd8:	48 85 c9             	test   rcx,rcx
   140006ddb:	75 0a                	jne    0x140006de7
   140006ddd:	e8 1e a2 00 00       	call   0x140011000
   140006de2:	e9 ed 00 00 00       	jmp    0x140006ed4
   140006de7:	48 8d 05 d2 7f 00 00 	lea    rax,[rip+0x7fd2]        # 0x14000edc0
   140006dee:	48 89 3d 03 82 00 00 	mov    QWORD PTR [rip+0x8203],rdi        # 0x14000eff8
   140006df5:	48 8d 0d dc 81 00 00 	lea    rcx,[rip+0x81dc]        # 0x14000efd8
   140006dfc:	48 89 05 dd 81 00 00 	mov    QWORD PTR [rip+0x81dd],rax        # 0x14000efe0
   140006e03:	c7 05 cb 81 00 00 00 	mov    DWORD PTR [rip+0x81cb],0x2080000        # 0x14000efd8
   140006e0a:	00 08 02 
   140006e0d:	48 ff 15 f4 42 00 00 	rex.W call QWORD PTR [rip+0x42f4]        # 0x14000b108
   140006e14:	0f 1f 44 00 00       	nop    DWORD PTR [rax+rax*1+0x0]
   140006e19:	4c 8d 0d d0 81 00 00 	lea    r9,[rip+0x81d0]        # 0x14000eff0
   140006e20:	48 8b cf             	mov    rcx,rdi
   140006e23:	4c 8d 05 56 57 00 00 	lea    r8,[rip+0x5756]        # 0x14000c580
   140006e2a:	48 8d 15 a7 81 00 00 	lea    rdx,[rip+0x81a7]        # 0x14000efd8
   140006e31:	e8 85 02 00 00       	call   0x1400070bb
   140006e36:	85 c0                	test   eax,eax
   140006e38:	0f 88 96 00 00 00    	js     0x140006ed4
   140006e3e:	48 8b 05 a3 81 00 00 	mov    rax,QWORD PTR [rip+0x81a3]        # 0x14000efe8
   140006e45:	48 8d 0d 34 57 00 00 	lea    rcx,[rip+0x5734]        # 0x14000c580
   140006e4c:	48 8b 90 48 06 00 00 	mov    rdx,QWORD PTR [rax+0x648]
   140006e53:	48 89 15 6e 81 00 00 	mov    QWORD PTR [rip+0x816e],rdx        # 0x14000efc8
   140006e5a:	e8 31 01 00 00       	call   0x140006f90
   140006e5f:	8b d8                	mov    ebx,eax
   140006e61:	85 c0                	test   eax,eax
   140006e63:	78 68                	js     0x140006ecd
   140006e65:	e8 c2 00 00 00       	call   0x140006f2c
   140006e6a:	8b d8                	mov    ebx,eax
   140006e6c:	85 c0                	test   eax,eax
   140006e6e:	78 5d                	js     0x140006ecd
   140006e70:	48 8b d6             	mov    rdx,rsi
   140006e73:	48 8b cf             	mov    rcx,rdi
   140006e76:	e8 85 a1 00 00       	call   0x140011000
   140006e7b:	8b d8                	mov    ebx,eax
   140006e7d:	85 c0                	test   eax,eax
   140006e7f:	78 4c                	js     0x140006ecd
   140006e81:	48 8b 05 68 81 00 00 	mov    rax,QWORD PTR [rip+0x8168]        # 0x14000eff0
   140006e88:	40 38 68 30          	cmp    BYTE PTR [rax+0x30],bpl
   140006e8c:	74 26                	je     0x140006eb4
   140006e8e:	48 8b 4f 68          	mov    rcx,QWORD PTR [rdi+0x68]
   140006e92:	48 8b 05 67 81 00 00 	mov    rax,QWORD PTR [rip+0x8167]        # 0x14000f000
   140006e99:	48 85 c9             	test   rcx,rcx
   140006e9c:	48 0f 45 c1          	cmovne rax,rcx
   140006ea0:	48 89 05 59 81 00 00 	mov    QWORD PTR [rip+0x8159],rax        # 0x14000f000
   140006ea7:	48 8d 05 52 00 00 00 	lea    rax,[rip+0x52]        # 0x140006f00
   140006eae:	48 89 47 68          	mov    QWORD PTR [rdi+0x68],rax
   140006eb2:	eb 15                	jmp    0x140006ec9
   140006eb4:	8b 40 08             	mov    eax,DWORD PTR [rax+0x8]
   140006eb7:	a8 02                	test   al,0x2
   140006eb9:	74 0e                	je     0x140006ec9
   140006ebb:	48 8d 05 2e 00 00 00 	lea    rax,[rip+0x2e]        # 0x140006ef0
   140006ec2:	48 89 05 ff 80 00 00 	mov    QWORD PTR [rip+0x80ff],rax        # 0x14000efc8
   140006ec9:	33 c0                	xor    eax,eax
   140006ecb:	eb 07                	jmp    0x140006ed4
   140006ecd:	e8 82 fe ff ff       	call   0x140006d54
   140006ed2:	8b c3                	mov    eax,ebx
   140006ed4:	48 8b 5c 24 30       	mov    rbx,QWORD PTR [rsp+0x30]
   140006ed9:	48 8b 6c 24 38       	mov    rbp,QWORD PTR [rsp+0x38]
   140006ede:	48 8b 74 24 40       	mov    rsi,QWORD PTR [rsp+0x40]
   140006ee3:	48 83 c4 20          	add    rsp,0x20
   140006ee7:	5f                   	pop    rdi
   140006ee8:	c3                   	ret
   140006ee9:	cc                   	int3
   140006eea:	cc                   	int3
   140006eeb:	cc                   	int3
   140006eec:	cc                   	int3
   140006eed:	cc                   	int3
   140006eee:	cc                   	int3
   140006eef:	cc                   	int3
   140006ef0:	48 83 ec 28          	sub    rsp,0x28
   140006ef4:	e8 5b fe ff ff       	call   0x140006d54
   140006ef9:	48 83 c4 28          	add    rsp,0x28
   140006efd:	c3                   	ret

=== HIT at line 6613 ===
   140006f44:	48 3b c7             	cmp    rax,rdi
   140006f47:	76 07                	jbe    0x140006f50
   140006f49:	b8 7b 00 00 c0       	mov    eax,0xc000007b
   140006f4e:	eb 2c                	jmp    0x140006f7c
   140006f50:	48 8d 1d 59 7e 00 00 	lea    rbx,[rip+0x7e59]        # 0x14000edb0
   140006f57:	eb 1c                	jmp    0x140006f75
   140006f59:	83 3b 28             	cmp    DWORD PTR [rbx],0x28
   140006f5c:	75 29                	jne    0x140006f87
   140006f5e:	48 8b 43 20          	mov    rax,QWORD PTR [rbx+0x20]
   140006f62:	48 85 c0             	test   rax,rax
   140006f65:	74 0a                	je     0x140006f71
   140006f67:	ff 15 d3 41 00 00    	call   QWORD PTR [rip+0x41d3]        # 0x14000b140
   140006f6d:	48 89 43 18          	mov    QWORD PTR [rbx+0x18],rax
   140006f71:	48 83 c3 28          	add    rbx,0x28
   140006f75:	48 3b df             	cmp    rbx,rdi
   140006f78:	72 df                	jb     0x140006f59
   140006f7a:	33 c0                	xor    eax,eax
   140006f7c:	48 8b 5c 24 30       	mov    rbx,QWORD PTR [rsp+0x30]
   140006f81:	48 83 c4 20          	add    rsp,0x20
   140006f85:	5f                   	pop    rdi
   140006f86:	c3                   	ret
   140006f87:	b8 04 00 00 c0       	mov    eax,0xc0000004
   140006f8c:	eb ee                	jmp    0x140006f7c
   140006f8e:	cc                   	int3
   140006f8f:	cc                   	int3
   140006f90:	48 89 5c 24 08       	mov    QWORD PTR [rsp+0x8],rbx
   140006f95:	48 89 74 24 10       	mov    QWORD PTR [rsp+0x10],rsi
   140006f9a:	57                   	push   rdi
   140006f9b:	48 83 ec 30          	sub    rsp,0x30
   140006f9f:	48 8b f9             	mov    rdi,rcx
   140006fa2:	48 8d 35 e7 7d 00 00 	lea    rsi,[rip+0x7de7]        # 0x14000ed90
   140006fa9:	48 8d 0d d0 7d 00 00 	lea    rcx,[rip+0x7dd0]        # 0x14000ed80
   140006fb0:	33 c0                	xor    eax,eax
   140006fb2:	48 3b ce             	cmp    rcx,rsi
   140006fb5:	77 72                	ja     0x140007029
   140006fb7:	4c 8d 05 d2 7d 00 00 	lea    r8,[rip+0x7dd2]        # 0x14000ed90
   140006fbe:	4c 3b c6             	cmp    r8,rsi
   140006fc1:	73 6b                	jae    0x14000702e
   140006fc3:	49 8d 40 04          	lea    rax,[r8+0x4]
   140006fc7:	48 3b c6             	cmp    rax,rsi
   140006fca:	77 5d                	ja     0x140007029
   140006fcc:	41 83 38 50          	cmp    DWORD PTR [r8],0x50
   140006fd0:	75 50                	jne    0x140007022
   140006fd2:	49 8d 58 50          	lea    rbx,[r8+0x50]
   140006fd6:	48 3b de             	cmp    rbx,rsi
   140006fd9:	77 4e                	ja     0x140007029
   140006fdb:	49 8b 40 38          	mov    rax,QWORD PTR [r8+0x38]
   140006fdf:	4c 89 05 b2 7d 00 00 	mov    QWORD PTR [rip+0x7db2],r8        # 0x14000ed98
   140006fe6:	48 85 c0             	test   rax,rax
   140006fe9:	74 1c                	je     0x140007007
   140006feb:	4d 8b c8             	mov    r9,r8
   140006fee:	48 8d 0d db 00 00 00 	lea    rcx,[rip+0xdb]        # 0x1400070d0
   140006ff5:	4c 8b 05 f4 7f 00 00 	mov    r8,QWORD PTR [rip+0x7ff4]        # 0x14000eff0
   140006ffc:	48 8b d7             	mov    rdx,rdi
   140006fff:	ff 15 3b 41 00 00    	call   QWORD PTR [rip+0x413b]        # 0x14000b140
   140007005:	eb 0f                	jmp    0x140007016
   140007007:	48 8b 15 e2 7f 00 00 	mov    rdx,QWORD PTR [rip+0x7fe2]        # 0x14000eff0
   14000700e:	48 8b cf             	mov    rcx,rdi
   140007011:	e8 ba 00 00 00       	call   0x1400070d0
   140007016:	85 c0                	test   eax,eax
   140007018:	78 14                	js     0x14000702e
   14000701a:	4c 8b c3             	mov    r8,rbx
   14000701d:	48 3b de             	cmp    rbx,rsi
   140007020:	eb 9f                	jmp    0x140006fc1
   140007022:	b8 04 00 00 c0       	mov    eax,0xc0000004
   140007027:	eb 05                	jmp    0x14000702e
   140007029:	b8 7b 00 00 c0       	mov    eax,0xc000007b
   14000702e:	48 8b 5c 24 40       	mov    rbx,QWORD PTR [rsp+0x40]
   140007033:	48 8b 74 24 48       	mov    rsi,QWORD PTR [rsp+0x48]
   140007038:	48 83 c4 30          	add    rsp,0x30
   14000703c:	5f                   	pop    rdi
   14000703d:	c3                   	ret
   14000703e:	cc                   	int3
   14000703f:	cc                   	int3
   140007040:	48 89 5c 24 08       	mov    QWORD PTR [rsp+0x8],rbx
   140007045:	57                   	push   rdi
   140007046:	48 83 ec 30          	sub    rsp,0x30
   14000704a:	48 8b 05 47 7d 00 00 	mov    rax,QWORD PTR [rip+0x7d47]        # 0x14000ed98
   140007051:	48 8d 1d 38 7d 00 00 	lea    rbx,[rip+0x7d38]        # 0x14000ed90
   140007058:	48 8b f9             	mov    rdi,rcx
   14000705b:	48 8d 0d 1e 7d 00 00 	lea    rcx,[rip+0x7d1e]        # 0x14000ed80

=== HIT at line 6744 ===
   1400070e9:	cc                   	int3
   1400070ea:	cc                   	int3
   1400070eb:	cc                   	int3
   1400070ec:	cc                   	int3
   1400070ed:	cc                   	int3
   1400070ee:	cc                   	int3
   1400070ef:	cc                   	int3
   1400070f0:	66 0f 2e 05 f8 43 00 	ucomisd xmm0,QWORD PTR [rip+0x43f8]        # 0x14000b4f0
   1400070f7:	00 
   1400070f8:	73 14                	jae    0x14000710e
   1400070fa:	66 0f 2e 05 f6 43 00 	ucomisd xmm0,QWORD PTR [rip+0x43f6]        # 0x14000b4f8
   140007101:	00 
   140007102:	76 0a                	jbe    0x14000710e
   140007104:	f2 48 0f 2d c8       	cvtsd2si rcx,xmm0
   140007109:	f2 48 0f 2a c1       	cvtsi2sd xmm0,rcx
   14000710e:	c3                   	ret
   14000710f:	cc                   	int3
   140007110:	48 81 ec 18 01 00 00 	sub    rsp,0x118
   140007117:	66 0f 7f b4 24 b0 00 	movdqa XMMWORD PTR [rsp+0xb0],xmm6
   14000711e:	00 00 
   140007120:	66 0f 7f bc 24 c0 00 	movdqa XMMWORD PTR [rsp+0xc0],xmm7
   140007127:	00 00 
   140007129:	f2 0f 11 44 24 40    	movsd  QWORD PTR [rsp+0x40],xmm0
   14000712f:	f2 0f 11 4c 24 50    	movsd  QWORD PTR [rsp+0x50],xmm1
   140007135:	48 8b 54 24 40       	mov    rdx,QWORD PTR [rsp+0x40]
   14000713a:	4c 8b 44 24 50       	mov    r8,QWORD PTR [rsp+0x50]
   14000713f:	4c 8b 15 e2 54 00 00 	mov    r10,QWORD PTR [rip+0x54e2]        # 0x14000c628
   140007146:	4d 23 d0             	and    r10,r8
   140007149:	0f 84 31 07 00 00    	je     0x140007880
   14000714f:	4c 3b 05 c2 54 00 00 	cmp    r8,QWORD PTR [rip+0x54c2]        # 0x14000c618
   140007156:	0f 84 34 07 00 00    	je     0x140007890
   14000715c:	4c 8b 0d 8d 54 00 00 	mov    r9,QWORD PTR [rip+0x548d]        # 0x14000c5f0
   140007163:	4c 23 ca             	and    r9,rdx
   140007166:	4c 3b 0d 83 54 00 00 	cmp    r9,QWORD PTR [rip+0x5483]        # 0x14000c5f0
   14000716d:	48 8b 05 ac 54 00 00 	mov    rax,QWORD PTR [rip+0x54ac]        # 0x14000c620
   140007174:	48 89 44 24 70       	mov    QWORD PTR [rsp+0x70],rax
   140007179:	0f 84 f1 04 00 00    	je     0x140007670
   14000717f:	48 3b 15 92 54 00 00 	cmp    rdx,QWORD PTR [rip+0x5492]        # 0x14000c618
   140007186:	0f 84 e4 06 00 00    	je     0x140007870
   14000718c:	48 3b 15 8d 54 00 00 	cmp    rdx,QWORD PTR [rip+0x548d]        # 0x14000c620
   140007193:	0f 84 27 08 00 00    	je     0x1400079c0
   140007199:	4c 8b 0d 60 54 00 00 	mov    r9,QWORD PTR [rip+0x5460]        # 0x14000c600
   1400071a0:	4c 23 ca             	and    r9,rdx
   1400071a3:	4c 3b 0d 56 54 00 00 	cmp    r9,QWORD PTR [rip+0x5456]        # 0x14000c600
   1400071aa:	0f 84 b0 08 00 00    	je     0x140007a60
   1400071b0:	4c 8b 15 49 54 00 00 	mov    r10,QWORD PTR [rip+0x5449]        # 0x14000c600
   1400071b7:	4d 23 d0             	and    r10,r8
   1400071ba:	4c 3b 15 1f 54 00 00 	cmp    r10,QWORD PTR [rip+0x541f]        # 0x14000c5e0
   1400071c1:	0f 8f a9 07 00 00    	jg     0x140007970
   1400071c7:	4c 8b 15 32 54 00 00 	mov    r10,QWORD PTR [rip+0x5432]        # 0x14000c600
   1400071ce:	4d 23 d0             	and    r10,r8
   1400071d1:	4c 3b 15 10 54 00 00 	cmp    r10,QWORD PTR [rip+0x5410]        # 0x14000c5e8
   1400071d8:	0f 8c f2 08 00 00    	jl     0x140007ad0
   1400071de:	4d 33 c0             	xor    r8,r8
   1400071e1:	66 0f 6f d8          	movdqa xmm3,xmm0
   1400071e5:	66 0f 73 d3 34       	psrlq  xmm3,0x34
   1400071ea:	66 49 0f 7e c0       	movq   r8,xmm0
   1400071ef:	66 0f fb 1d 39 55 00 	psubq  xmm3,XMMWORD PTR [rip+0x5539]        # 0x14000c730
   1400071f6:	00 
   1400071f7:	66 0f 6f d0          	movdqa xmm2,xmm0
   1400071fb:	f3 0f e6 f3          	cvtdq2pd xmm6,xmm3
   1400071ff:	66 0f db 15 19 55 00 	pand   xmm2,XMMWORD PTR [rip+0x5519]        # 0x14000c720
   140007206:	00 
   140007207:	66 0f 2f 35 01 56 00 	comisd xmm6,QWORD PTR [rip+0x5601]        # 0x14000c810
   14000720e:	00 
   14000720f:	0f 84 1b 04 00 00    	je     0x140007630
   140007215:	f2 0f 10 f8          	movsd  xmm7,xmm0
   140007219:	4d 8b c8             	mov    r9,r8
   14000721c:	4c 23 05 75 54 00 00 	and    r8,QWORD PTR [rip+0x5475]        # 0x14000c698
   140007223:	4c 23 0d 76 54 00 00 	and    r9,QWORD PTR [rip+0x5476]        # 0x14000c6a0
   14000722a:	f2 0f 5c 3d 4e 55 00 	subsd  xmm7,QWORD PTR [rip+0x554e]        # 0x14000c780
   140007231:	00 
   140007232:	49 d1 e1             	shl    r9,1
   140007235:	4d 03 c1             	add    r8,r9
   140007238:	4c 89 84 24 a0 00 00 	mov    QWORD PTR [rsp+0xa0],r8
   14000723f:	00 
   140007240:	66 0f 54 3d f8 55 00 	andpd  xmm7,XMMWORD PTR [rip+0x55f8]        # 0x14000c840
   140007247:	00 
   140007248:	f2 0f 10 8c 24 a0 00 	movsd  xmm1,QWORD PTR [rsp+0xa0]
   14000724f:	00 00 
   140007251:	49 c1 e8 2c          	shr    r8,0x2c

=== HIT at line 6862 ===
   1400072f8:	f2 0f 58 fd          	addsd  xmm7,xmm5
   1400072fc:	f2 0f 59 dc          	mulsd  xmm3,xmm4
   140007300:	f2 0f 58 cb          	addsd  xmm1,xmm3
   140007304:	f2 0f 58 cf          	addsd  xmm1,xmm7
   140007308:	f2 0f 10 2d 50 54 00 	movsd  xmm5,QWORD PTR [rip+0x5450]        # 0x14000c760
   14000730f:	00 
   140007310:	48 8d 15 49 5d 00 00 	lea    rdx,[rip+0x5d49]        # 0x14000d060
   140007317:	f2 0f 59 ee          	mulsd  xmm5,xmm6
   14000731b:	f2 43 0f 10 04 c1    	movsd  xmm0,QWORD PTR [r9+r8*8]
   140007321:	f2 0f 5c e9          	subsd  xmm5,xmm1
   140007325:	f2 42 0f 10 1c c2    	movsd  xmm3,QWORD PTR [rdx+r8*8]
   14000732b:	f2 0f 58 dd          	addsd  xmm3,xmm5
   14000732f:	f2 0f 10 cb          	movsd  xmm1,xmm3
   140007333:	f2 0f 5c da          	subsd  xmm3,xmm2
   140007337:	f2 0f 10 3d 11 54 00 	movsd  xmm7,QWORD PTR [rip+0x5411]        # 0x14000c750
   14000733e:	00 
   14000733f:	f2 0f 59 fe          	mulsd  xmm7,xmm6
   140007343:	f2 0f 58 c7          	addsd  xmm0,xmm7
   140007347:	f2 0f 10 f8          	movsd  xmm7,xmm0
   14000734b:	f2 0f 58 c3          	addsd  xmm0,xmm3
   14000734f:	f2 0f 10 e8          	movsd  xmm5,xmm0
   140007353:	66 0f 54 05 55 53 00 	andpd  xmm0,XMMWORD PTR [rip+0x5355]        # 0x14000c6b0
   14000735a:	00 
   14000735b:	48 8b 44 24 50       	mov    rax,QWORD PTR [rsp+0x50]
   140007360:	48 23 05 49 53 00 00 	and    rax,QWORD PTR [rip+0x5349]        # 0x14000c6b0
   140007367:	f2 0f 58 d3          	addsd  xmm2,xmm3
   14000736b:	f2 0f 5c fd          	subsd  xmm7,xmm5
   14000736f:	f2 0f 5c ca          	subsd  xmm1,xmm2
   140007373:	f2 0f 58 fb          	addsd  xmm7,xmm3
   140007377:	f2 0f 5c e8          	subsd  xmm5,xmm0
   14000737b:	48 89 84 24 90 00 00 	mov    QWORD PTR [rsp+0x90],rax
   140007382:	00 
   140007383:	f2 0f 10 64 24 50    	movsd  xmm4,QWORD PTR [rsp+0x50]
   140007389:	f2 0f 58 f9          	addsd  xmm7,xmm1
   14000738d:	f2 0f 58 fd          	addsd  xmm7,xmm5
   140007391:	f2 0f 10 94 24 90 00 	movsd  xmm2,QWORD PTR [rsp+0x90]
   140007398:	00 00 
   14000739a:	f2 0f 5c e2          	subsd  xmm4,xmm2
   14000739e:	f2 0f 10 dc          	movsd  xmm3,xmm4
   1400073a2:	f2 0f 10 ef          	movsd  xmm5,xmm7
   1400073a6:	f2 0f 10 f0          	movsd  xmm6,xmm0
   1400073aa:	f2 0f 59 df          	mulsd  xmm3,xmm7
   1400073ae:	f2 0f 59 e0          	mulsd  xmm4,xmm0
   1400073b2:	f2 0f 59 ea          	mulsd  xmm5,xmm2
   1400073b6:	f2 0f 59 f2          	mulsd  xmm6,xmm2
   1400073ba:	f2 0f 10 ce          	movsd  xmm1,xmm6
   1400073be:	f2 0f 58 dc          	addsd  xmm3,xmm4
   1400073c2:	f2 0f 58 dd          	addsd  xmm3,xmm5
   1400073c6:	f2 0f 58 cb          	addsd  xmm1,xmm3
   1400073ca:	f2 0f 10 c1          	movsd  xmm0,xmm1
   1400073ce:	f2 0f 5c f1          	subsd  xmm6,xmm1
   1400073d2:	f2 0f 58 f3          	addsd  xmm6,xmm3
   1400073d6:	f2 0f 10 3d 22 75 00 	movsd  xmm7,QWORD PTR [rip+0x7522]        # 0x14000e900
   1400073dd:	00 
   1400073de:	f2 0f 11 44 24 60    	movsd  QWORD PTR [rsp+0x60],xmm0
   1400073e4:	f2 0f 59 f8          	mulsd  xmm7,xmm0
   1400073e8:	48 8b 54 24 60       	mov    rdx,QWORD PTR [rsp+0x60]
   1400073ed:	66 0f 2f 3d eb 74 00 	comisd xmm7,QWORD PTR [rip+0x74eb]        # 0x14000e8e0
   1400073f4:	00 
   1400073f5:	0f 87 15 02 00 00    	ja     0x140007610
   1400073fb:	66 0f 2f 3d ed 74 00 	comisd xmm7,QWORD PTR [rip+0x74ed]        # 0x14000e8f0
   140007402:	00 
   140007403:	0f 82 e7 01 00 00    	jb     0x1400075f0
   140007409:	f2 0f e6 e7          	cvtpd2dq xmm4,xmm7
   14000740d:	4c 8d 15 6c 75 00 00 	lea    r10,[rip+0x756c]        # 0x14000e980
   140007414:	4c 8d 1d 65 77 00 00 	lea    r11,[rip+0x7765]        # 0x14000eb80
   14000741b:	f3 0f e6 cc          	cvtdq2pd xmm1,xmm4
   14000741f:	f2 0f 10 15 e9 74 00 	movsd  xmm2,QWORD PTR [rip+0x74e9]        # 0x14000e910
   140007426:	00 
   140007427:	f2 0f 59 d1          	mulsd  xmm2,xmm1
   14000742b:	66 0f 7e e1          	movd   ecx,xmm4
   14000742f:	48 c7 c0 3f 00 00 00 	mov    rax,0x3f
   140007436:	23 c1                	and    eax,ecx
   140007438:	f2 0f 5c c2          	subsd  xmm0,xmm2
   14000743c:	f2 0f 59 0d dc 74 00 	mulsd  xmm1,QWORD PTR [rip+0x74dc]        # 0x14000e920
   140007443:	00 
   140007444:	f2 0f 10 d0          	movsd  xmm2,xmm0
   140007448:	2b c8                	sub    ecx,eax
   14000744a:	c1 f9 06             	sar    ecx,0x6
   14000744d:	f2 0f 58 d1          	addsd  xmm2,xmm1
   140007451:	f2 0f 58 d6          	addsd  xmm2,xmm6

=== HIT at line 6979 ===
   1400074f2:	f2 0f 58 cd          	addsd  xmm1,xmm5
   1400074f6:	f2 41 0f 58 0c c2    	addsd  xmm1,QWORD PTR [r10+rax*8]
   1400074fc:	f2 0f 10 c1          	movsd  xmm0,xmm1
   140007500:	74 3e                	je     0x140007540
   140007502:	45 85 c9             	test   r9d,r9d
   140007505:	48 89 4c 24 60       	mov    QWORD PTR [rsp+0x60],rcx
   14000750a:	75 54                	jne    0x140007560
   14000750c:	f2 0f 59 44 24 60    	mulsd  xmm0,QWORD PTR [rsp+0x60]
   140007512:	66 0f 56 44 24 70    	orpd   xmm0,XMMWORD PTR [rsp+0x70]
   140007518:	66 0f 6f bc 24 c0 00 	movdqa xmm7,XMMWORD PTR [rsp+0xc0]
   14000751f:	00 00 
   140007521:	66 0f 6f b4 24 b0 00 	movdqa xmm6,XMMWORD PTR [rsp+0xb0]
   140007528:	00 00 
   14000752a:	48 81 c4 18 01 00 00 	add    rsp,0x118
   140007531:	c3                   	ret
   140007532:	66 66 66 66 66 66 0f 	data16 data16 data16 data16 data16 nop WORD PTR [rax+rax*1+0x0]
   140007539:	1f 84 00 00 00 00 00 
   140007540:	66 0f 2f 05 38 52 00 	comisd xmm0,QWORD PTR [rip+0x5238]        # 0x14000c780
   140007547:	00 
   140007548:	0f 83 c2 00 00 00    	jae    0x140007610
   14000754e:	66 0f 56 05 4a 73 00 	orpd   xmm0,XMMWORD PTR [rip+0x734a]        # 0x14000e8a0
   140007555:	00 
   140007556:	66 0f 56 44 24 70    	orpd   xmm0,XMMWORD PTR [rsp+0x70]
   14000755c:	eb ba                	jmp    0x140007518
   14000755e:	66 90                	xchg   ax,ax
   140007560:	41 8b c9             	mov    ecx,r9d
   140007563:	45 33 db             	xor    r11d,r11d
   140007566:	66 0f 2f 05 12 52 00 	comisd xmm0,QWORD PTR [rip+0x5212]        # 0x14000c780
   14000756d:	00 
   14000756e:	44 0f 43 d9          	cmovae r11d,ecx
   140007572:	44 3b 1d 17 73 00 00 	cmp    r11d,DWORD PTR [rip+0x7317]        # 0x14000e890
   140007579:	75 15                	jne    0x140007590
   14000757b:	f2 0f 59 44 24 60    	mulsd  xmm0,QWORD PTR [rsp+0x60]
   140007581:	66 0f 56 44 24 70    	orpd   xmm0,XMMWORD PTR [rsp+0x70]
   140007587:	eb 8f                	jmp    0x140007518
   140007589:	0f 1f 80 00 00 00 00 	nop    DWORD PTR [rax+0x0]
   140007590:	4d 33 c0             	xor    r8,r8
   140007593:	48 3b 15 36 73 00 00 	cmp    rdx,QWORD PTR [rip+0x7336]        # 0x14000e8d0
   14000759a:	49 c7 c1 01 00 00 00 	mov    r9,0x1
   1400075a1:	7f 2d                	jg     0x1400075d0
   1400075a3:	81 c1 32 04 00 00    	add    ecx,0x432
   1400075a9:	49 0f 48 c8          	cmovs  rcx,r8
   1400075ad:	49 d3 e1             	shl    r9,cl
   1400075b0:	49 8b c9             	mov    rcx,r9
   1400075b3:	48 89 4c 24 60       	mov    QWORD PTR [rsp+0x60],rcx
   1400075b8:	f2 0f 59 44 24 60    	mulsd  xmm0,QWORD PTR [rsp+0x60]
   1400075be:	66 0f 56 44 24 70    	orpd   xmm0,XMMWORD PTR [rsp+0x70]
   1400075c4:	e9 d7 06 00 00       	jmp    0x140007ca0
   1400075c9:	0f 1f 80 00 00 00 00 	nop    DWORD PTR [rax+0x0]
   1400075d0:	f2 0f 10 05 e8 72 00 	movsd  xmm0,QWORD PTR [rip+0x72e8]        # 0x14000e8c0
   1400075d7:	00 
   1400075d8:	66 0f 56 44 24 70    	orpd   xmm0,XMMWORD PTR [rsp+0x70]
   1400075de:	e9 bd 06 00 00       	jmp    0x140007ca0
   1400075e3:	66 66 66 66 66 0f 1f 	data16 data16 data16 data16 nop WORD PTR [rax+rax*1+0x0]
   1400075ea:	84 00 00 00 00 00 
   1400075f0:	4c 8b 1d b9 72 00 00 	mov    r11,QWORD PTR [rip+0x72b9]        # 0x14000e8b0
   1400075f7:	4c 0b 5c 24 70       	or     r11,QWORD PTR [rsp+0x70]
   1400075fc:	e9 6f 05 00 00       	jmp    0x140007b70
   140007601:	66 66 66 66 66 66 66 	data16 data16 data16 data16 data16 data16 nop WORD PTR [rax+rax*1+0x0]
   140007608:	0f 1f 84 00 00 00 00 
   14000760f:	00 
   140007610:	4c 8b 1d e9 50 00 00 	mov    r11,QWORD PTR [rip+0x50e9]        # 0x14000c700
   140007617:	4c 0b 5c 24 70       	or     r11,QWORD PTR [rsp+0x70]
   14000761c:	e9 4f 05 00 00       	jmp    0x140007b70
   140007621:	66 66 66 66 66 66 66 	data16 data16 data16 data16 data16 data16 nop WORD PTR [rax+rax*1+0x0]
   140007628:	0f 1f 84 00 00 00 00 
   14000762f:	00 
   140007630:	66 0f eb 15 48 51 00 	por    xmm2,XMMWORD PTR [rip+0x5148]        # 0x14000c780
   140007637:	00 
   140007638:	f2 0f 5c 15 40 51 00 	subsd  xmm2,QWORD PTR [rip+0x5140]        # 0x14000c780
   14000763f:	00 
   140007640:	f2 0f 10 ea          	movsd  xmm5,xmm2
   140007644:	66 0f db 15 d4 50 00 	pand   xmm2,XMMWORD PTR [rip+0x50d4]        # 0x14000c720
   14000764b:	00 
   14000764c:	66 49 0f 7e d0       	movq   r8,xmm2
   140007651:	66 0f 73 d5 34       	psrlq  xmm5,0x34
   140007656:	66 0f fa 2d c2 51 00 	psubd  xmm5,XMMWORD PTR [rip+0x51c2]        # 0x14000c820
   14000765d:	00 
   14000765e:	f3 0f e6 f5          	cvtdq2pd xmm6,xmm5
   140007662:	e9 ae fb ff ff       	jmp    0x140007215
   140007667:	66 0f 1f 84 00 00 00 	nop    WORD PTR [rax+rax*1+0x0]

=== HIT at line 7192 ===
   1400078c0:	e9 53 fc ff ff       	jmp    0x140007518
   1400078c5:	66 66 66 0f 1f 84 00 	data16 data16 nop WORD PTR [rax+rax*1+0x0]
   1400078cc:	00 00 00 00 
   1400078d0:	48 8b 15 41 4d 00 00 	mov    rdx,QWORD PTR [rip+0x4d41]        # 0x14000c618
   1400078d7:	48 0b 54 24 70       	or     rdx,QWORD PTR [rsp+0x70]
   1400078dc:	48 33 c0             	xor    rax,rax
   1400078df:	4d 8b d8             	mov    r11,r8
   1400078e2:	4c 8b 15 17 4d 00 00 	mov    r10,QWORD PTR [rip+0x4d17]        # 0x14000c600
   1400078e9:	4d 23 d0             	and    r10,r8
   1400078ec:	4c 3b 15 0d 4d 00 00 	cmp    r10,QWORD PTR [rip+0x4d0d]        # 0x14000c600
   1400078f3:	49 0f 44 c0          	cmove  rax,r8
   1400078f7:	4c 8b 15 32 4d 00 00 	mov    r10,QWORD PTR [rip+0x4d32]        # 0x14000c630
   1400078fe:	4c 23 d0             	and    r10,rax
   140007901:	0f 85 09 03 00 00    	jne    0x140007c10
   140007907:	66 48 0f 6e c2       	movq   xmm0,rdx
   14000790c:	e9 07 fc ff ff       	jmp    0x140007518
   140007911:	66 66 66 66 66 66 66 	data16 data16 data16 data16 data16 data16 nop WORD PTR [rax+rax*1+0x0]
   140007918:	0f 1f 84 00 00 00 00 
   14000791f:	00 
   140007920:	4c 8b 0d d9 4c 00 00 	mov    r9,QWORD PTR [rip+0x4cd9]        # 0x14000c600
   140007927:	4c 23 ca             	and    r9,rdx
   14000792a:	4c 3b 0d cf 4c 00 00 	cmp    r9,QWORD PTR [rip+0x4ccf]        # 0x14000c600
   140007931:	0f 84 29 01 00 00    	je     0x140007a60
   140007937:	48 3b 15 22 4d 00 00 	cmp    rdx,QWORD PTR [rip+0x4d22]        # 0x14000c660
   14000793e:	0f 84 7c 00 00 00    	je     0x1400079c0
   140007944:	f2 0f 10 44 24 40    	movsd  xmm0,QWORD PTR [rsp+0x40]
   14000794a:	f2 0f 10 4c 24 50    	movsd  xmm1,QWORD PTR [rsp+0x50]
   140007950:	f2 0f 10 15 e8 4c 00 	movsd  xmm2,QWORD PTR [rip+0x4ce8]        # 0x14000c640
   140007957:	00 
   140007958:	44 8b 0d 65 4c 00 00 	mov    r9d,DWORD PTR [rip+0x4c65]        # 0x14000c5c4
   14000795f:	e8 2c ee ff ff       	call   0x140006790
   140007964:	e9 af fb ff ff       	jmp    0x140007518
   140007969:	0f 1f 80 00 00 00 00 	nop    DWORD PTR [rax+0x0]
   140007970:	4c 8b 0d 89 4c 00 00 	mov    r9,QWORD PTR [rip+0x4c89]        # 0x14000c600
   140007977:	4c 23 ca             	and    r9,rdx
   14000797a:	4c 3b 0d 7f 4c 00 00 	cmp    r9,QWORD PTR [rip+0x4c7f]        # 0x14000c600
   140007981:	0f 84 d9 00 00 00    	je     0x140007a60
   140007987:	4c 8b 0d 9a 4c 00 00 	mov    r9,QWORD PTR [rip+0x4c9a]        # 0x14000c628
   14000798e:	4c 23 ca             	and    r9,rdx
   140007991:	74 2d                	je     0x1400079c0
   140007993:	48 3b 15 be 4c 00 00 	cmp    rdx,QWORD PTR [rip+0x4cbe]        # 0x14000c658
   14000799a:	0f 84 30 ff ff ff    	je     0x1400078d0
   1400079a0:	4c 8b ca             	mov    r9,rdx
   1400079a3:	4c 23 0d 7e 4c 00 00 	and    r9,QWORD PTR [rip+0x4c7e]        # 0x14000c628
   1400079aa:	4c 3b 0d 67 4c 00 00 	cmp    r9,QWORD PTR [rip+0x4c67]        # 0x14000c618
   1400079b1:	0f 8c 39 01 00 00    	jl     0x140007af0
   1400079b7:	e9 54 01 00 00       	jmp    0x140007b10
   1400079bc:	0f 1f 40 00          	nop    DWORD PTR [rax+0x0]
   1400079c0:	4c 8b 15 39 4c 00 00 	mov    r10,QWORD PTR [rip+0x4c39]        # 0x14000c600
   1400079c7:	48 33 c0             	xor    rax,rax
   1400079ca:	4d 23 d0             	and    r10,r8
   1400079cd:	4c 3b 15 2c 4c 00 00 	cmp    r10,QWORD PTR [rip+0x4c2c]        # 0x14000c600
   1400079d4:	74 5a                	je     0x140007a30
   1400079d6:	4c 8b 15 13 4c 00 00 	mov    r10,QWORD PTR [rip+0x4c13]        # 0x14000c5f0
   1400079dd:	4d 23 d0             	and    r10,r8
   1400079e0:	48 0f 45 05 28 4c 00 	cmovne rax,QWORD PTR [rip+0x4c28]        # 0x14000c610
   1400079e7:	00 
   1400079e8:	75 16                	jne    0x140007a00
   1400079ea:	66 48 0f 6e c0       	movq   xmm0,rax
   1400079ef:	66 0f 56 44 24 70    	orpd   xmm0,XMMWORD PTR [rsp+0x70]
   1400079f5:	e9 1e fb ff ff       	jmp    0x140007518
   1400079fa:	66 0f 1f 44 00 00    	nop    WORD PTR [rax+rax*1+0x0]
   140007a00:	f2 0f 10 44 24 40    	movsd  xmm0,QWORD PTR [rsp+0x40]
   140007a06:	f2 0f 10 4c 24 50    	movsd  xmm1,QWORD PTR [rsp+0x50]
   140007a0c:	66 48 0f 6e d0       	movq   xmm2,rax
   140007a11:	66 0f 56 54 24 70    	orpd   xmm2,XMMWORD PTR [rsp+0x70]
   140007a17:	44 8b 0d 96 4b 00 00 	mov    r9d,DWORD PTR [rip+0x4b96]        # 0x14000c5b4
   140007a1e:	e8 6d ed ff ff       	call   0x140006790
   140007a23:	e9 f0 fa ff ff       	jmp    0x140007518
   140007a28:	0f 1f 84 00 00 00 00 	nop    DWORD PTR [rax+rax*1+0x0]
   140007a2f:	00 
   140007a30:	4d 8b d8             	mov    r11,r8
   140007a33:	4c 3b 05 ce 4b 00 00 	cmp    r8,QWORD PTR [rip+0x4bce]        # 0x14000c608
   140007a3a:	48 0f 44 05 ce 4b 00 	cmove  rax,QWORD PTR [rip+0x4bce]        # 0x14000c610
   140007a41:	00 
   140007a42:	74 bc                	je     0x140007a00
   140007a44:	4c 8b 15 e5 4b 00 00 	mov    r10,QWORD PTR [rip+0x4be5]        # 0x14000c630
   140007a4b:	4d 23 d0             	and    r10,r8
   140007a4e:	0f 85 bc 01 00 00    	jne    0x140007c10
   140007a54:	66 48 0f 6e c0       	movq   xmm0,rax
   140007a59:	e9 ba fa ff ff       	jmp    0x140007518

=== HIT at line 7311 ===
   140007b07:	66 0f 1f 84 00 00 00 	nop    WORD PTR [rax+rax*1+0x0]
   140007b0e:	00 00 
   140007b10:	4d 33 db             	xor    r11,r11
   140007b13:	4c 8b 15 d6 4a 00 00 	mov    r10,QWORD PTR [rip+0x4ad6]        # 0x14000c5f0
   140007b1a:	4d 23 d0             	and    r10,r8
   140007b1d:	4c 0f 44 1d eb 4a 00 	cmove  r11,QWORD PTR [rip+0x4aeb]        # 0x14000c610
   140007b24:	00 
   140007b25:	66 66 66 0f 1f 84 00 	data16 data16 nop WORD PTR [rax+rax*1+0x0]
   140007b2c:	00 00 00 00 
   140007b30:	48 33 c0             	xor    rax,rax
   140007b33:	4d 8b c8             	mov    r9,r8
   140007b36:	4c 8b 15 c3 4a 00 00 	mov    r10,QWORD PTR [rip+0x4ac3]        # 0x14000c600
   140007b3d:	4d 23 d0             	and    r10,r8
   140007b40:	4c 3b 15 b9 4a 00 00 	cmp    r10,QWORD PTR [rip+0x4ab9]        # 0x14000c600
   140007b47:	49 0f 44 c0          	cmove  rax,r8
   140007b4b:	4c 8b 15 de 4a 00 00 	mov    r10,QWORD PTR [rip+0x4ade]        # 0x14000c630
   140007b52:	4c 23 d0             	and    r10,rax
   140007b55:	4d 0f 45 d9          	cmovne r11,r9
   140007b59:	0f 85 b1 00 00 00    	jne    0x140007c10
   140007b5f:	48 85 c0             	test   rax,rax
   140007b62:	75 4c                	jne    0x140007bb0
   140007b64:	66 66 66 66 0f 1f 84 	data16 data16 data16 nop WORD PTR [rax+rax*1+0x0]
   140007b6b:	00 00 00 00 00 
   140007b70:	44 8b 0d 51 4a 00 00 	mov    r9d,DWORD PTR [rip+0x4a51]        # 0x14000c5c8
   140007b77:	4c 85 1d aa 4a 00 00 	test   QWORD PTR [rip+0x4aaa],r11        # 0x14000c628
   140007b7e:	44 0f 45 0d 4a 4a 00 	cmovne r9d,DWORD PTR [rip+0x4a4a]        # 0x14000c5d0
   140007b85:	00 
   140007b86:	f2 0f 10 44 24 40    	movsd  xmm0,QWORD PTR [rsp+0x40]
   140007b8c:	f2 0f 10 4c 24 50    	movsd  xmm1,QWORD PTR [rsp+0x50]
   140007b92:	66 49 0f 6e d3       	movq   xmm2,r11
   140007b97:	e8 f4 eb ff ff       	call   0x140006790
   140007b9c:	e9 77 f9 ff ff       	jmp    0x140007518
   140007ba1:	66 66 66 66 66 66 66 	data16 data16 data16 data16 data16 data16 nop WORD PTR [rax+rax*1+0x0]
   140007ba8:	0f 1f 84 00 00 00 00 
   140007baf:	00 
   140007bb0:	66 49 0f 6e c3       	movq   xmm0,r11
   140007bb5:	e9 5e f9 ff ff       	jmp    0x140007518
   140007bba:	66 0f 1f 44 00 00    	nop    WORD PTR [rax+rax*1+0x0]
   140007bc0:	48 33 c0             	xor    rax,rax
   140007bc3:	4c 8b 15 36 4a 00 00 	mov    r10,QWORD PTR [rip+0x4a36]        # 0x14000c600
   140007bca:	4d 23 d0             	and    r10,r8
   140007bcd:	4c 3b 15 2c 4a 00 00 	cmp    r10,QWORD PTR [rip+0x4a2c]        # 0x14000c600
   140007bd4:	49 0f 44 c0          	cmove  rax,r8
   140007bd8:	4c 8b 15 51 4a 00 00 	mov    r10,QWORD PTR [rip+0x4a51]        # 0x14000c630
   140007bdf:	4c 23 d0             	and    r10,rax
   140007be2:	75 5c                	jne    0x140007c40
   140007be4:	f2 0f 10 44 24 40    	movsd  xmm0,QWORD PTR [rsp+0x40]
   140007bea:	f2 0f 10 4c 24 50    	movsd  xmm1,QWORD PTR [rsp+0x50]
   140007bf0:	66 49 0f 6e d3       	movq   xmm2,r11
   140007bf5:	44 8b 0d bc 49 00 00 	mov    r9d,DWORD PTR [rip+0x49bc]        # 0x14000c5b8
   140007bfc:	e8 8f eb ff ff       	call   0x140006790
   140007c01:	e9 12 f9 ff ff       	jmp    0x140007518
   140007c06:	66 66 0f 1f 84 00 00 	data16 nop WORD PTR [rax+rax*1+0x0]
   140007c0d:	00 00 00 
   140007c10:	f2 0f 10 44 24 40    	movsd  xmm0,QWORD PTR [rsp+0x40]
   140007c16:	f2 0f 10 4c 24 50    	movsd  xmm1,QWORD PTR [rsp+0x50]
   140007c1c:	66 49 0f 6e d3       	movq   xmm2,r11
   140007c21:	44 8b 0d 94 49 00 00 	mov    r9d,DWORD PTR [rip+0x4994]        # 0x14000c5bc
   140007c28:	e8 63 eb ff ff       	call   0x140006790
   140007c2d:	e9 e6 f8 ff ff       	jmp    0x140007518
   140007c32:	66 66 66 66 66 66 0f 	data16 data16 data16 data16 data16 nop WORD PTR [rax+rax*1+0x0]
   140007c39:	1f 84 00 00 00 00 00 
   140007c40:	4d 8b c8             	mov    r9,r8
   140007c43:	4c 3b 1d ee 49 00 00 	cmp    r11,QWORD PTR [rip+0x49ee]        # 0x14000c638
   140007c4a:	4d 0f 44 d9          	cmove  r11,r9
   140007c4e:	74 27                	je     0x140007c77
   140007c50:	4c 3b 0d e1 49 00 00 	cmp    r9,QWORD PTR [rip+0x49e1]        # 0x14000c638
   140007c57:	4d 0f 44 cb          	cmove  r9,r11
   140007c5b:	4d 8b d1             	mov    r10,r9
   140007c5e:	4c 23 15 8b 49 00 00 	and    r10,QWORD PTR [rip+0x498b]        # 0x14000c5f0
   140007c65:	4d 0f 45 cb          	cmovne r9,r11
   140007c69:	4d 8b d3             	mov    r10,r11
   140007c6c:	4c 23 15 7d 49 00 00 	and    r10,QWORD PTR [rip+0x497d]        # 0x14000c5f0
   140007c73:	4d 0f 45 d9          	cmovne r11,r9
   140007c77:	f2 0f 10 44 24 40    	movsd  xmm0,QWORD PTR [rsp+0x40]
   140007c7d:	f2 0f 10 4c 24 50    	movsd  xmm1,QWORD PTR [rsp+0x50]
   140007c83:	66 49 0f 6e d3       	movq   xmm2,r11
   140007c88:	44 8b 0d 31 49 00 00 	mov    r9d,DWORD PTR [rip+0x4931]        # 0x14000c5c0
   140007c8f:	e8 fc ea ff ff       	call   0x140006790
   140007c94:	e9 7f f8 ff ff       	jmp    0x140007518
   140007c99:	0f 1f 80 00 00 00 00 	nop    DWORD PTR [rax+0x0]

=== HIT at line 7469 ===
   140007d24:	cc                   	int3
   140007d25:	cc                   	int3
   140007d26:	cc                   	int3
   140007d27:	cc                   	int3
   140007d28:	cc                   	int3
   140007d29:	cc                   	int3
   140007d2a:	cc                   	int3
   140007d2b:	cc                   	int3
   140007d2c:	cc                   	int3
   140007d2d:	cc                   	int3
   140007d2e:	cc                   	int3
   140007d2f:	cc                   	int3
   140007d30:	cc                   	int3
   140007d31:	cc                   	int3
   140007d32:	cc                   	int3
   140007d33:	cc                   	int3
   140007d34:	cc                   	int3
   140007d35:	cc                   	int3
   140007d36:	cc                   	int3
   140007d37:	cc                   	int3
   140007d38:	cc                   	int3
   140007d39:	cc                   	int3
   140007d3a:	cc                   	int3
   140007d3b:	cc                   	int3
   140007d3c:	cc                   	int3
   140007d3d:	cc                   	int3
   140007d3e:	cc                   	int3
   140007d3f:	cc                   	int3
   140007d40:	48 8b c1             	mov    rax,rcx
   140007d43:	49 83 f8 08          	cmp    r8,0x8
   140007d47:	72 47                	jb     0x140007d90
   140007d49:	0f b6 d2             	movzx  edx,dl
   140007d4c:	49 b9 01 01 01 01 01 	movabs r9,0x101010101010101
   140007d53:	01 01 01 
   140007d56:	49 0f af d1          	imul   rdx,r9
   140007d5a:	49 83 f8 4f          	cmp    r8,0x4f
   140007d5e:	73 50                	jae    0x140007db0
   140007d60:	4d 8b c8             	mov    r9,r8
   140007d63:	49 83 e1 f8          	and    r9,0xfffffffffffffff8
   140007d67:	49 03 c9             	add    rcx,r9
   140007d6a:	66 0f 1f 44 00 00    	nop    WORD PTR [rax+rax*1+0x0]
   140007d70:	4a 89 54 08 f8       	mov    QWORD PTR [rax+r9*1-0x8],rdx
   140007d75:	49 83 e9 08          	sub    r9,0x8
   140007d79:	75 f5                	jne    0x140007d70
   140007d7b:	49 83 e0 07          	and    r8,0x7
   140007d7f:	74 05                	je     0x140007d86
   140007d81:	4a 89 54 01 f8       	mov    QWORD PTR [rcx+r8*1-0x8],rdx
   140007d86:	c3                   	ret
   140007d87:	66 0f 1f 84 00 00 00 	nop    WORD PTR [rax+rax*1+0x0]
   140007d8e:	00 00 
   140007d90:	49 83 e0 07          	and    r8,0x7
   140007d94:	74 0a                	je     0x140007da0
   140007d96:	42 88 54 00 ff       	mov    BYTE PTR [rax+r8*1-0x1],dl
   140007d9b:	49 ff c8             	dec    r8
   140007d9e:	75 f6                	jne    0x140007d96
   140007da0:	c3                   	ret
   140007da1:	66 66 66 66 66 66 66 	data16 data16 data16 data16 data16 data16 nop WORD PTR [rax+rax*1+0x0]
   140007da8:	0f 1f 84 00 00 00 00 
   140007daf:	00 
   140007db0:	66 48 0f 6e c2       	movq   xmm0,rdx
   140007db5:	0f 16 c0             	movlhps xmm0,xmm0
   140007db8:	0f 11 01             	movups XMMWORD PTR [rcx],xmm0
   140007dbb:	4c 03 c1             	add    r8,rcx
   140007dbe:	48 83 c1 10          	add    rcx,0x10
   140007dc2:	48 83 e1 f0          	and    rcx,0xfffffffffffffff0
   140007dc6:	4c 2b c1             	sub    r8,rcx
   140007dc9:	4d 8b c8             	mov    r9,r8
   140007dcc:	49 c1 e9 07          	shr    r9,0x7
   140007dd0:	74 2f                	je     0x140007e01
   140007dd2:	0f 29 01             	movaps XMMWORD PTR [rcx],xmm0
   140007dd5:	0f 29 41 10          	movaps XMMWORD PTR [rcx+0x10],xmm0
   140007dd9:	48 81 c1 80 00 00 00 	add    rcx,0x80
   140007de0:	0f 29 41 a0          	movaps XMMWORD PTR [rcx-0x60],xmm0
   140007de4:	0f 29 41 b0          	movaps XMMWORD PTR [rcx-0x50],xmm0
   140007de8:	49 ff c9             	dec    r9
   140007deb:	0f 29 41 c0          	movaps XMMWORD PTR [rcx-0x40],xmm0
   140007def:	0f 29 41 d0          	movaps XMMWORD PTR [rcx-0x30],xmm0
   140007df3:	0f 29 41 e0          	movaps XMMWORD PTR [rcx-0x20],xmm0
   140007df7:	0f 29 41 f0          	movaps XMMWORD PTR [rcx-0x10],xmm0
   140007dfb:	75 d5                	jne    0x140007dd2
   140007dfd:	49 83 e0 7f          	and    r8,0x7f

=== HIT at line 7820 ===
   140008126:	f3 0f 6f 4c 11 e0    	movdqu xmm1,XMMWORD PTR [rcx+rdx*1-0x20]
   14000812c:	66 0f e7 41 f0       	movntdq XMMWORD PTR [rcx-0x10],xmm0
   140008131:	66 0f e7 49 e0       	movntdq XMMWORD PTR [rcx-0x20],xmm1
   140008136:	48 83 e9 40          	sub    rcx,0x40
   14000813a:	f3 0f 6f 44 11 10    	movdqu xmm0,XMMWORD PTR [rcx+rdx*1+0x10]
   140008140:	f3 0f 6f 0c 11       	movdqu xmm1,XMMWORD PTR [rcx+rdx*1]
   140008145:	66 0f e7 41 10       	movntdq XMMWORD PTR [rcx+0x10],xmm0
   14000814a:	66 0f e7 09          	movntdq XMMWORD PTR [rcx],xmm1
   14000814e:	ff c8                	dec    eax
   140008150:	75 ce                	jne    0x140008120
   140008152:	49 81 e8 00 02 00 00 	sub    r8,0x200
   140008159:	49 81 f8 00 02 00 00 	cmp    r8,0x200
   140008160:	73 99                	jae    0x1400080fb
   140008162:	f0 80 0c 24 00       	lock or BYTE PTR [rsp],0x0
   140008167:	4d 8b c8             	mov    r9,r8
   14000816a:	49 c1 e9 05          	shr    r9,0x5
   14000816e:	0f 85 08 ff ff ff    	jne    0x14000807c
   140008174:	e9 7e fe ff ff       	jmp    0x140007ff7
   140008179:	cc                   	int3
   14000817a:	cc                   	int3
   14000817b:	cc                   	int3
   14000817c:	cc                   	int3
   14000817d:	cc                   	int3
   14000817e:	cc                   	int3
   14000817f:	cc                   	int3
   140008180:	52                   	push   rdx
   140008181:	00 74 00 6c          	add    BYTE PTR [rax+rax*1+0x6c],dh
   140008185:	00 51 00             	add    BYTE PTR [rcx+0x0],dl
   140008188:	75 00                	jne    0x14000818a
   14000818a:	65 00 72 00          	add    BYTE PTR gs:[rdx+0x0],dh
   14000818e:	79 00                	jns    0x140008190
   140008190:	52                   	push   rdx
   140008191:	00 65 00             	add    BYTE PTR [rbp+0x0],ah
   140008194:	67 00 69 00          	add    BYTE PTR [ecx+0x0],ch
   140008198:	73 00                	jae    0x14000819a
   14000819a:	74 00                	je     0x14000819c
   14000819c:	72 00                	jb     0x14000819e
   14000819e:	79 00                	jns    0x1400081a0
   1400081a0:	56                   	push   rsi
   1400081a1:	00 61 00             	add    BYTE PTR [rcx+0x0],ah
   1400081a4:	6c                   	ins    BYTE PTR es:[rdi],dx
   1400081a5:	00 75 00             	add    BYTE PTR [rbp+0x0],dh
   1400081a8:	65 00 73 00          	add    BYTE PTR gs:[rbx+0x0],dh
   1400081ac:	45 00 78 00          	add    BYTE PTR [r8+0x0],r15b
   1400081b0:	00 00                	add    BYTE PTR [rax],al
   1400081b2:	cc                   	int3
   1400081b3:	cc                   	int3
   1400081b4:	cc                   	int3
   1400081b5:	cc                   	int3
   1400081b6:	cc                   	int3
   1400081b7:	cc                   	int3
   1400081b8:	cc                   	int3
   1400081b9:	cc                   	int3
   1400081ba:	cc                   	int3
   1400081bb:	cc                   	int3
   1400081bc:	cc                   	int3
   1400081bd:	cc                   	int3
   1400081be:	cc                   	int3
   1400081bf:	cc                   	int3
   1400081c0:	5c                   	pop    rsp
   1400081c1:	00 44 00 65          	add    BYTE PTR [rax+rax*1+0x65],al
   1400081c5:	00 76 00             	add    BYTE PTR [rsi+0x0],dh
   1400081c8:	69 00 63 00 65 00    	imul   eax,DWORD PTR [rax],0x650063
   1400081ce:	5c                   	pop    rsp
   1400081cf:	00 41 00             	add    BYTE PTR [rcx+0x0],al
   1400081d2:	70 00                	jo     0x1400081d4
   1400081d4:	70 00                	jo     0x1400081d6
   1400081d6:	6c                   	ins    BYTE PTR es:[rdi],dx
   1400081d7:	00 65 00             	add    BYTE PTR [rbp+0x0],ah
   1400081da:	42 00 6c 00 75       	add    BYTE PTR [rax+r8*1+0x75],bpl
   1400081df:	00 65 00             	add    BYTE PTR [rbp+0x0],ah
   1400081e2:	74 00                	je     0x1400081e4
   1400081e4:	6f                   	outs   dx,DWORD PTR ds:[rsi]
   1400081e5:	00 6f 00             	add    BYTE PTR [rdi+0x0],ch
   1400081e8:	74 00                	je     0x1400081ea
   1400081ea:	68 00 4d 00 75       	push   0x75004d00
   1400081ef:	00 6c 00 74          	add    BYTE PTR [rax+rax*1+0x74],ch
   1400081f3:	00 69 00             	add    BYTE PTR [rcx+0x0],ch
   1400081f6:	74 00                	je     0x1400081f8
   1400081f8:	6f                   	outs   dx,DWORD PTR ds:[rsi]
   1400081f9:	00 75 00             	add    BYTE PTR [rbp+0x0],dh

=== HIT at line 8153 ===
   140008415:	00 31                	add    BYTE PTR [rcx],dh
   140008417:	00 30                	add    BYTE PTR [rax],dh
   140008419:	00 00                	add    BYTE PTR [rax],al
   14000841b:	00 40 55             	add    BYTE PTR [rax+0x55],al
   14000841e:	48 83 ec 20          	sub    rsp,0x20
   140008422:	48 8b ea             	mov    rbp,rdx
   140008425:	48 8b 01             	mov    rax,QWORD PTR [rcx]
   140008428:	8b 08                	mov    ecx,DWORD PTR [rax]
   14000842a:	81 f9 05 00 00 c0    	cmp    ecx,0xc0000005
   140008430:	74 0c                	je     0x14000843e
   140008432:	81 f9 1d 00 00 c0    	cmp    ecx,0xc000001d
   140008438:	74 04                	je     0x14000843e
   14000843a:	33 c0                	xor    eax,eax
   14000843c:	eb 05                	jmp    0x140008443
   14000843e:	b8 01 00 00 00       	mov    eax,0x1
   140008443:	48 83 c4 20          	add    rsp,0x20
   140008447:	5d                   	pop    rbp
   140008448:	c3                   	ret
   140008449:	cc                   	int3

Disassembly of section NONPAGE:

0000000140009000 <NONPAGE>:
   140009000:	48 89 5c 24 08       	mov    QWORD PTR [rsp+0x8],rbx
   140009005:	48 89 54 24 10       	mov    QWORD PTR [rsp+0x10],rdx
   14000900a:	55                   	push   rbp
   14000900b:	56                   	push   rsi
   14000900c:	57                   	push   rdi
   14000900d:	41 56                	push   r14
   14000900f:	41 57                	push   r15
   140009011:	48 8d ac 24 70 ff ff 	lea    rbp,[rsp-0x90]
   140009018:	ff 
   140009019:	48 81 ec 90 01 00 00 	sub    rsp,0x190
   140009020:	48 8b ca             	mov    rcx,rdx
   140009023:	e8 1c 8d ff ff       	call   0x140001d44
   140009028:	48 8b 0d b9 5f 00 00 	mov    rcx,QWORD PTR [rip+0x5fb9]        # 0x14000efe8
   14000902f:	40 8a f0             	mov    sil,al
   140009032:	48 8b 95 c8 00 00 00 	mov    rdx,QWORD PTR [rbp+0xc8]
   140009039:	48 8b 81 08 04 00 00 	mov    rax,QWORD PTR [rcx+0x408]
   140009040:	48 8b 0d a9 5f 00 00 	mov    rcx,QWORD PTR [rip+0x5fa9]        # 0x14000eff0
   140009047:	ff 15 f3 20 00 00    	call   QWORD PTR [rip+0x20f3]        # 0x14000b140
   14000904d:	bb 90 00 00 00       	mov    ebx,0x90
   140009052:	48 8d 4d 00          	lea    rcx,[rbp+0x0]
   140009056:	44 8b c3             	mov    r8d,ebx
   140009059:	33 d2                	xor    edx,edx
   14000905b:	e8 e0 ec ff ff       	call   0x140007d40
   140009060:	48 8b 95 c8 00 00 00 	mov    rdx,QWORD PTR [rbp+0xc8]
   140009067:	48 8d 05 d2 86 ff ff 	lea    rax,[rip+0xffffffffffff86d2]        # 0x140001740
   14000906e:	48 8b 0d 7b 5f 00 00 	mov    rcx,QWORD PTR [rip+0x5f7b]        # 0x14000eff0
   140009075:	4c 8d 45 00          	lea    r8,[rbp+0x0]
   140009079:	48 89 45 28          	mov    QWORD PTR [rbp+0x28],rax
   14000907d:	48 8d 05 0c 87 ff ff 	lea    rax,[rip+0xffffffffffff870c]        # 0x140001790
   140009084:	48 89 45 30          	mov    QWORD PTR [rbp+0x30],rax
   140009088:	48 8d 05 21 86 ff ff 	lea    rax,[rip+0xffffffffffff8621]        # 0x1400016b0
   14000908f:	48 89 45 08          	mov    QWORD PTR [rbp+0x8],rax
   140009093:	48 8d 05 76 86 ff ff 	lea    rax,[rip+0xffffffffffff8676]        # 0x140001710
   14000909a:	48 89 45 18          	mov    QWORD PTR [rbp+0x18],rax
   14000909e:	48 8d 05 db 86 ff ff 	lea    rax,[rip+0xffffffffffff86db]        # 0x140001780
   1400090a5:	48 89 45 68          	mov    QWORD PTR [rbp+0x68],rax
   1400090a9:	48 8b 05 38 5f 00 00 	mov    rax,QWORD PTR [rip+0x5f38]        # 0x14000efe8
   1400090b0:	89 5d 00             	mov    DWORD PTR [rbp+0x0],ebx
   1400090b3:	48 8b 80 b8 01 00 00 	mov    rax,QWORD PTR [rax+0x1b8]
   1400090ba:	ff 15 80 20 00 00    	call   QWORD PTR [rip+0x2080]        # 0x14000b140
   1400090c0:	48 8b 05 51 2f 00 00 	mov    rax,QWORD PTR [rip+0x2f51]        # 0x14000c018
   1400090c7:	4c 8d 8d d0 00 00 00 	lea    r9,[rbp+0xd0]
   1400090ce:	48 8b 0d 1b 5f 00 00 	mov    rcx,QWORD PTR [rip+0x5f1b]        # 0x14000eff0
   1400090d5:	4c 8d 44 24 68       	lea    r8,[rsp+0x68]
   1400090da:	48 89 45 98          	mov    QWORD PTR [rbp-0x68],rax
   1400090de:	48 8d 95 c8 00 00 00 	lea    rdx,[rbp+0xc8]
   1400090e5:	33 db                	xor    ebx,ebx
   1400090e7:	48 c7 44 24 68 38 00 	mov    QWORD PTR [rsp+0x68],0x38
   1400090ee:	00 00 
   1400090f0:	48 8d 05 29 03 00 00 	lea    rax,[rip+0x329]        # 0x140009420
   1400090f7:	48 89 5c 24 78       	mov    QWORD PTR [rsp+0x78],rbx
   1400090fc:	48 89 44 24 70       	mov    QWORD PTR [rsp+0x70],rax
   140009101:	0f 57 c0             	xorps  xmm0,xmm0
   140009104:	48 8b 05 dd 5e 00 00 	mov    rax,QWORD PTR [rip+0x5edd]        # 0x14000efe8
   14000910b:	44 8d 73 01          	lea    r14d,[rbx+0x1]
   14000910f:	f3 0f 7f 45 88       	movdqu XMMWORD PTR [rbp-0x78],xmm0
   140009114:	44 89 75 80          	mov    DWORD PTR [rbp-0x80],r14d
   140009118:	44 8d 7b 38          	lea    r15d,[rbx+0x38]

=== HIT at line 8360 ===
   140009385:	44 89 74 24 48       	mov    DWORD PTR [rsp+0x48],r14d
   14000938a:	44 89 74 24 4c       	mov    DWORD PTR [rsp+0x4c],r14d
   14000938f:	48 8b 80 d8 09 00 00 	mov    rax,QWORD PTR [rax+0x9d8]
   140009396:	ff 15 a4 1d 00 00    	call   QWORD PTR [rip+0x1da4]        # 0x14000b140
   14000939c:	85 c0                	test   eax,eax
   14000939e:	78 65                	js     0x140009405
   1400093a0:	4d 8b c7             	mov    r8,r15
   1400093a3:	48 8d 4c 24 30       	lea    rcx,[rsp+0x30]
   1400093a8:	33 d2                	xor    edx,edx
   1400093aa:	e8 91 e9 ff ff       	call   0x140007d40
   1400093af:	48 8b 85 d0 00 00 00 	mov    rax,QWORD PTR [rbp+0xd0]
   1400093b6:	4c 8d 47 10          	lea    r8,[rdi+0x10]
   1400093ba:	48 8b 0d 2f 5c 00 00 	mov    rcx,QWORD PTR [rip+0x5c2f]        # 0x14000eff0
   1400093c1:	48 8d 54 24 30       	lea    rdx,[rsp+0x30]
   1400093c6:	48 89 44 24 50       	mov    QWORD PTR [rsp+0x50],rax
   1400093cb:	48 8b 05 16 5c 00 00 	mov    rax,QWORD PTR [rip+0x5c16]        # 0x14000efe8
   1400093d2:	44 89 7c 24 30       	mov    DWORD PTR [rsp+0x30],r15d
   1400093d7:	44 89 74 24 48       	mov    DWORD PTR [rsp+0x48],r14d
   1400093dc:	44 89 74 24 4c       	mov    DWORD PTR [rsp+0x4c],r14d
   1400093e1:	48 8b 80 d8 09 00 00 	mov    rax,QWORD PTR [rax+0x9d8]
   1400093e8:	ff 15 52 1d 00 00    	call   QWORD PTR [rip+0x1d52]        # 0x14000b140
   1400093ee:	85 c0                	test   eax,eax
   1400093f0:	78 13                	js     0x140009405
   1400093f2:	48 8b 8d d0 00 00 00 	mov    rcx,QWORD PTR [rbp+0xd0]
   1400093f9:	e8 da 7e ff ff       	call   0x1400012d8
   1400093fe:	85 c0                	test   eax,eax
   140009400:	0f 48 d8             	cmovs  ebx,eax
   140009403:	8b c3                	mov    eax,ebx
   140009405:	48 8b 9c 24 c0 01 00 	mov    rbx,QWORD PTR [rsp+0x1c0]
   14000940c:	00 
   14000940d:	48 81 c4 90 01 00 00 	add    rsp,0x190
   140009414:	41 5f                	pop    r15
   140009416:	41 5e                	pop    r14
   140009418:	5f                   	pop    rdi
   140009419:	5e                   	pop    rsi
   14000941a:	5d                   	pop    rbp
   14000941b:	c3                   	ret
   14000941c:	cc                   	int3
   14000941d:	cc                   	int3
   14000941e:	cc                   	int3
   14000941f:	cc                   	int3
   140009420:	48 89 5c 24 08       	mov    QWORD PTR [rsp+0x8],rbx
   140009425:	57                   	push   rdi
   140009426:	48 83 ec 20          	sub    rsp,0x20
   14000942a:	48 8b 05 b7 5b 00 00 	mov    rax,QWORD PTR [rip+0x5bb7]        # 0x14000efe8
   140009431:	48 8b d9             	mov    rbx,rcx
   140009434:	4c 8b 05 dd 2b 00 00 	mov    r8,QWORD PTR [rip+0x2bdd]        # 0x14000c018
   14000943b:	48 8b d1             	mov    rdx,rcx
   14000943e:	48 8b 0d ab 5b 00 00 	mov    rcx,QWORD PTR [rip+0x5bab]        # 0x14000eff0
   140009445:	48 8b 80 50 06 00 00 	mov    rax,QWORD PTR [rax+0x650]
   14000944c:	ff 15 ee 1c 00 00    	call   QWORD PTR [rip+0x1cee]        # 0x14000b140
   140009452:	48 8b 15 8f 5b 00 00 	mov    rdx,QWORD PTR [rip+0x5b8f]        # 0x14000efe8
   140009459:	48 8b f8             	mov    rdi,rax
   14000945c:	48 8b 0d 8d 5b 00 00 	mov    rcx,QWORD PTR [rip+0x5b8d]        # 0x14000eff0
   140009463:	48 8b 82 e0 09 00 00 	mov    rax,QWORD PTR [rdx+0x9e0]
   14000946a:	48 8b 15 97 5b 00 00 	mov    rdx,QWORD PTR [rip+0x5b97]        # 0x14000f008
   140009471:	ff 15 c9 1c 00 00    	call   QWORD PTR [rip+0x1cc9]        # 0x14000b140
   140009477:	48 8b 0d 6a 5b 00 00 	mov    rcx,QWORD PTR [rip+0x5b6a]        # 0x14000efe8
   14000947e:	48 8b 15 93 5b 00 00 	mov    rdx,QWORD PTR [rip+0x5b93]        # 0x14000f018
   140009485:	48 8b 41 70          	mov    rax,QWORD PTR [rcx+0x70]
   140009489:	48 8b 0d 60 5b 00 00 	mov    rcx,QWORD PTR [rip+0x5b60]        # 0x14000eff0
   140009490:	ff 15 aa 1c 00 00    	call   QWORD PTR [rip+0x1caa]        # 0x14000b140
   140009496:	85 c0                	test   eax,eax
   140009498:	74 25                	je     0x1400094bf
   14000949a:	48 8b 05 47 5b 00 00 	mov    rax,QWORD PTR [rip+0x5b47]        # 0x14000efe8
   1400094a1:	4c 8b c3             	mov    r8,rbx
   1400094a4:	48 8b 15 6d 5b 00 00 	mov    rdx,QWORD PTR [rip+0x5b6d]        # 0x14000f018
   1400094ab:	48 8b 0d 3e 5b 00 00 	mov    rcx,QWORD PTR [rip+0x5b3e]        # 0x14000eff0
   1400094b2:	48 8b 80 80 00 00 00 	mov    rax,QWORD PTR [rax+0x80]
   1400094b9:	ff 15 81 1c 00 00    	call   QWORD PTR [rip+0x1c81]        # 0x14000b140
   1400094bf:	48 8b 05 22 5b 00 00 	mov    rax,QWORD PTR [rip+0x5b22]        # 0x14000efe8
   1400094c6:	48 8b 15 3b 5b 00 00 	mov    rdx,QWORD PTR [rip+0x5b3b]        # 0x14000f008
   1400094cd:	48 8b 0d 1c 5b 00 00 	mov    rcx,QWORD PTR [rip+0x5b1c]        # 0x14000eff0
   1400094d4:	48 8b 80 e8 09 00 00 	mov    rax,QWORD PTR [rax+0x9e8]
   1400094db:	ff 15 5f 1c 00 00    	call   QWORD PTR [rip+0x1c5f]        # 0x14000b140
   1400094e1:	48 8b cf             	mov    rcx,rdi
   1400094e4:	e8 27 8a ff ff       	call   0x140001f10
   1400094e9:	48 8b cb             	mov    rcx,rbx
   1400094ec:	48 8b 5c 24 30       	mov    rbx,QWORD PTR [rsp+0x30]
   1400094f1:	48 83 c4 20          	add    rsp,0x20
   1400094f5:	5f                   	pop    rdi

=== HIT at line 8456 ===
   14000951f:	48 89 44 24 48       	mov    QWORD PTR [rsp+0x48],rax
   140009524:	48 8b 05 bd 5a 00 00 	mov    rax,QWORD PTR [rip+0x5abd]        # 0x14000efe8
   14000952b:	48 8b da             	mov    rbx,rdx
   14000952e:	48 8b d1             	mov    rdx,rcx
   140009531:	48 8b 0d b8 5a 00 00 	mov    rcx,QWORD PTR [rip+0x5ab8]        # 0x14000eff0
   140009538:	48 8b 80 e8 04 00 00 	mov    rax,QWORD PTR [rax+0x4e8]
   14000953f:	ff 15 fb 1b 00 00    	call   QWORD PTR [rip+0x1bfb]        # 0x14000b140
   140009545:	48 8b e8             	mov    rbp,rax
   140009548:	48 85 c0             	test   rax,rax
   14000954b:	0f 84 67 02 00 00    	je     0x1400097b8
   140009551:	48 8b 0d 90 5a 00 00 	mov    rcx,QWORD PTR [rip+0x5a90]        # 0x14000efe8
   140009558:	45 33 c0             	xor    r8d,r8d
   14000955b:	48 8b 15 b6 5a 00 00 	mov    rdx,QWORD PTR [rip+0x5ab6]        # 0x14000f018
   140009562:	48 8b 81 90 00 00 00 	mov    rax,QWORD PTR [rcx+0x90]
   140009569:	48 8b 0d 80 5a 00 00 	mov    rcx,QWORD PTR [rip+0x5a80]        # 0x14000eff0
   140009570:	ff 15 ca 1b 00 00    	call   QWORD PTR [rip+0x1bca]        # 0x14000b140
   140009576:	48 8b d0             	mov    rdx,rax
   140009579:	48 85 c0             	test   rax,rax
   14000957c:	0f 84 36 02 00 00    	je     0x1400097b8
   140009582:	48 8b 0d 5f 5a 00 00 	mov    rcx,QWORD PTR [rip+0x5a5f]        # 0x14000efe8
   140009589:	4c 8b 05 88 2a 00 00 	mov    r8,QWORD PTR [rip+0x2a88]        # 0x14000c018
   140009590:	48 8b 81 50 06 00 00 	mov    rax,QWORD PTR [rcx+0x650]
   140009597:	48 8b 0d 52 5a 00 00 	mov    rcx,QWORD PTR [rip+0x5a52]        # 0x14000eff0
   14000959e:	ff 15 9c 1b 00 00    	call   QWORD PTR [rip+0x1b9c]        # 0x14000b140
   1400095a4:	48 8b 0d 3d 5a 00 00 	mov    rcx,QWORD PTR [rip+0x5a3d]        # 0x14000efe8
   1400095ab:	48 8b d3             	mov    rdx,rbx
   1400095ae:	48 8b f8             	mov    rdi,rax
   1400095b1:	48 8b 81 e8 08 00 00 	mov    rax,QWORD PTR [rcx+0x8e8]
   1400095b8:	48 8b 0d 31 5a 00 00 	mov    rcx,QWORD PTR [rip+0x5a31]        # 0x14000eff0
   1400095bf:	ff 15 7b 1b 00 00    	call   QWORD PTR [rip+0x1b7b]        # 0x14000b140
   1400095c5:	8b b4 24 90 00 00 00 	mov    esi,DWORD PTR [rsp+0x90]
   1400095cc:	81 fe 00 20 0f 00    	cmp    esi,0xf2000
   1400095d2:	0f 85 92 00 00 00    	jne    0x14000966a
   1400095d8:	48 8b 0d 09 5a 00 00 	mov    rcx,QWORD PTR [rip+0x5a09]        # 0x14000efe8
   1400095df:	4c 8d 4c 24 30       	lea    r9,[rsp+0x30]
   1400095e4:	48 83 64 24 20 00    	and    QWORD PTR [rsp+0x20],0x0
   1400095ea:	41 b8 04 00 00 00    	mov    r8d,0x4
   1400095f0:	48 8b d3             	mov    rdx,rbx
   1400095f3:	48 8b 81 68 08 00 00 	mov    rax,QWORD PTR [rcx+0x868]
   1400095fa:	48 8b 0d ef 59 00 00 	mov    rcx,QWORD PTR [rip+0x59ef]        # 0x14000eff0
   140009601:	ff 15 39 1b 00 00    	call   QWORD PTR [rip+0x1b39]        # 0x14000b140
   140009607:	8b f0                	mov    esi,eax
   140009609:	85 c0                	test   eax,eax
   14000960b:	78 34                	js     0x140009641
   14000960d:	48 8b 4c 24 30       	mov    rcx,QWORD PTR [rsp+0x30]
   140009612:	83 39 01             	cmp    DWORD PTR [rcx],0x1
   140009615:	75 21                	jne    0x140009638
   140009617:	e8 b8 81 ff ff       	call   0x1400017d4
   14000961c:	fe c0                	inc    al
   14000961e:	88 87 0a 18 00 00    	mov    BYTE PTR [rdi+0x180a],al
   140009624:	e8 a3 84 ff ff       	call   0x140001acc
   140009629:	88 87 11 18 00 00    	mov    BYTE PTR [rdi+0x1811],al
   14000962f:	c6 87 0b 18 00 00 37 	mov    BYTE PTR [rdi+0x180b],0x37
   140009636:	eb 09                	jmp    0x140009641
   140009638:	66 c7 87 0a 18 00 00 	mov    WORD PTR [rdi+0x180a],0x3201
   14000963f:	01 32 
   140009641:	48 8b 05 a0 59 00 00 	mov    rax,QWORD PTR [rip+0x59a0]        # 0x14000efe8
   140009648:	45 33 c9             	xor    r9d,r9d
   14000964b:	48 8b 0d 9e 59 00 00 	mov    rcx,QWORD PTR [rip+0x599e]        # 0x14000eff0
   140009652:	44 8b c6             	mov    r8d,esi
   140009655:	48 8b d3             	mov    rdx,rbx
   140009658:	48 8b 80 48 08 00 00 	mov    rax,QWORD PTR [rax+0x848]
   14000965f:	ff 15 db 1a 00 00    	call   QWORD PTR [rip+0x1adb]        # 0x14000b140
   140009665:	e9 4e 01 00 00       	jmp    0x1400097b8
   14000966a:	48 8b 05 77 59 00 00 	mov    rax,QWORD PTR [rip+0x5977]        # 0x14000efe8
   140009671:	48 8b d5             	mov    rdx,rbp
   140009674:	48 8b 0d 75 59 00 00 	mov    rcx,QWORD PTR [rip+0x5975]        # 0x14000eff0
   14000967b:	48 8b 80 50 01 00 00 	mov    rax,QWORD PTR [rax+0x150]
   140009682:	ff 15 b8 1a 00 00    	call   QWORD PTR [rip+0x1ab8]        # 0x14000b140
   140009688:	48 8b f8             	mov    rdi,rax
   14000968b:	48 85 c0             	test   rax,rax
   14000968e:	75 19                	jne    0x1400096a9
   140009690:	48 8b 05 51 59 00 00 	mov    rax,QWORD PTR [rip+0x5951]        # 0x14000efe8
   140009697:	41 b8 01 00 00 c0    	mov    r8d,0xc0000001
   14000969d:	48 8b 80 38 08 00 00 	mov    rax,QWORD PTR [rax+0x838]
   1400096a4:	e9 ff 00 00 00       	jmp    0x1400097a8
   1400096a9:	81 fe 10 02 41 00    	cmp    esi,0x410210
   1400096af:	74 57                	je     0x140009708
   1400096b1:	81 fe c0 0f 22 00    	cmp    esi,0x220fc0
   1400096b7:	74 4f                	je     0x140009708
   1400096b9:	48 8b 05 28 59 00 00 	mov    rax,QWORD PTR [rip+0x5928]        # 0x14000efe8

=== HIT at line 8609 ===
   1400097e7:	57                   	push   rdi
   1400097e8:	48 83 ec 50          	sub    rsp,0x50
   1400097ec:	48 8b 05 7d 2d 00 00 	mov    rax,QWORD PTR [rip+0x2d7d]        # 0x14000c570
   1400097f3:	48 33 c4             	xor    rax,rsp
   1400097f6:	48 89 44 24 40       	mov    QWORD PTR [rsp+0x40],rax
   1400097fb:	48 8b 05 e6 57 00 00 	mov    rax,QWORD PTR [rip+0x57e6]        # 0x14000efe8
   140009802:	48 8b da             	mov    rbx,rdx
   140009805:	48 8b d1             	mov    rdx,rcx
   140009808:	48 8b 0d e1 57 00 00 	mov    rcx,QWORD PTR [rip+0x57e1]        # 0x14000eff0
   14000980f:	48 8b 80 e8 04 00 00 	mov    rax,QWORD PTR [rax+0x4e8]
   140009816:	ff 15 24 19 00 00    	call   QWORD PTR [rip+0x1924]        # 0x14000b140
   14000981c:	48 8b 0d c5 57 00 00 	mov    rcx,QWORD PTR [rip+0x57c5]        # 0x14000efe8
   140009823:	48 8b f0             	mov    rsi,rax
   140009826:	4c 8b 05 eb 27 00 00 	mov    r8,QWORD PTR [rip+0x27eb]        # 0x14000c018
   14000982d:	48 8b d6             	mov    rdx,rsi
   140009830:	48 8b 81 50 06 00 00 	mov    rax,QWORD PTR [rcx+0x650]
   140009837:	48 8b 0d b2 57 00 00 	mov    rcx,QWORD PTR [rip+0x57b2]        # 0x14000eff0
   14000983e:	ff 15 fc 18 00 00    	call   QWORD PTR [rip+0x18fc]        # 0x14000b140
   140009844:	48 8b 0d 9d 57 00 00 	mov    rcx,QWORD PTR [rip+0x579d]        # 0x14000efe8
   14000984b:	48 8b d3             	mov    rdx,rbx
   14000984e:	48 8b f8             	mov    rdi,rax
   140009851:	48 8b 81 e8 08 00 00 	mov    rax,QWORD PTR [rcx+0x8e8]
   140009858:	48 8b 0d 91 57 00 00 	mov    rcx,QWORD PTR [rip+0x5791]        # 0x14000eff0
   14000985f:	ff 15 db 18 00 00    	call   QWORD PTR [rip+0x18db]        # 0x14000b140
   140009865:	48 8b 0d 7c 57 00 00 	mov    rcx,QWORD PTR [rip+0x577c]        # 0x14000efe8
   14000986c:	48 8b d6             	mov    rdx,rsi
   14000986f:	48 8b a8 b8 00 00 00 	mov    rbp,QWORD PTR [rax+0xb8]
   140009876:	48 8b 81 f8 00 00 00 	mov    rax,QWORD PTR [rcx+0xf8]
   14000987d:	48 8b 0d 6c 57 00 00 	mov    rcx,QWORD PTR [rip+0x576c]        # 0x14000eff0
   140009884:	ff 15 b6 18 00 00    	call   QWORD PTR [rip+0x18b6]        # 0x14000b140
   14000988a:	81 bc 24 90 00 00 00 	cmp    DWORD PTR [rsp+0x90],0x410003
   140009891:	03 00 41 00 
   140009895:	0f 85 db 02 00 00    	jne    0x140009b76
   14000989b:	48 85 ed             	test   rbp,rbp
   14000989e:	0f 84 d2 02 00 00    	je     0x140009b76
   1400098a4:	48 8b 4d 08          	mov    rcx,QWORD PTR [rbp+0x8]
   1400098a8:	48 85 c9             	test   rcx,rcx
   1400098ab:	0f 84 c5 02 00 00    	je     0x140009b76
   1400098b1:	0f b7 41 16          	movzx  eax,WORD PTR [rcx+0x16]
   1400098b5:	ba 05 01 00 00       	mov    edx,0x105
   1400098ba:	66 3b c2             	cmp    ax,dx
   1400098bd:	75 7a                	jne    0x140009939
   1400098bf:	48 8b 47 20          	mov    rax,QWORD PTR [rdi+0x20]
   1400098c3:	48 39 41 78          	cmp    QWORD PTR [rcx+0x78],rax
   1400098c7:	0f 85 a9 02 00 00    	jne    0x140009b76
   1400098cd:	48 8b 05 14 57 00 00 	mov    rax,QWORD PTR [rip+0x5714]        # 0x14000efe8
   1400098d4:	48 8b d3             	mov    rdx,rbx
   1400098d7:	48 8b 0d 12 57 00 00 	mov    rcx,QWORD PTR [rip+0x5712]        # 0x14000eff0
   1400098de:	48 8b 80 d8 07 00 00 	mov    rax,QWORD PTR [rax+0x7d8]
   1400098e5:	ff 15 55 18 00 00    	call   QWORD PTR [rip+0x1855]        # 0x14000b140
   1400098eb:	4c 8d 05 6e 05 00 00 	lea    r8,[rip+0x56e]        # 0x140009e60
   1400098f2:	48 8b 05 ef 56 00 00 	mov    rax,QWORD PTR [rip+0x56ef]        # 0x14000efe8
   1400098f9:	4c 8b ce             	mov    r9,rsi
   1400098fc:	48 8b 0d ed 56 00 00 	mov    rcx,QWORD PTR [rip+0x56ed]        # 0x14000eff0
   140009903:	48 8b d3             	mov    rdx,rbx
   140009906:	48 8b 80 20 08 00 00 	mov    rax,QWORD PTR [rax+0x820]
   14000990d:	ff 15 2d 18 00 00    	call   QWORD PTR [rip+0x182d]        # 0x14000b140
   140009913:	48 8b 05 ce 56 00 00 	mov    rax,QWORD PTR [rip+0x56ce]        # 0x14000efe8
   14000991a:	48 8b d6             	mov    rdx,rsi
   14000991d:	48 8b 0d cc 56 00 00 	mov    rcx,QWORD PTR [rip+0x56cc]        # 0x14000eff0
   140009924:	48 8b 80 50 01 00 00 	mov    rax,QWORD PTR [rax+0x150]
   14000992b:	ff 15 0f 18 00 00    	call   QWORD PTR [rip+0x180f]        # 0x14000b140
   140009931:	45 33 c9             	xor    r9d,r9d
   140009934:	e9 76 02 00 00       	jmp    0x140009baf
   140009939:	b9 04 01 00 00       	mov    ecx,0x104
   14000993e:	66 3b c1             	cmp    ax,cx
   140009941:	0f 85 fe 00 00 00    	jne    0x140009a45
   140009947:	48 8b 05 9a 56 00 00 	mov    rax,QWORD PTR [rip+0x569a]        # 0x14000efe8
   14000994e:	48 8b d3             	mov    rdx,rbx
   140009951:	48 8b 0d 98 56 00 00 	mov    rcx,QWORD PTR [rip+0x5698]        # 0x14000eff0
   140009958:	48 8b 80 d8 07 00 00 	mov    rax,QWORD PTR [rax+0x7d8]
   14000995f:	ff 15 db 17 00 00    	call   QWORD PTR [rip+0x17db]        # 0x14000b140
   140009965:	48 8b 05 7c 56 00 00 	mov    rax,QWORD PTR [rip+0x567c]        # 0x14000efe8
   14000996c:	4c 8d 05 cd 02 00 00 	lea    r8,[rip+0x2cd]        # 0x140009c40
   140009973:	48 8b 0d 76 56 00 00 	mov    rcx,QWORD PTR [rip+0x5676]        # 0x14000eff0
   14000997a:	4c 8b ce             	mov    r9,rsi
   14000997d:	48 8b d3             	mov    rdx,rbx
   140009980:	48 8b 80 20 08 00 00 	mov    rax,QWORD PTR [rax+0x820]
   140009987:	ff 15 b3 17 00 00    	call   QWORD PTR [rip+0x17b3]        # 0x14000b140
   14000998d:	48 8b 05 54 56 00 00 	mov    rax,QWORD PTR [rip+0x5654]        # 0x14000efe8
   140009994:	48 8b d6             	mov    rdx,rsi

=== HIT at line 8699 ===
   1400099c9:	49 8b c2             	mov    rax,r10
   1400099cc:	ff 15 6e 17 00 00    	call   QWORD PTR [rip+0x176e]        # 0x14000b140
   1400099d2:	84 c0                	test   al,al
   1400099d4:	75 42                	jne    0x140009a18
   1400099d6:	48 8b 05 0b 56 00 00 	mov    rax,QWORD PTR [rip+0x560b]        # 0x14000efe8
   1400099dd:	48 8b d3             	mov    rdx,rbx
   1400099e0:	48 8b 0d 09 56 00 00 	mov    rcx,QWORD PTR [rip+0x5609]        # 0x14000eff0
   1400099e7:	48 8b 80 f0 07 00 00 	mov    rax,QWORD PTR [rax+0x7f0]
   1400099ee:	ff 15 4c 17 00 00    	call   QWORD PTR [rip+0x174c]        # 0x14000b140
   1400099f4:	48 8b 0d ed 55 00 00 	mov    rcx,QWORD PTR [rip+0x55ed]        # 0x14000efe8
   1400099fb:	48 8b d3             	mov    rdx,rbx
   1400099fe:	44 8b c0             	mov    r8d,eax
   140009a01:	4c 8b 89 38 08 00 00 	mov    r9,QWORD PTR [rcx+0x838]
   140009a08:	48 8b 0d e1 55 00 00 	mov    rcx,QWORD PTR [rip+0x55e1]        # 0x14000eff0
   140009a0f:	49 8b c1             	mov    rax,r9
   140009a12:	ff 15 28 17 00 00    	call   QWORD PTR [rip+0x1728]        # 0x14000b140
   140009a18:	45 33 c0             	xor    r8d,r8d
   140009a1b:	48 8d 8f d1 00 00 00 	lea    rcx,[rdi+0xd1]
   140009a22:	33 d2                	xor    edx,edx
   140009a24:	38 97 13 18 00 00    	cmp    BYTE PTR [rdi+0x1813],dl
   140009a2a:	75 07                	jne    0x140009a33
   140009a2c:	48 8d 8f e9 00 00 00 	lea    rcx,[rdi+0xe9]
   140009a33:	ff 15 0f 16 00 00    	call   QWORD PTR [rip+0x160f]        # 0x14000b048
   140009a39:	c6 87 2d 18 00 00 00 	mov    BYTE PTR [rdi+0x182d],0x0
   140009a40:	e9 d4 01 00 00       	jmp    0x140009c19
   140009a45:	b9 02 01 00 00       	mov    ecx,0x102
   140009a4a:	66 3b c1             	cmp    ax,cx
   140009a4d:	75 2a                	jne    0x140009a79
   140009a4f:	48 8b 05 92 55 00 00 	mov    rax,QWORD PTR [rip+0x5592]        # 0x14000efe8
   140009a56:	48 8b d3             	mov    rdx,rbx
   140009a59:	48 8b 0d 90 55 00 00 	mov    rcx,QWORD PTR [rip+0x5590]        # 0x14000eff0
   140009a60:	48 8b 80 d8 07 00 00 	mov    rax,QWORD PTR [rax+0x7d8]
   140009a67:	ff 15 d3 16 00 00    	call   QWORD PTR [rip+0x16d3]        # 0x14000b140
   140009a6d:	4c 8d 05 cc 02 00 00 	lea    r8,[rip+0x2cc]        # 0x140009d40
   140009a74:	e9 79 fe ff ff       	jmp    0x1400098f2
   140009a79:	b9 03 01 00 00       	mov    ecx,0x103
   140009a7e:	66 3b c1             	cmp    ax,cx
   140009a81:	0f 85 ef 00 00 00    	jne    0x140009b76
   140009a87:	48 8b 05 5a 55 00 00 	mov    rax,QWORD PTR [rip+0x555a]        # 0x14000efe8
   140009a8e:	48 8b d3             	mov    rdx,rbx
   140009a91:	48 8b 0d 58 55 00 00 	mov    rcx,QWORD PTR [rip+0x5558]        # 0x14000eff0
   140009a98:	48 8b 80 d8 07 00 00 	mov    rax,QWORD PTR [rax+0x7d8]
   140009a9f:	ff 15 9b 16 00 00    	call   QWORD PTR [rip+0x169b]        # 0x14000b140
   140009aa5:	48 8b 05 3c 55 00 00 	mov    rax,QWORD PTR [rip+0x553c]        # 0x14000efe8
   140009aac:	4c 8d 05 8d 02 00 00 	lea    r8,[rip+0x28d]        # 0x140009d40
   140009ab3:	48 8b 0d 36 55 00 00 	mov    rcx,QWORD PTR [rip+0x5536]        # 0x14000eff0
   140009aba:	4c 8b ce             	mov    r9,rsi
   140009abd:	48 8b d3             	mov    rdx,rbx
   140009ac0:	48 8b 80 20 08 00 00 	mov    rax,QWORD PTR [rax+0x820]
   140009ac7:	ff 15 73 16 00 00    	call   QWORD PTR [rip+0x1673]        # 0x14000b140
   140009acd:	48 8b 05 14 55 00 00 	mov    rax,QWORD PTR [rip+0x5514]        # 0x14000efe8
   140009ad4:	48 8b d6             	mov    rdx,rsi
   140009ad7:	48 8b 0d 12 55 00 00 	mov    rcx,QWORD PTR [rip+0x5512]        # 0x14000eff0
   140009ade:	48 8b 80 50 01 00 00 	mov    rax,QWORD PTR [rax+0x150]
   140009ae5:	ff 15 55 16 00 00    	call   QWORD PTR [rip+0x1655]        # 0x14000b140
   140009aeb:	48 8b 0d f6 54 00 00 	mov    rcx,QWORD PTR [rip+0x54f6]        # 0x14000efe8
   140009af2:	45 33 c9             	xor    r9d,r9d
   140009af5:	4c 8b c0             	mov    r8,rax
   140009af8:	48 8b d3             	mov    rdx,rbx
   140009afb:	4c 8b 91 e8 07 00 00 	mov    r10,QWORD PTR [rcx+0x7e8]
   140009b02:	48 8b 0d e7 54 00 00 	mov    rcx,QWORD PTR [rip+0x54e7]        # 0x14000eff0
   140009b09:	49 8b c2             	mov    rax,r10
   140009b0c:	ff 15 2e 16 00 00    	call   QWORD PTR [rip+0x162e]        # 0x14000b140
   140009b12:	84 c0                	test   al,al
   140009b14:	75 42                	jne    0x140009b58
   140009b16:	48 8b 05 cb 54 00 00 	mov    rax,QWORD PTR [rip+0x54cb]        # 0x14000efe8
   140009b1d:	48 8b d3             	mov    rdx,rbx
   140009b20:	48 8b 0d c9 54 00 00 	mov    rcx,QWORD PTR [rip+0x54c9]        # 0x14000eff0
   140009b27:	48 8b 80 f0 07 00 00 	mov    rax,QWORD PTR [rax+0x7f0]
   140009b2e:	ff 15 0c 16 00 00    	call   QWORD PTR [rip+0x160c]        # 0x14000b140
   140009b34:	48 8b 0d ad 54 00 00 	mov    rcx,QWORD PTR [rip+0x54ad]        # 0x14000efe8
   140009b3b:	48 8b d3             	mov    rdx,rbx
   140009b3e:	44 8b c0             	mov    r8d,eax
   140009b41:	4c 8b 89 38 08 00 00 	mov    r9,QWORD PTR [rcx+0x838]
   140009b48:	48 8b 0d a1 54 00 00 	mov    rcx,QWORD PTR [rip+0x54a1]        # 0x14000eff0
   140009b4f:	49 8b c1             	mov    rax,r9
   140009b52:	ff 15 e8 15 00 00    	call   QWORD PTR [rip+0x15e8]        # 0x14000b140
   140009b58:	48 8d 8f b9 00 00 00 	lea    rcx,[rdi+0xb9]
   140009b5f:	c6 87 13 18 00 00 01 	mov    BYTE PTR [rdi+0x1813],0x1
   140009b66:	45 33 c0             	xor    r8d,r8d
   140009b69:	33 d2                	xor    edx,edx

=== HIT at line 9324 ===
   14000a3f3:	88 43 02             	mov    BYTE PTR [rbx+0x2],al
   14000a3f6:	8a 43 02             	mov    al,BYTE PTR [rbx+0x2]
   14000a3f9:	88 87 e2 17 00 00    	mov    BYTE PTR [rdi+0x17e2],al
   14000a3ff:	48 8b 05 e2 4b 00 00 	mov    rax,QWORD PTR [rip+0x4be2]        # 0x14000efe8
   14000a406:	44 8b c5             	mov    r8d,ebp
   14000a409:	48 8b 0d e0 4b 00 00 	mov    rcx,QWORD PTR [rip+0x4be0]        # 0x14000eff0
   14000a410:	49 8b d6             	mov    rdx,r14
   14000a413:	48 8b 80 38 08 00 00 	mov    rax,QWORD PTR [rax+0x838]
   14000a41a:	48 8b 5c 24 40       	mov    rbx,QWORD PTR [rsp+0x40]
   14000a41f:	48 8b 6c 24 48       	mov    rbp,QWORD PTR [rsp+0x48]
   14000a424:	48 8b 74 24 50       	mov    rsi,QWORD PTR [rsp+0x50]
   14000a429:	48 8b 7c 24 58       	mov    rdi,QWORD PTR [rsp+0x58]
   14000a42e:	48 83 c4 20          	add    rsp,0x20
   14000a432:	41 5f                	pop    r15
   14000a434:	41 5e                	pop    r14
   14000a436:	41 5c                	pop    r12
   14000a438:	48 ff 25 01 0d 00 00 	rex.W jmp QWORD PTR [rip+0xd01]        # 0x14000b140
   14000a43f:	cc                   	int3
   14000a440:	48 8b c4             	mov    rax,rsp
   14000a443:	48 89 58 10          	mov    QWORD PTR [rax+0x10],rbx
   14000a447:	4c 89 40 18          	mov    QWORD PTR [rax+0x18],r8
   14000a44b:	48 89 48 08          	mov    QWORD PTR [rax+0x8],rcx
   14000a44f:	55                   	push   rbp
   14000a450:	56                   	push   rsi
   14000a451:	57                   	push   rdi
   14000a452:	41 54                	push   r12
   14000a454:	41 55                	push   r13
   14000a456:	41 56                	push   r14
   14000a458:	41 57                	push   r15
   14000a45a:	48 8d 68 a1          	lea    rbp,[rax-0x5f]
   14000a45e:	48 81 ec 90 00 00 00 	sub    rsp,0x90
   14000a465:	48 8b 05 7c 4b 00 00 	mov    rax,QWORD PTR [rip+0x4b7c]        # 0x14000efe8
   14000a46c:	45 33 e4             	xor    r12d,r12d
   14000a46f:	49 8b f8             	mov    rdi,r8
   14000a472:	4c 89 65 f7          	mov    QWORD PTR [rbp-0x9],r12
   14000a476:	4c 8b 05 9b 1b 00 00 	mov    r8,QWORD PTR [rip+0x1b9b]        # 0x14000c018
   14000a47d:	48 8b d9             	mov    rbx,rcx
   14000a480:	48 8b 0d 69 4b 00 00 	mov    rcx,QWORD PTR [rip+0x4b69]        # 0x14000eff0
   14000a487:	49 8b d1             	mov    rdx,r9
   14000a48a:	48 8b 80 50 06 00 00 	mov    rax,QWORD PTR [rax+0x650]
   14000a491:	45 8a ec             	mov    r13b,r12b
   14000a494:	44 89 65 db          	mov    DWORD PTR [rbp-0x25],r12d
   14000a498:	44 89 65 d7          	mov    DWORD PTR [rbp-0x29],r12d
   14000a49c:	44 89 65 e3          	mov    DWORD PTR [rbp-0x1d],r12d
   14000a4a0:	44 89 65 df          	mov    DWORD PTR [rbp-0x21],r12d
   14000a4a4:	44 89 65 eb          	mov    DWORD PTR [rbp-0x15],r12d
   14000a4a8:	44 89 65 e7          	mov    DWORD PTR [rbp-0x19],r12d
   14000a4ac:	44 89 65 0f          	mov    DWORD PTR [rbp+0xf],r12d
   14000a4b0:	44 89 65 ef          	mov    DWORD PTR [rbp-0x11],r12d
   14000a4b4:	44 89 65 cf          	mov    DWORD PTR [rbp-0x31],r12d
   14000a4b8:	44 89 65 cb          	mov    DWORD PTR [rbp-0x35],r12d
   14000a4bc:	ff 15 7e 0c 00 00    	call   QWORD PTR [rip+0xc7e]        # 0x14000b140
   14000a4c2:	48 8b 0d 1f 4b 00 00 	mov    rcx,QWORD PTR [rip+0x4b1f]        # 0x14000efe8
   14000a4c9:	48 8b d3             	mov    rdx,rbx
   14000a4cc:	8b 77 08             	mov    esi,DWORD PTR [rdi+0x8]
   14000a4cf:	4c 8b f0             	mov    r14,rax
   14000a4d2:	48 8b 81 e8 08 00 00 	mov    rax,QWORD PTR [rcx+0x8e8]
   14000a4d9:	48 8b 0d 10 4b 00 00 	mov    rcx,QWORD PTR [rip+0x4b10]        # 0x14000eff0
   14000a4e0:	ff 15 5a 0c 00 00    	call   QWORD PTR [rip+0xc5a]        # 0x14000b140
   14000a4e6:	48 8b d8             	mov    rbx,rax
   14000a4e9:	48 8b 88 b8 00 00 00 	mov    rcx,QWORD PTR [rax+0xb8]
   14000a4f0:	48 85 c9             	test   rcx,rcx
   14000a4f3:	0f 84 5d 08 00 00    	je     0x14000ad56
   14000a4f9:	8b 79 18             	mov    edi,DWORD PTR [rcx+0x18]
   14000a4fc:	48 8b 0d e5 4a 00 00 	mov    rcx,QWORD PTR [rip+0x4ae5]        # 0x14000efe8
   14000a503:	49 8b 16             	mov    rdx,QWORD PTR [r14]
   14000a506:	48 8b 81 00 01 00 00 	mov    rax,QWORD PTR [rcx+0x100]
   14000a50d:	48 8b 0d dc 4a 00 00 	mov    rcx,QWORD PTR [rip+0x4adc]        # 0x14000eff0
   14000a514:	ff 15 26 0c 00 00    	call   QWORD PTR [rip+0xc26]        # 0x14000b140
   14000a51a:	48 8b 5b 18          	mov    rbx,QWORD PTR [rbx+0x18]
   14000a51e:	4c 8b f8             	mov    r15,rax
   14000a521:	48 89 5d 17          	mov    QWORD PTR [rbp+0x17],rbx
   14000a525:	44 39 63 04          	cmp    DWORD PTR [rbx+0x4],r12d
   14000a529:	75 08                	jne    0x14000a533
   14000a52b:	83 03 74             	add    DWORD PTR [rbx],0x74
   14000a52e:	e9 23 08 00 00       	jmp    0x14000ad56
   14000a533:	48 8d 4b 08          	lea    rcx,[rbx+0x8]
   14000a537:	4c 8d 45 d3          	lea    r8,[rbp-0x2d]
   14000a53b:	48 8d 55 c7          	lea    rdx,[rbp-0x39]
   14000a53f:	e8 fc 7c ff ff       	call   0x140002240
   14000a544:	84 c0                	test   al,al

=== HIT at line 9513 ===
   14000a6fa:	80 39 09             	cmp    BYTE PTR [rcx],0x9
   14000a6fd:	75 11                	jne    0x14000a710
   14000a6ff:	b8 02 06 00 00       	mov    eax,0x602
   14000a704:	66 39 41 01          	cmp    WORD PTR [rcx+0x1],ax
   14000a708:	75 06                	jne    0x14000a710
   14000a70a:	66 39 51 07          	cmp    WORD PTR [rcx+0x7],dx
   14000a70e:	74 40                	je     0x14000a750
   14000a710:	48 8b 45 17          	mov    rax,QWORD PTR [rbp+0x17]
   14000a714:	44 03 7d ff          	add    r15d,DWORD PTR [rbp-0x1]
   14000a718:	8b 50 04             	mov    edx,DWORD PTR [rax+0x4]
   14000a71b:	8d 42 fe             	lea    eax,[rdx-0x2]
   14000a71e:	44 3b f8             	cmp    r15d,eax
   14000a721:	73 30                	jae    0x14000a753
   14000a723:	48 8b 47 78          	mov    rax,QWORD PTR [rdi+0x78]
   14000a727:	4c 8d 45 ff          	lea    r8,[rbp-0x1]
   14000a72b:	4c 89 44 24 20       	mov    QWORD PTR [rsp+0x20],r8
   14000a730:	4c 8d 4d f7          	lea    r9,[rbp-0x9]
   14000a734:	4c 8b c1             	mov    r8,rcx
   14000a737:	49 8b cc             	mov    rcx,r12
   14000a73a:	ff 15 00 0a 00 00    	call   QWORD PTR [rip+0xa00]        # 0x14000b140
   14000a740:	48 8b 4d f7          	mov    rcx,QWORD PTR [rbp-0x9]
   14000a744:	48 85 c9             	test   rcx,rcx
   14000a747:	74 0a                	je     0x14000a753
   14000a749:	ba 08 22 00 00       	mov    edx,0x2208
   14000a74e:	eb aa                	jmp    0x14000a6fa
   14000a750:	41 b5 01             	mov    r13b,0x1
   14000a753:	48 8b cb             	mov    rcx,rbx
   14000a756:	ff 15 c4 09 00 00    	call   QWORD PTR [rip+0x9c4]        # 0x14000b120
   14000a75c:	33 d2                	xor    edx,edx
   14000a75e:	48 8b cf             	mov    rcx,rdi
   14000a761:	ff 15 01 09 00 00    	call   QWORD PTR [rip+0x901]        # 0x14000b068
   14000a767:	33 d2                	xor    edx,edx
   14000a769:	49 8b ce             	mov    rcx,r14
   14000a76c:	ff 15 f6 08 00 00    	call   QWORD PTR [rip+0x8f6]        # 0x14000b068
   14000a772:	45 84 ed             	test   r13b,r13b
   14000a775:	0f 84 db 05 00 00    	je     0x14000ad56
   14000a77b:	4c 8b 75 f7          	mov    r14,QWORD PTR [rbp-0x9]
   14000a77f:	4c 8d 45 07          	lea    r8,[rbp+0x7]
   14000a783:	48 8d 55 7f          	lea    rdx,[rbp+0x7f]
   14000a787:	49 8d 4e 03          	lea    rcx,[r14+0x3]
   14000a78b:	e8 b0 7a ff ff       	call   0x140002240
   14000a790:	84 c0                	test   al,al
   14000a792:	0f 84 be 05 00 00    	je     0x14000ad56
   14000a798:	0f b6 7d 7f          	movzx  edi,BYTE PTR [rbp+0x7f]
   14000a79c:	49 8d 4e 04          	lea    rcx,[r14+0x4]
   14000a7a0:	48 03 cf             	add    rcx,rdi
   14000a7a3:	4c 8d 45 03          	lea    r8,[rbp+0x3]
   14000a7a7:	48 8d 55 ca          	lea    rdx,[rbp-0x36]
   14000a7ab:	e8 90 7a ff ff       	call   0x140002240
   14000a7b0:	84 c0                	test   al,al
   14000a7b2:	0f 84 9e 05 00 00    	je     0x14000ad56
   14000a7b8:	0f b6 5d ca          	movzx  ebx,BYTE PTR [rbp-0x36]
   14000a7bc:	b9 08 22 00 00       	mov    ecx,0x2208
   14000a7c1:	8b c3                	mov    eax,ebx
   14000a7c3:	48 89 5d 1f          	mov    QWORD PTR [rbp+0x1f],rbx
   14000a7c7:	48 03 c7             	add    rax,rdi
   14000a7ca:	66 42 39 4c 30 05    	cmp    WORD PTR [rax+r14*1+0x5],cx
   14000a7d0:	0f 85 80 05 00 00    	jne    0x14000ad56
   14000a7d6:	49 8d 4e 07          	lea    rcx,[r14+0x7]
   14000a7da:	48 03 c8             	add    rcx,rax
   14000a7dd:	4c 8d 45 13          	lea    r8,[rbp+0x13]
   14000a7e1:	48 8d 55 c9          	lea    rdx,[rbp-0x37]
   14000a7e5:	e8 56 7a ff ff       	call   0x140002240
   14000a7ea:	84 c0                	test   al,al
   14000a7ec:	0f 84 64 05 00 00    	je     0x14000ad56
   14000a7f2:	8b 4d 13             	mov    ecx,DWORD PTR [rbp+0x13]
   14000a7f5:	b8 04 00 00 00       	mov    eax,0x4
   14000a7fa:	44 8b 65 d3          	mov    r12d,DWORD PTR [rbp-0x2d]
   14000a7fe:	44 8a 5d c9          	mov    r11b,BYTE PTR [rbp-0x37]
   14000a802:	89 45 d3             	mov    DWORD PTR [rbp-0x2d],eax
   14000a805:	83 f9 74             	cmp    ecx,0x74
   14000a808:	0f 83 fa 00 00 00    	jae    0x14000a908
   14000a80e:	8b 7d 03             	mov    edi,DWORD PTR [rbp+0x3]
   14000a811:	44 8d 48 70          	lea    r9d,[rax+0x70]
   14000a815:	44 2b c9             	sub    r9d,ecx
   14000a818:	44 8d 68 fe          	lea    r13d,[rax-0x2]
   14000a81c:	44 89 4d 0f          	mov    DWORD PTR [rbp+0xf],r9d
   14000a820:	45 8b c1             	mov    r8d,r9d
   14000a823:	44 89 4d eb          	mov    DWORD PTR [rbp-0x15],r9d
   14000a827:	ba ff 00 00 00       	mov    edx,0xff
   14000a82c:	b9 ff ff 00 00       	mov    ecx,0xffff

=== HIT at line 9870 ===
   14000abcc:	77 12                	ja     0x14000abe0
   14000abce:	66 c1 c7 08          	rol    di,0x8
   14000abd2:	66 89 78 01          	mov    WORD PTR [rax+0x1],di
   14000abd6:	c6 00 36             	mov    BYTE PTR [rax],0x36
   14000abd9:	b8 03 00 00 00       	mov    eax,0x3
   14000abde:	eb 0d                	jmp    0x14000abed
   14000abe0:	0f cf                	bswap  edi
   14000abe2:	89 78 01             	mov    DWORD PTR [rax+0x1],edi
   14000abe5:	c6 00 37             	mov    BYTE PTR [rax],0x37
   14000abe8:	b8 05 00 00 00       	mov    eax,0x5
   14000abed:	4c 8b 7d 17          	mov    r15,QWORD PTR [rbp+0x17]
   14000abf1:	8d 0c 02             	lea    ecx,[rdx+rax*1]
   14000abf4:	8d 79 02             	lea    edi,[rcx+0x2]
   14000abf7:	ba 08 22 00 00       	mov    edx,0x2208
   14000abfc:	66 42 89 14 31       	mov    WORD PTR [rcx+r14*1],dx
   14000ac01:	41 8b df             	mov    ebx,r15d
   14000ac04:	8b 55 13             	mov    edx,DWORD PTR [rbp+0x13]
   14000ac07:	66 42 c7 04 37 25 74 	mov    WORD PTR [rdi+r14*1],0x7425
   14000ac0e:	41 03 fd             	add    edi,r13d
   14000ac11:	0f 10 05 38 14 00 00 	movups xmm0,XMMWORD PTR [rip+0x1438]        # 0x14000c050
   14000ac18:	8b cf                	mov    ecx,edi
   14000ac1a:	83 c7 74             	add    edi,0x74
   14000ac1d:	49 03 ce             	add    rcx,r14
   14000ac20:	0f 11 01             	movups XMMWORD PTR [rcx],xmm0
   14000ac23:	0f 10 0d 36 14 00 00 	movups xmm1,XMMWORD PTR [rip+0x1436]        # 0x14000c060
   14000ac2a:	0f 11 49 10          	movups XMMWORD PTR [rcx+0x10],xmm1
   14000ac2e:	0f 10 05 3b 14 00 00 	movups xmm0,XMMWORD PTR [rip+0x143b]        # 0x14000c070
   14000ac35:	0f 11 41 20          	movups XMMWORD PTR [rcx+0x20],xmm0
   14000ac39:	0f 10 0d 40 14 00 00 	movups xmm1,XMMWORD PTR [rip+0x1440]        # 0x14000c080
   14000ac40:	0f 11 49 30          	movups XMMWORD PTR [rcx+0x30],xmm1
   14000ac44:	0f 10 05 45 14 00 00 	movups xmm0,XMMWORD PTR [rip+0x1445]        # 0x14000c090
   14000ac4b:	0f 11 41 40          	movups XMMWORD PTR [rcx+0x40],xmm0
   14000ac4f:	0f 10 0d 4a 14 00 00 	movups xmm1,XMMWORD PTR [rip+0x144a]        # 0x14000c0a0
   14000ac56:	0f 11 49 50          	movups XMMWORD PTR [rcx+0x50],xmm1
   14000ac5a:	0f 10 05 4f 14 00 00 	movups xmm0,XMMWORD PTR [rip+0x144f]        # 0x14000c0b0
   14000ac61:	0f 11 41 60          	movups XMMWORD PTR [rcx+0x60],xmm0
   14000ac65:	8b 05 55 14 00 00    	mov    eax,DWORD PTR [rip+0x1455]        # 0x14000c0c0
   14000ac6b:	89 41 70             	mov    DWORD PTR [rcx+0x70],eax
   14000ac6e:	0f b6 45 c9          	movzx  eax,BYTE PTR [rbp-0x37]
   14000ac72:	4c 8b 4d f7          	mov    r9,QWORD PTR [rbp-0x9]
   14000ac76:	2b d8                	sub    ebx,eax
   14000ac78:	0f b6 45 ca          	movzx  eax,BYTE PTR [rbp-0x36]
   14000ac7c:	2b d8                	sub    ebx,eax
   14000ac7e:	8b cf                	mov    ecx,edi
   14000ac80:	0f b6 45 7f          	movzx  eax,BYTE PTR [rbp+0x7f]
   14000ac84:	49 03 ce             	add    rcx,r14
   14000ac87:	2b d8                	sub    ebx,eax
   14000ac89:	0f b6 45 c9          	movzx  eax,BYTE PTR [rbp-0x37]
   14000ac8d:	48 03 45 1f          	add    rax,QWORD PTR [rbp+0x1f]
   14000ac91:	41 2b d9             	sub    ebx,r9d
   14000ac94:	2b da                	sub    ebx,edx
   14000ac96:	49 83 c1 08          	add    r9,0x8
   14000ac9a:	41 03 5f 04          	add    ebx,DWORD PTR [r15+0x4]
   14000ac9e:	48 03 d0             	add    rdx,rax
   14000aca1:	0f b6 45 7f          	movzx  eax,BYTE PTR [rbp+0x7f]
   14000aca5:	48 03 d0             	add    rdx,rax
   14000aca8:	44 8b c3             	mov    r8d,ebx
   14000acab:	49 03 d1             	add    rdx,r9
   14000acae:	e8 8d d1 ff ff       	call   0x140007e40
   14000acb3:	03 fb                	add    edi,ebx
   14000acb5:	49 8d 4f 08          	lea    rcx,[r15+0x8]
   14000acb9:	44 8b c7             	mov    r8d,edi
   14000acbc:	49 8b d6             	mov    rdx,r14
   14000acbf:	e8 7c d1 ff ff       	call   0x140007e40
   14000acc4:	8b 45 cb             	mov    eax,DWORD PTR [rbp-0x35]
   14000acc7:	8b 4d cf             	mov    ecx,DWORD PTR [rbp-0x31]
   14000acca:	48 2b c8             	sub    rcx,rax
   14000accd:	41 89 3f             	mov    DWORD PTR [r15],edi
   14000acd0:	48 8b 45 77          	mov    rax,QWORD PTR [rbp+0x77]
   14000acd4:	41 89 7f 04          	mov    DWORD PTR [r15+0x4],edi
   14000acd8:	48 01 48 10          	add    QWORD PTR [rax+0x10],rcx
   14000acdc:	e9 c8 f9 ff ff       	jmp    0x14000a6a9
   14000ace1:	0f b6 7d 7f          	movzx  edi,BYTE PTR [rbp+0x7f]
   14000ace5:	0f 10 05 64 13 00 00 	movups xmm0,XMMWORD PTR [rip+0x1364]        # 0x14000c050
   14000acec:	41 0f b6 cb          	movzx  ecx,r11b
   14000acf0:	48 03 4d 1f          	add    rcx,QWORD PTR [rbp+0x1f]
   14000acf4:	48 03 cf             	add    rcx,rdi
   14000acf7:	42 0f 11 44 31 08    	movups XMMWORD PTR [rcx+r14*1+0x8],xmm0
   14000acfd:	0f 10 0d 5c 13 00 00 	movups xmm1,XMMWORD PTR [rip+0x135c]        # 0x14000c060
   14000ad04:	42 0f 11 4c 31 18    	movups XMMWORD PTR [rcx+r14*1+0x18],xmm1
   14000ad0a:	0f 10 05 5f 13 00 00 	movups xmm0,XMMWORD PTR [rip+0x135f]        # 0x14000c070

=== HIT at line 9984 ===
   14000ad98:	cc                   	int3
   14000ad99:	cc                   	int3
   14000ad9a:	cc                   	int3
   14000ad9b:	cc                   	int3
   14000ad9c:	cc                   	int3
   14000ad9d:	cc                   	int3
   14000ad9e:	cc                   	int3
   14000ad9f:	cc                   	int3
   14000ada0:	48 83 ec 28          	sub    rsp,0x28
   14000ada4:	49 8b c0             	mov    rax,r8
   14000ada7:	4d 85 c0             	test   r8,r8
   14000adaa:	75 07                	jne    0x14000adb3
   14000adac:	b8 01 00 00 c0       	mov    eax,0xc0000001
   14000adb1:	eb 13                	jmp    0x14000adc6
   14000adb3:	45 33 c0             	xor    r8d,r8d
   14000adb6:	33 d2                	xor    edx,edx
   14000adb8:	48 8b c8             	mov    rcx,rax
   14000adbb:	ff 15 87 02 00 00    	call   QWORD PTR [rip+0x287]        # 0x14000b048
   14000adc1:	b8 16 00 00 c0       	mov    eax,0xc0000016
   14000adc6:	48 83 c4 28          	add    rsp,0x28
   14000adca:	c3                   	ret

Disassembly of section INIT:

0000000140011000 <INIT>:
   140011000:	40 55                	rex push rbp
   140011002:	48 8d 6c 24 a9       	lea    rbp,[rsp-0x57]
   140011007:	48 81 ec a0 00 00 00 	sub    rsp,0xa0
   14001100e:	48 83 25 fa df ff ff 	and    QWORD PTR [rip+0xffffffffffffdffa],0x0        # 0x14000f010
   140011015:	00 
   140011016:	48 8d 05 e3 7f ff ff 	lea    rax,[rip+0xffffffffffff7fe3]        # 0x140009000
   14001101d:	83 65 fb 00          	and    DWORD PTR [rbp-0x5],0x0
   140011021:	4c 8d 45 77          	lea    r8,[rbp+0x77]
   140011025:	83 65 0f 00          	and    DWORD PTR [rbp+0xf],0x0
   140011029:	45 33 c9             	xor    r9d,r9d
   14001102c:	48 89 45 ff          	mov    QWORD PTR [rbp-0x1],rax
   140011030:	48 8d 05 49 02 ff ff 	lea    rax,[rip+0xffffffffffff0249]        # 0x140001280
   140011037:	4c 89 44 24 28       	mov    QWORD PTR [rsp+0x28],r8
   14001103c:	4c 8d 45 f7          	lea    r8,[rbp-0x9]
   140011040:	48 89 45 07          	mov    QWORD PTR [rbp+0x7],rax
   140011044:	48 8b 05 9d df ff ff 	mov    rax,QWORD PTR [rip+0xffffffffffffdf9d]        # 0x14000efe8
   14001104b:	4c 89 44 24 20       	mov    QWORD PTR [rsp+0x20],r8
   140011050:	4c 8b c2             	mov    r8,rdx
   140011053:	c7 45 f7 20 00 00 00 	mov    DWORD PTR [rbp-0x9],0x20
   14001105a:	48 8b d1             	mov    rdx,rcx
   14001105d:	48 8b 0d 8c df ff ff 	mov    rcx,QWORD PTR [rip+0xffffffffffffdf8c]        # 0x14000eff0
   140011064:	c7 45 13 42 54 4d 54 	mov    DWORD PTR [rbp+0x13],0x544d5442
   14001106b:	48 8b 80 a0 03 00 00 	mov    rax,QWORD PTR [rax+0x3a0]
   140011072:	ff 15 c8 a0 ff ff    	call   QWORD PTR [rip+0xffffffffffffa0c8]        # 0x14000b140
   140011078:	85 c0                	test   eax,eax
   14001107a:	78 74                	js     0x1400110f0
   14001107c:	48 8b 05 65 df ff ff 	mov    rax,QWORD PTR [rip+0xffffffffffffdf65]        # 0x14000efe8
   140011083:	4c 8d 05 7e df ff ff 	lea    r8,[rip+0xffffffffffffdf7e]        # 0x14000f008
   14001108a:	48 8b 0d 5f df ff ff 	mov    rcx,QWORD PTR [rip+0xffffffffffffdf5f]        # 0x14000eff0
   140011091:	33 d2                	xor    edx,edx
   140011093:	48 8b 80 d8 09 00 00 	mov    rax,QWORD PTR [rax+0x9d8]
   14001109a:	ff 15 a0 a0 ff ff    	call   QWORD PTR [rip+0xffffffffffffa0a0]        # 0x14000b140
   1400110a0:	85 c0                	test   eax,eax
   1400110a2:	78 4c                	js     0x1400110f0
   1400110a4:	33 d2                	xor    edx,edx
   1400110a6:	48 8d 4d 17          	lea    rcx,[rbp+0x17]
   1400110aa:	44 8d 42 38          	lea    r8d,[rdx+0x38]
   1400110ae:	e8 8d 6c ff ff       	call   0x140007d40
   1400110b3:	48 8b 0d 36 df ff ff 	mov    rcx,QWORD PTR [rip+0xffffffffffffdf36]        # 0x14000eff0
   1400110ba:	4c 8d 05 57 df ff ff 	lea    r8,[rip+0xffffffffffffdf57]        # 0x14000f018
   1400110c1:	b8 01 00 00 00       	mov    eax,0x1
   1400110c6:	c7 45 17 38 00 00 00 	mov    DWORD PTR [rbp+0x17],0x38
   1400110cd:	89 45 2f             	mov    DWORD PTR [rbp+0x2f],eax
   1400110d0:	48 8d 55 17          	lea    rdx,[rbp+0x17]
   1400110d4:	89 45 33             	mov    DWORD PTR [rbp+0x33],eax
   1400110d7:	48 8b 45 77          	mov    rax,QWORD PTR [rbp+0x77]
   1400110db:	48 89 45 37          	mov    QWORD PTR [rbp+0x37],rax
   1400110df:	48 8b 05 02 df ff ff 	mov    rax,QWORD PTR [rip+0xffffffffffffdf02]        # 0x14000efe8
   1400110e6:	48 8b 40 68          	mov    rax,QWORD PTR [rax+0x68]
   1400110ea:	ff 15 50 a0 ff ff    	call   QWORD PTR [rip+0xffffffffffffa050]        # 0x14000b140
   1400110f0:	48 81 c4 a0 00 00 00 	add    rsp,0xa0
   1400110f7:	5d                   	pop    rbp
   1400110f8:	c3                   	ret
   1400110f9:	cc                   	int3
   1400110fa:	cc                   	int3
   1400110fb:	cc                   	int3

=== HIT at line 10351 ===
   1400113f1:	74 65                	je     0x140011458
   1400113f3:	6d                   	ins    DWORD PTR es:[rdi],dx
   1400113f4:	54                   	push   rsp
   1400113f5:	68 72 65 61 64       	push   0x64616572
   1400113fa:	00 00                	add    BYTE PTR [rax],al
   1400113fc:	0f 07                	sysretd
   1400113fe:	50                   	push   rax
   1400113ff:	73 54                	jae    0x140011455
   140011401:	65 72 6d             	gs jb  0x140011471
   140011404:	69 6e 61 74 65 53 79 	imul   ebp,DWORD PTR [rsi+0x61],0x79536574
   14001140b:	73 74                	jae    0x140011481
   14001140d:	65 6d                	gs ins DWORD PTR es:[rdi],dx
   14001140f:	54                   	push   rsp
   140011410:	68 72 65 61 64       	push   0x64616572
   140011415:	00 77 02             	add    BYTE PTR [rdi+0x2],dh
   140011418:	49 6f                	rex.WB outs dx,DWORD PTR ds:[rsi]
   14001141a:	42 75 69             	rex.X jne 0x140011486
   14001141d:	6c                   	ins    BYTE PTR es:[rdi],dx
   14001141e:	64 44                	fs rex.R
   140011420:	65 76 69             	gs jbe 0x14001148c
   140011423:	63 65 49             	movsxd esp,DWORD PTR [rbp+0x49]
   140011426:	6f                   	outs   dx,DWORD PTR ds:[rsi]
   140011427:	43 6f                	rex.XB outs dx,DWORD PTR ds:[rsi]
   140011429:	6e                   	outs   dx,BYTE PTR ds:[rsi]
   14001142a:	74 72                	je     0x14001149e
   14001142c:	6f                   	outs   dx,DWORD PTR ds:[rsi]
   14001142d:	6c                   	ins    BYTE PTR es:[rdi],dx
   14001142e:	52                   	push   rdx
   14001142f:	65 71 75             	gs jno 0x1400114a7
   140011432:	65 73 74             	gs jae 0x1400114a9
   140011435:	00 a9 03 49 6f 66    	add    BYTE PTR [rcx+0x666f4903],ch
   14001143b:	43 61                	rex.XB (bad)
   14001143d:	6c                   	ins    BYTE PTR es:[rdi],dx
   14001143e:	6c                   	ins    BYTE PTR es:[rdi],dx
   14001143f:	44 72 69             	rex.R jb 0x1400114ab
   140011442:	76 65                	jbe    0x1400114a9
   140011444:	72 00                	jb     0x140011446
   140011446:	be 02 49 6f 46       	mov    esi,0x466f4902
   14001144b:	72 65                	jb     0x1400114b2
   14001144d:	65 49 72 70          	gs rex.WB jb 0x1400114c1
   140011451:	00 ce                	add    dh,cl
   140011453:	02 49 6f             	add    cl,BYTE PTR [rcx+0x6f]
   140011456:	47                   	rex.RXB
   140011457:	65 74 43             	gs je  0x14001149d
   14001145a:	75 72                	jne    0x1400114ce
   14001145c:	72 65                	jb     0x1400114c3
   14001145e:	6e                   	outs   dx,BYTE PTR ds:[rsi]
   14001145f:	74 50                	je     0x1400114b1
   140011461:	72 6f                	jb     0x1400114d2
   140011463:	63 65 73             	movsxd esp,DWORD PTR [rbp+0x73]
   140011466:	73 00                	jae    0x140011468
   140011468:	d5 02 49             	{rex2 0x2} dec ecx
   14001146b:	6f                   	outs   dx,DWORD PTR ds:[rsi]
   14001146c:	47                   	rex.RXB
   14001146d:	65 74 44             	gs je  0x1400114b4
   140011470:	65 76 69             	gs jbe 0x1400114dc
   140011473:	63 65 4f             	movsxd esp,DWORD PTR [rbp+0x4f]
   140011476:	62 6a 65 63 74       	(bad)
   14001147b:	50                   	push   rax
   14001147c:	6f                   	outs   dx,DWORD PTR ds:[rsi]
   14001147d:	69 6e 74 65 72 00 00 	imul   ebp,DWORD PTR [rsi+0x74],0x7265
   140011484:	e8 05 4f 62 52       	call   0x19263638e
   140011489:	65 66 65 72 65       	gs data16 gs jb 0x1400114f3
   14001148e:	6e                   	outs   dx,BYTE PTR ds:[rsi]
   14001148f:	63 65 4f             	movsxd esp,DWORD PTR [rbp+0x4f]
   140011492:	62 6a 65 63 74       	(bad)
   140011497:	42 79 48             	rex.X jns 0x1400114e2
   14001149a:	61                   	(bad)
   14001149b:	6e                   	outs   dx,BYTE PTR ds:[rsi]
   14001149c:	64 6c                	fs ins BYTE PTR es:[rdi],dx
   14001149e:	65 00 f8             	gs add al,bh
   1400114a1:	05 4f 62 66 44       	add    eax,0x4466624f
   1400114a6:	65 72 65             	gs jb  0x14001150e
   1400114a9:	66 65 72 65          	data16 gs jb 0x140011512
   1400114ad:	6e                   	outs   dx,BYTE PTR ds:[rsi]
   1400114ae:	63 65 4f             	movsxd esp,DWORD PTR [rbp+0x4f]
   1400114b1:	62 6a 65 63 74       	(bad)
   1400114b6:	00 00                	add    BYTE PTR [rax],al
   1400114b8:	e3 09                	jrcxz  0x1400114c3
   1400114ba:	5a                   	pop    rdx
   1400114bb:	77 43                	ja     0x140011500

=== HIT at line 10443 ===
   1400114cf:	69 64 54 6f 55 6e 69 	imul   esp,DWORD PTR [rsp+rdx*2+0x6f],0x63696e55
   1400114d6:	63 
   1400114d7:	6f                   	outs   dx,DWORD PTR ds:[rsi]
   1400114d8:	64 65 53             	fs gs push rbx
   1400114db:	74 72                	je     0x14001154f
   1400114dd:	69 6e 67 00 00 e2 06 	imul   ebp,DWORD PTR [rsi+0x67],0x6e20000
   1400114e4:	50                   	push   rax
   1400114e5:	73 52                	jae    0x140011539
   1400114e7:	65 66 65 72 65       	gs data16 gs jb 0x140011551
   1400114ec:	6e                   	outs   dx,BYTE PTR ds:[rsi]
   1400114ed:	63 65 50             	movsxd esp,DWORD PTR [rbp+0x50]
   1400114f0:	72 69                	jb     0x14001155b
   1400114f2:	6d                   	ins    DWORD PTR es:[rdi],dx
   1400114f3:	61                   	(bad)
   1400114f4:	72 79                	jb     0x14001156f
   1400114f6:	54                   	push   rsp
   1400114f7:	6f                   	outs   dx,DWORD PTR ds:[rsi]
   1400114f8:	6b 65 6e 00          	imul   esp,DWORD PTR [rbp+0x6e],0x0
   1400114fc:	e3 05                	jrcxz  0x140011503
   1400114fe:	4f 62 4f 70 65 6e    	(bad)
   140011504:	4f 62 6a 65 63 74    	(bad)
   14001150a:	42 79 50             	rex.X jns 0x14001155d
   14001150d:	6f                   	outs   dx,DWORD PTR ds:[rsi]
   14001150e:	69 6e 74 65 72 00 5e 	imul   ebp,DWORD PTR [rsi+0x74],0x5e007265
   140011515:	0a 5a 77             	or     bl,BYTE PTR [rdx+0x77]
   140011518:	51                   	push   rcx
   140011519:	75 65                	jne    0x140011580
   14001151b:	72 79                	jb     0x140011596
   14001151d:	49 6e                	rex.WB outs dx,BYTE PTR ds:[rsi]
   14001151f:	66 6f                	outs   dx,WORD PTR ds:[rsi]
   140011521:	72 6d                	jb     0x140011590
   140011523:	61                   	(bad)
   140011524:	74 69                	je     0x14001158f
   140011526:	6f                   	outs   dx,DWORD PTR ds:[rsi]
   140011527:	6e                   	outs   dx,BYTE PTR ds:[rsi]
   140011528:	54                   	push   rsp
   140011529:	6f                   	outs   dx,DWORD PTR ds:[rsi]
   14001152a:	6b 65 6e 00          	imul   esp,DWORD PTR [rbp+0x6e],0x0
   14001152e:	69 02 49 6f 41 6c    	imul   eax,DWORD PTR [rdx],0x6c416f49
   140011534:	6c                   	ins    BYTE PTR es:[rdi],dx
   140011535:	6f                   	outs   dx,DWORD PTR ds:[rsi]
   140011536:	63 61 74             	movsxd esp,DWORD PTR [rcx+0x74]
   140011539:	65 49 72 70          	gs rex.WB jb 0x1400115ad
   14001153d:	00 11                	add    BYTE PTR [rcx],dl
   14001153f:	0b 73 71             	or     esi,DWORD PTR [rbx+0x71]
   140011542:	72 74                	jb     0x1400115b8
   140011544:	00 00                	add    BYTE PTR [rax],al
   140011546:	6e                   	outs   dx,BYTE PTR ds:[rsi]
   140011547:	74 6f                	je     0x1400115b8
   140011549:	73 6b                	jae    0x1400115b6
   14001154b:	72 6e                	jb     0x1400115bb
   14001154d:	6c                   	ins    BYTE PTR es:[rdi],dx
   14001154e:	2e 65 78 65          	cs gs js 0x1400115b7
   140011552:	00 00                	add    BYTE PTR [rax],al
   140011554:	bb 0a 5f 5f 43       	mov    ebx,0x435f5f0a
   140011559:	5f                   	pop    rdi
   14001155a:	73 70                	jae    0x1400115cc
   14001155c:	65 63 69 66          	movsxd ebp,DWORD PTR gs:[rcx+0x66]
   140011560:	69 63 5f 68 61 6e 64 	imul   esp,DWORD PTR [rbx+0x5f],0x646e6168
   140011567:	6c                   	ins    BYTE PTR es:[rdi],dx
   140011568:	65 72 00             	gs jb  0x14001156b
   14001156b:	00 81 08 52 74 6c    	add    BYTE PTR [rcx+0x6c745208],al
   140011571:	52                   	push   rdx
   140011572:	61                   	(bad)
   140011573:	69 73 65 45 78 63 65 	imul   esi,DWORD PTR [rbx+0x65],0x65637845
   14001157a:	70 74                	jo     0x1400115f0
   14001157c:	69 6f 6e 00 60 07 52 	imul   ebp,DWORD PTR [rdi+0x6e],0x52076000
   140011583:	74 6c                	je     0x1400115f1
   140011585:	43 6f                	rex.XB outs dx,DWORD PTR ds:[rsi]
   140011587:	70 79                	jo     0x140011602
   140011589:	55                   	push   rbp
   14001158a:	6e                   	outs   dx,BYTE PTR ds:[rsi]
   14001158b:	69 63 6f 64 65 53 74 	imul   esp,DWORD PTR [rbx+0x6f],0x74536564
   140011592:	72 69                	jb     0x1400115fd
   140011594:	6e                   	outs   dx,BYTE PTR ds:[rsi]
   140011595:	67 00 00             	add    BYTE PTR [eax],al
   140011598:	06                   	(bad)
   140011599:	00 57 64             	add    BYTE PTR [rdi+0x64],dl
   14001159c:	66 56                	push   si
   14001159e:	65 72 73             	gs jb  0x140011614
   1400115a1:	69 6f 6e 42 69 6e 64 	imul   ebp,DWORD PTR [rdi+0x6e],0x646e6942

