
/mnt/c/Windows/System32/drivers/applewirelessmouse.sys:     file format pei-x86-64


Disassembly of section .text:

0000000140001000 <.text>:
   140001000:	4c 8b dc             	mov    r11,rsp
   140001003:	49 89 5b 08          	mov    QWORD PTR [r11+0x8],rbx
   140001007:	57                   	push   rdi
   140001008:	48 83 ec 40          	sub    rsp,0x40
   14000100c:	49 89 4b e8          	mov    QWORD PTR [r11-0x18],rcx
   140001010:	48 8d 99 09 01 00 00 	lea    rbx,[rcx+0x109]
   140001017:	48 8d 05 72 00 00 00 	lea    rax,[rip+0x72]        # 0x140001090
   14000101e:	48 8b f9             	mov    rdi,rcx
   140001021:	49 89 43 e0          	mov    QWORD PTR [r11-0x20],rax
   140001025:	48 8b cb             	mov    rcx,rbx
   140001028:	49 83 63 d8 00       	and    QWORD PTR [r11-0x28],0x0
   14000102d:	45 33 c9             	xor    r9d,r9d
   140001030:	45 33 c0             	xor    r8d,r8d
   140001033:	33 d2                	xor    edx,edx
   140001035:	ff 15 35 a0 00 00    	call   QWORD PTR [rip+0xa035]        # 0x14000b070
   14000103b:	85 c0                	test   eax,eax
   14000103d:	79 07                	jns    0x140001046
   14000103f:	b8 9a 00 00 c0       	mov    eax,0xc000009a
   140001044:	eb 31                	jmp    0x140001077
   140001046:	48 83 64 24 28 00    	and    QWORD PTR [rsp+0x28],0x0
   14000104c:	48 8d 87 01 01 00 00 	lea    rax,[rdi+0x101]
   140001053:	48 8b 0b             	mov    rcx,QWORD PTR [rbx]
   140001056:	45 33 c9             	xor    r9d,r9d
   140001059:	45 33 c0             	xor    r8d,r8d
   14000105c:	48 89 44 24 20       	mov    QWORD PTR [rsp+0x20],rax
   140001061:	ba ff ff 1f 00       	mov    edx,0x1fffff
   140001066:	ff 15 3c a0 00 00    	call   QWORD PTR [rip+0xa03c]        # 0x14000b0a8
   14000106c:	48 8b 0b             	mov    rcx,QWORD PTR [rbx]
   14000106f:	ff 15 43 a0 00 00    	call   QWORD PTR [rip+0xa043]        # 0x14000b0b8
   140001075:	33 c0                	xor    eax,eax
   140001077:	48 8b 5c 24 50       	mov    rbx,QWORD PTR [rsp+0x50]
   14000107c:	48 83 c4 40          	add    rsp,0x40
   140001080:	5f                   	pop    rdi
   140001081:	c3                   	ret
   140001082:	cc                   	int3
   140001083:	cc                   	int3
   140001084:	cc                   	int3
   140001085:	cc                   	int3
   140001086:	cc                   	int3
   140001087:	cc                   	int3
   140001088:	cc                   	int3
   140001089:	cc                   	int3
   14000108a:	cc                   	int3
   14000108b:	cc                   	int3
   14000108c:	cc                   	int3
   14000108d:	cc                   	int3
   14000108e:	cc                   	int3
   14000108f:	cc                   	int3
   140001090:	4c 8b dc             	mov    r11,rsp
   140001093:	49 89 5b 10          	mov    QWORD PTR [r11+0x10],rbx
   140001097:	49 89 6b 18          	mov    QWORD PTR [r11+0x18],rbp
   14000109b:	56                   	push   rsi
   14000109c:	57                   	push   rdi
   14000109d:	41 54                	push   r12
   14000109f:	41 56                	push   r14
   1400010a1:	41 57                	push   r15
   1400010a3:	48 81 ec a0 00 00 00 	sub    rsp,0xa0
   1400010aa:	48 8b 05 bf b4 00 00 	mov    rax,QWORD PTR [rip+0xb4bf]        # 0x14000c570
   1400010b1:	48 33 c4             	xor    rax,rsp
   1400010b4:	48 89 84 24 90 00 00 	mov    QWORD PTR [rsp+0x90],rax
   1400010bb:	00 
   1400010bc:	48 8d 41 29          	lea    rax,[rcx+0x29]
   1400010c0:	ba b0 01 00 00       	mov    edx,0x1b0
   1400010c5:	48 89 44 24 40       	mov    QWORD PTR [rsp+0x40],rax
   1400010ca:	48 8d b1 89 00 00 00 	lea    rsi,[rcx+0x89]
   1400010d1:	48 8d 41 41          	lea    rax,[rcx+0x41]
   1400010d5:	49 89 73 98          	mov    QWORD PTR [r11-0x68],rsi
   1400010d9:	49 89 43 80          	mov    QWORD PTR [r11-0x80],rax
   1400010dd:	48 8d a9 a1 00 00 00 	lea    rbp,[rcx+0xa1]
   1400010e4:	48 8d 41 59          	lea    rax,[rcx+0x59]
   1400010e8:	49 89 6b a0          	mov    QWORD PTR [r11-0x60],rbp
   1400010ec:	4c 8d b1 b9 00 00 00 	lea    r14,[rcx+0xb9]
   1400010f3:	49 89 43 88          	mov    QWORD PTR [r11-0x78],rax
   1400010f7:	48 8d 41 71          	lea    rax,[rcx+0x71]
   1400010fb:	4d 89 73 a8          	mov    QWORD PTR [r11-0x58],r14
   1400010ff:	4c 8d b9 d1 00 00 00 	lea    r15,[rcx+0xd1]
   140001106:	49 89 43 90          	mov    QWORD PTR [r11-0x70],rax
   14000110a:	4c 8d a1 e9 00 00 00 	lea    r12,[rcx+0xe9]
   140001111:	4d 89 7b b0          	mov    QWORD PTR [r11-0x50],r15
   140001115:	48 8b d9             	mov    rbx,rcx
   140001118:	4d 89 63 b8          	mov    QWORD PTR [r11-0x48],r12
   14000111c:	8d 4a 50             	lea    ecx,[rdx+0x50]
   14000111f:	41 b8 42 54 4d 54    	mov    r8d,0x544d5442
   140001125:	ff 15 35 9f 00 00    	call   QWORD PTR [rip+0x9f35]        # 0x14000b060
   14000112b:	48 8b f8             	mov    rdi,rax
   14000112e:	48 85 c0             	test   rax,rax
   140001131:	0f 84 18 01 00 00    	je     0x14000124f
   140001137:	45 33 c9             	xor    r9d,r9d
   14000113a:	48 89 7c 24 38       	mov    QWORD PTR [rsp+0x38],rdi
   14000113f:	48 83 64 24 30 00    	and    QWORD PTR [rsp+0x30],0x0
   140001145:	48 8d 54 24 40       	lea    rdx,[rsp+0x40]
   14000114a:	c6 44 24 28 00       	mov    BYTE PTR [rsp+0x28],0x0
   14000114f:	c6 44 24 20 00       	mov    BYTE PTR [rsp+0x20],0x0
   140001154:	45 8d 41 01          	lea    r8d,[r9+0x1]
   140001158:	41 8d 49 09          	lea    ecx,[r9+0x9]
   14000115c:	ff 15 ee 9e 00 00    	call   QWORD PTR [rip+0x9eee]        # 0x14000b050
   140001162:	85 c0                	test   eax,eax
   140001164:	0f 84 cf 00 00 00    	je     0x140001239
   14000116a:	83 f8 01             	cmp    eax,0x1
   14000116d:	75 32                	jne    0x1400011a1
   14000116f:	8a d0                	mov    dl,al
   140001171:	48 8b cb             	mov    rcx,rbx
   140001174:	e8 3b 14 00 00       	call   0x1400025b4
   140001179:	44 8a 83 0b 18 00 00 	mov    r8b,BYTE PTR [rbx+0x180b]
   140001180:	48 8b cb             	mov    rcx,rbx
   140001183:	8a 93 0a 18 00 00    	mov    dl,BYTE PTR [rbx+0x180a]
   140001189:	e8 da 0d 00 00       	call   0x140001f68
   14000118e:	80 bb 2c 18 00 00 00 	cmp    BYTE PTR [rbx+0x182c],0x0
   140001195:	75 a0                	jne    0x140001137
   140001197:	48 8b cb             	mov    rcx,rbx
   14000119a:	e8 05 17 00 00       	call   0x1400028a4
   14000119f:	eb 96                	jmp    0x140001137
   1400011a1:	83 f8 02             	cmp    eax,0x2
   1400011a4:	75 0c                	jne    0x1400011b2
   1400011a6:	33 d2                	xor    edx,edx
   1400011a8:	48 8b cb             	mov    rcx,rbx
   1400011ab:	e8 04 14 00 00       	call   0x1400025b4
   1400011b0:	eb 85                	jmp    0x140001137
   1400011b2:	83 f8 03             	cmp    eax,0x3
   1400011b5:	75 0d                	jne    0x1400011c4
   1400011b7:	48 8b cb             	mov    rcx,rbx
   1400011ba:	e8 39 11 00 00       	call   0x1400022f8
   1400011bf:	e9 73 ff ff ff       	jmp    0x140001137
   1400011c4:	83 f8 04             	cmp    eax,0x4
   1400011c7:	75 10                	jne    0x1400011d9
   1400011c9:	48 8b ce             	mov    rcx,rsi
   1400011cc:	ff 15 6e 9e 00 00    	call   QWORD PTR [rip+0x9e6e]        # 0x14000b040
   1400011d2:	b9 cc 20 03 b4       	mov    ecx,0xb40320cc
   1400011d7:	eb 56                	jmp    0x14000122f
   1400011d9:	83 f8 05             	cmp    eax,0x5
   1400011dc:	75 10                	jne    0x1400011ee
   1400011de:	48 8b cd             	mov    rcx,rbp
   1400011e1:	ff 15 59 9e 00 00    	call   QWORD PTR [rip+0x9e59]        # 0x14000b040
   1400011e7:	b9 d4 20 03 b4       	mov    ecx,0xb40320d4
   1400011ec:	eb 41                	jmp    0x14000122f
   1400011ee:	83 f8 06             	cmp    eax,0x6
   1400011f1:	75 10                	jne    0x140001203
   1400011f3:	49 8b ce             	mov    rcx,r14
   1400011f6:	ff 15 44 9e 00 00    	call   QWORD PTR [rip+0x9e44]        # 0x14000b040
   1400011fc:	b9 fc 20 03 b4       	mov    ecx,0xb40320fc
   140001201:	eb 2c                	jmp    0x14000122f
   140001203:	83 f8 07             	cmp    eax,0x7
   140001206:	75 10                	jne    0x140001218
   140001208:	49 8b cf             	mov    rcx,r15
   14000120b:	ff 15 2f 9e 00 00    	call   QWORD PTR [rip+0x9e2f]        # 0x14000b040
   140001211:	b9 04 21 03 b4       	mov    ecx,0xb4032104
   140001216:	eb 17                	jmp    0x14000122f
   140001218:	83 f8 08             	cmp    eax,0x8
   14000121b:	0f 85 16 ff ff ff    	jne    0x140001137
   140001221:	49 8b cc             	mov    rcx,r12
   140001224:	ff 15 16 9e 00 00    	call   QWORD PTR [rip+0x9e16]        # 0x14000b040
   14000122a:	b9 0c 21 03 b4       	mov    ecx,0xb403210c
   14000122f:	e8 c8 0b 00 00       	call   0x140001dfc
   140001234:	e9 fe fe ff ff       	jmp    0x140001137
   140001239:	ba 42 54 4d 54       	mov    edx,0x544d5442
   14000123e:	48 8b cf             	mov    rcx,rdi
   140001241:	ff 15 21 9e 00 00    	call   QWORD PTR [rip+0x9e21]        # 0x14000b068
   140001247:	33 c9                	xor    ecx,ecx
   140001249:	ff 15 29 9e 00 00    	call   QWORD PTR [rip+0x9e29]        # 0x14000b078
   14000124f:	48 8b 8c 24 90 00 00 	mov    rcx,QWORD PTR [rsp+0x90]
   140001256:	00 
   140001257:	48 33 cc             	xor    rcx,rsp
   14000125a:	e8 c1 5a 00 00       	call   0x140006d20
   14000125f:	4c 8d 9c 24 a0 00 00 	lea    r11,[rsp+0xa0]
   140001266:	00 
   140001267:	49 8b 5b 38          	mov    rbx,QWORD PTR [r11+0x38]
   14000126b:	49 8b 6b 40          	mov    rbp,QWORD PTR [r11+0x40]
   14000126f:	49 8b e3             	mov    rsp,r11
   140001272:	41 5f                	pop    r15
   140001274:	41 5e                	pop    r14
   140001276:	41 5c                	pop    r12
   140001278:	5f                   	pop    rdi
   140001279:	5e                   	pop    rsi
   14000127a:	c3                   	ret
   14000127b:	cc                   	int3
   14000127c:	cc                   	int3
   14000127d:	cc                   	int3
   14000127e:	cc                   	int3
   14000127f:	cc                   	int3
   140001280:	48 83 ec 28          	sub    rsp,0x28
   140001284:	48 8b 05 5d dd 00 00 	mov    rax,QWORD PTR [rip+0xdd5d]        # 0x14000efe8
   14000128b:	48 8b d1             	mov    rdx,rcx
   14000128e:	48 8b 0d 5b dd 00 00 	mov    rcx,QWORD PTR [rip+0xdd5b]        # 0x14000eff0
   140001295:	48 8b 80 b0 03 00 00 	mov    rax,QWORD PTR [rax+0x3b0]
   14000129c:	ff 15 9e 9e 00 00    	call   QWORD PTR [rip+0x9e9e]        # 0x14000b140
   1400012a2:	48 8b 15 67 dd 00 00 	mov    rdx,QWORD PTR [rip+0xdd67]        # 0x14000f010
   1400012a9:	48 85 d2             	test   rdx,rdx
   1400012ac:	74 23                	je     0x1400012d1
   1400012ae:	48 8b 05 33 dd 00 00 	mov    rax,QWORD PTR [rip+0xdd33]        # 0x14000efe8
   1400012b5:	48 8b 0d 34 dd 00 00 	mov    rcx,QWORD PTR [rip+0xdd34]        # 0x14000eff0
   1400012bc:	48 8b 80 80 06 00 00 	mov    rax,QWORD PTR [rax+0x680]
   1400012c3:	ff 15 77 9e 00 00    	call   QWORD PTR [rip+0x9e77]        # 0x14000b140
   1400012c9:	48 83 25 3f dd 00 00 	and    QWORD PTR [rip+0xdd3f],0x0        # 0x14000f010
   1400012d0:	00 
   1400012d1:	48 83 c4 28          	add    rsp,0x28
   1400012d5:	c3                   	ret
   1400012d6:	cc                   	int3
   1400012d7:	cc                   	int3
   1400012d8:	48 89 5c 24 10       	mov    QWORD PTR [rsp+0x10],rbx
   1400012dd:	48 89 74 24 18       	mov    QWORD PTR [rsp+0x18],rsi
   1400012e2:	55                   	push   rbp
   1400012e3:	57                   	push   rdi
   1400012e4:	41 56                	push   r14
   1400012e6:	48 8d ac 24 50 ff ff 	lea    rbp,[rsp-0xb0]
   1400012ed:	ff 
   1400012ee:	48 81 ec b0 01 00 00 	sub    rsp,0x1b0
   1400012f5:	48 8b 05 74 b2 00 00 	mov    rax,QWORD PTR [rip+0xb274]        # 0x14000c570
   1400012fc:	48 33 c4             	xor    rax,rsp
   1400012ff:	48 89 85 a0 00 00 00 	mov    QWORD PTR [rbp+0xa0],rax
   140001306:	0f b7 05 f3 6e 00 00 	movzx  eax,WORD PTR [rip+0x6ef3]        # 0x140008200
   14000130d:	48 8b f9             	mov    rdi,rcx
   140001310:	0f 28 05 a9 6e 00 00 	movaps xmm0,XMMWORD PTR [rip+0x6ea9]        # 0x1400081c0
   140001317:	33 f6                	xor    esi,esi
   140001319:	0f 28 0d b0 6e 00 00 	movaps xmm1,XMMWORD PTR [rip+0x6eb0]        # 0x1400081d0
   140001320:	48 8b 15 e1 dc 00 00 	mov    rdx,QWORD PTR [rip+0xdce1]        # 0x14000f008
   140001327:	48 8b 0d c2 dc 00 00 	mov    rcx,QWORD PTR [rip+0xdcc2]        # 0x14000eff0
   14000132e:	66 89 85 90 00 00 00 	mov    WORD PTR [rbp+0x90],ax
   140001335:	48 8d 45 50          	lea    rax,[rbp+0x50]
   140001339:	0f 29 45 50          	movaps XMMWORD PTR [rbp+0x50],xmm0
   14000133d:	0f 28 05 9c 6e 00 00 	movaps xmm0,XMMWORD PTR [rip+0x6e9c]        # 0x1400081e0
   140001344:	48 89 44 24 48       	mov    QWORD PTR [rsp+0x48],rax
   140001349:	0f b7 05 08 6f 00 00 	movzx  eax,WORD PTR [rip+0x6f08]        # 0x140008258
   140001350:	0f 29 4d 60          	movaps XMMWORD PTR [rbp+0x60],xmm1
   140001354:	0f 28 0d 95 6e 00 00 	movaps xmm1,XMMWORD PTR [rip+0x6e95]        # 0x1400081f0
   14000135b:	0f 29 45 70          	movaps XMMWORD PTR [rbp+0x70],xmm0
   14000135f:	0f 28 05 aa 6e 00 00 	movaps xmm0,XMMWORD PTR [rip+0x6eaa]        # 0x140008210
   140001366:	66 89 45 48          	mov    WORD PTR [rbp+0x48],ax
   14000136a:	48 8d 45 00          	lea    rax,[rbp+0x0]
   14000136e:	0f 29 8d 80 00 00 00 	movaps XMMWORD PTR [rbp+0x80],xmm1
   140001375:	0f 28 0d a4 6e 00 00 	movaps xmm1,XMMWORD PTR [rip+0x6ea4]        # 0x140008220
   14000137c:	0f 29 45 00          	movaps XMMWORD PTR [rbp+0x0],xmm0
   140001380:	0f 28 05 a9 6e 00 00 	movaps xmm0,XMMWORD PTR [rip+0x6ea9]        # 0x140008230
   140001387:	48 89 44 24 58       	mov    QWORD PTR [rsp+0x58],rax
   14000138c:	48 8b 05 55 dc 00 00 	mov    rax,QWORD PTR [rip+0xdc55]        # 0x14000efe8
   140001393:	0f 29 4d 10          	movaps XMMWORD PTR [rbp+0x10],xmm1
   140001397:	0f 28 0d a2 6e 00 00 	movaps xmm1,XMMWORD PTR [rip+0x6ea2]        # 0x140008240
   14000139e:	0f 29 45 20          	movaps XMMWORD PTR [rbp+0x20],xmm0
   1400013a2:	f2 0f 10 05 a6 6e 00 	movsd  xmm0,QWORD PTR [rip+0x6ea6]        # 0x140008250
   1400013a9:	00 
   1400013aa:	48 89 74 24 30       	mov    QWORD PTR [rsp+0x30],rsi
   1400013af:	c7 44 24 40 40 00 42 	mov    DWORD PTR [rsp+0x40],0x420040
   1400013b6:	00 
   1400013b7:	0f 29 4d 30          	movaps XMMWORD PTR [rbp+0x30],xmm1
   1400013bb:	f2 0f 11 45 40       	movsd  QWORD PTR [rbp+0x40],xmm0
   1400013c0:	c7 44 24 50 48 00 4a 	mov    DWORD PTR [rsp+0x50],0x4a0048
   1400013c7:	00 
   1400013c8:	48 8b 80 e0 09 00 00 	mov    rax,QWORD PTR [rax+0x9e0]
   1400013cf:	ff 15 6b 9d 00 00    	call   QWORD PTR [rip+0x9d6b]        # 0x14000b140
   1400013d5:	48 8b 05 0c dc 00 00 	mov    rax,QWORD PTR [rip+0xdc0c]        # 0x14000efe8
   1400013dc:	48 8b 15 35 dc 00 00 	mov    rdx,QWORD PTR [rip+0xdc35]        # 0x14000f018
   1400013e3:	48 8b 0d 06 dc 00 00 	mov    rcx,QWORD PTR [rip+0xdc06]        # 0x14000eff0
   1400013ea:	48 8b 40 70          	mov    rax,QWORD PTR [rax+0x70]
   1400013ee:	ff 15 4c 9d 00 00    	call   QWORD PTR [rip+0x9d4c]        # 0x14000b140
   1400013f4:	48 8b 15 0d dc 00 00 	mov    rdx,QWORD PTR [rip+0xdc0d]        # 0x14000f008
   1400013fb:	44 8d 76 01          	lea    r14d,[rsi+0x1]
   1400013ff:	48 8b 0d ea db 00 00 	mov    rcx,QWORD PTR [rip+0xdbea]        # 0x14000eff0
   140001406:	41 3b c6             	cmp    eax,r14d
   140001409:	48 8b 05 d8 db 00 00 	mov    rax,QWORD PTR [rip+0xdbd8]        # 0x14000efe8
   140001410:	40 0f b6 de          	movzx  ebx,sil
   140001414:	41 0f 44 de          	cmove  ebx,r14d
   140001418:	48 8b 80 e8 09 00 00 	mov    rax,QWORD PTR [rax+0x9e8]
   14000141f:	ff 15 1b 9d 00 00    	call   QWORD PTR [rip+0x9d1b]        # 0x14000b140
   140001425:	84 db                	test   bl,bl
   140001427:	75 07                	jne    0x140001430
   140001429:	33 c0                	xor    eax,eax
   14000142b:	e9 1c 02 00 00       	jmp    0x14000164c
   140001430:	48 8b 05 b1 db 00 00 	mov    rax,QWORD PTR [rip+0xdbb1]        # 0x14000efe8
   140001437:	48 8b d7             	mov    rdx,rdi
   14000143a:	48 8b 0d af db 00 00 	mov    rcx,QWORD PTR [rip+0xdbaf]        # 0x14000eff0
   140001441:	48 8b 80 38 01 00 00 	mov    rax,QWORD PTR [rax+0x138]
   140001448:	ff 15 f2 9c 00 00    	call   QWORD PTR [rip+0x9cf2]        # 0x14000b140
   14000144e:	48 8b 0d 93 db 00 00 	mov    rcx,QWORD PTR [rip+0xdb93]        # 0x14000efe8
   140001455:	4c 8d 05 4c 9f 00 00 	lea    r8,[rip+0x9f4c]        # 0x14000b3a8
   14000145c:	48 8b d0             	mov    rdx,rax
   14000145f:	4c 8b 89 c8 00 00 00 	mov    r9,QWORD PTR [rcx+0xc8]
   140001466:	48 8b 0d 83 db 00 00 	mov    rcx,QWORD PTR [rip+0xdb83]        # 0x14000eff0
   14000146d:	49 8b c1             	mov    rax,r9
   140001470:	ff 15 ca 9c 00 00    	call   QWORD PTR [rip+0x9cca]        # 0x14000b140
   140001476:	48 89 44 24 38       	mov    QWORD PTR [rsp+0x38],rax
   14000147b:	48 8b d0             	mov    rdx,rax
   14000147e:	48 85 c0             	test   rax,rax
   140001481:	75 0a                	jne    0x14000148d
   140001483:	bb 9a 00 00 c0       	mov    ebx,0xc000009a
   140001488:	e9 98 01 00 00       	jmp    0x140001625
   14000148d:	48 8b 05 54 db 00 00 	mov    rax,QWORD PTR [rip+0xdb54]        # 0x14000efe8
   140001494:	45 33 c0             	xor    r8d,r8d
   140001497:	48 8b 0d 52 db 00 00 	mov    rcx,QWORD PTR [rip+0xdb52]        # 0x14000eff0
   14000149e:	48 8b 80 f0 01 00 00 	mov    rax,QWORD PTR [rax+0x1f0]
   1400014a5:	ff 15 95 9c 00 00    	call   QWORD PTR [rip+0x9c95]        # 0x14000b140
   1400014ab:	48 8b 05 36 db 00 00 	mov    rax,QWORD PTR [rip+0xdb36]        # 0x14000efe8
   1400014b2:	4c 8d 44 24 40       	lea    r8,[rsp+0x40]
   1400014b7:	48 8b 54 24 38       	mov    rdx,QWORD PTR [rsp+0x38]
   1400014bc:	48 8b 0d 2d db 00 00 	mov    rcx,QWORD PTR [rip+0xdb2d]        # 0x14000eff0
   1400014c3:	48 8b 80 18 02 00 00 	mov    rax,QWORD PTR [rax+0x218]
   1400014ca:	ff 15 70 9c 00 00    	call   QWORD PTR [rip+0x9c70]        # 0x14000b140
   1400014d0:	8b d8                	mov    ebx,eax
   1400014d2:	85 c0                	test   eax,eax
   1400014d4:	0f 88 26 01 00 00    	js     0x140001600
   1400014da:	bb 38 00 00 00       	mov    ebx,0x38
   1400014df:	48 8d 4c 24 68       	lea    rcx,[rsp+0x68]
   1400014e4:	44 8b c3             	mov    r8d,ebx
   1400014e7:	33 d2                	xor    edx,edx
   1400014e9:	e8 52 68 00 00       	call   0x140007d40
   1400014ee:	48 8b 05 4b ab 00 00 	mov    rax,QWORD PTR [rip+0xab4b]        # 0x14000c040
   1400014f5:	4c 8d 4c 24 30       	lea    r9,[rsp+0x30]
   1400014fa:	48 8b 0d ef da 00 00 	mov    rcx,QWORD PTR [rip+0xdaef]        # 0x14000eff0
   140001501:	4c 8d 44 24 68       	lea    r8,[rsp+0x68]
   140001506:	48 89 45 98          	mov    QWORD PTR [rbp-0x68],rax
   14000150a:	48 8d 54 24 38       	lea    rdx,[rsp+0x38]
   14000150f:	48 8b 05 d2 da 00 00 	mov    rax,QWORD PTR [rip+0xdad2]        # 0x14000efe8
   140001516:	89 5c 24 68          	mov    DWORD PTR [rsp+0x68],ebx
   14000151a:	44 89 75 80          	mov    DWORD PTR [rbp-0x80],r14d
   14000151e:	44 89 75 84          	mov    DWORD PTR [rbp-0x7c],r14d
   140001522:	48 8b 80 58 02 00 00 	mov    rax,QWORD PTR [rax+0x258]
   140001529:	ff 15 11 9c 00 00    	call   QWORD PTR [rip+0x9c11]        # 0x14000b140
   14000152f:	8b d8                	mov    ebx,eax
   140001531:	85 c0                	test   eax,eax
   140001533:	0f 88 c7 00 00 00    	js     0x140001600
   140001539:	48 8b 05 a8 da 00 00 	mov    rax,QWORD PTR [rip+0xdaa8]        # 0x14000efe8
   140001540:	4c 8d 44 24 50       	lea    r8,[rsp+0x50]
   140001545:	48 8b 54 24 30       	mov    rdx,QWORD PTR [rsp+0x30]
   14000154a:	48 8b 0d 9f da 00 00 	mov    rcx,QWORD PTR [rip+0xda9f]        # 0x14000eff0
   140001551:	48 8b 80 80 02 00 00 	mov    rax,QWORD PTR [rax+0x280]
   140001558:	ff 15 e2 9b 00 00    	call   QWORD PTR [rip+0x9be2]        # 0x14000b140
   14000155e:	8b d8                	mov    ebx,eax
   140001560:	85 c0                	test   eax,eax
   140001562:	0f 88 98 00 00 00    	js     0x140001600
   140001568:	bb 60 00 00 00       	mov    ebx,0x60
   14000156d:	48 8d 4d a0          	lea    rcx,[rbp-0x60]
   140001571:	44 8b c3             	mov    r8d,ebx
   140001574:	33 d2                	xor    edx,edx
   140001576:	e8 c5 67 00 00       	call   0x140007d40
   14000157b:	48 8b 54 24 30       	mov    rdx,QWORD PTR [rsp+0x30]
   140001580:	48 8d 05 79 7f 00 00 	lea    rax,[rip+0x7f79]        # 0x140009500
   140001587:	48 89 45 c8          	mov    QWORD PTR [rbp-0x38],rax
   14000158b:	48 8d 4c 24 60       	lea    rcx,[rsp+0x60]
   140001590:	48 8b 05 51 da 00 00 	mov    rax,QWORD PTR [rip+0xda51]        # 0x14000efe8
   140001597:	4c 8d 45 a0          	lea    r8,[rbp-0x60]
   14000159b:	89 5d a0             	mov    DWORD PTR [rbp-0x60],ebx
   14000159e:	45 33 c9             	xor    r9d,r9d
   1400015a1:	c7 45 a8 02 00 00 00 	mov    DWORD PTR [rbp-0x58],0x2
   1400015a8:	44 88 75 ad          	mov    BYTE PTR [rbp-0x53],r14b
   1400015ac:	44 89 75 a4          	mov    DWORD PTR [rbp-0x5c],r14d
   1400015b0:	48 8b 80 c0 04 00 00 	mov    rax,QWORD PTR [rax+0x4c0]
   1400015b7:	48 89 4c 24 20       	mov    QWORD PTR [rsp+0x20],rcx
   1400015bc:	48 8b 0d 2d da 00 00 	mov    rcx,QWORD PTR [rip+0xda2d]        # 0x14000eff0
   1400015c3:	ff 15 77 9b 00 00    	call   QWORD PTR [rip+0x9b77]        # 0x14000b140
   1400015c9:	8b d8                	mov    ebx,eax
   1400015cb:	85 c0                	test   eax,eax
   1400015cd:	78 31                	js     0x140001600
   1400015cf:	48 8b 05 12 da 00 00 	mov    rax,QWORD PTR [rip+0xda12]        # 0x14000efe8
   1400015d6:	48 8b 54 24 30       	mov    rdx,QWORD PTR [rsp+0x30]
   1400015db:	48 8b 0d 0e da 00 00 	mov    rcx,QWORD PTR [rip+0xda0e]        # 0x14000eff0
   1400015e2:	48 8b 80 d8 00 00 00 	mov    rax,QWORD PTR [rax+0xd8]
   1400015e9:	ff 15 51 9b 00 00    	call   QWORD PTR [rip+0x9b51]        # 0x14000b140
   1400015ef:	48 8b 44 24 30       	mov    rax,QWORD PTR [rsp+0x30]
   1400015f4:	48 89 05 15 da 00 00 	mov    QWORD PTR [rip+0xda15],rax        # 0x14000f010
   1400015fb:	e9 29 fe ff ff       	jmp    0x140001429
   140001600:	48 8b 54 24 38       	mov    rdx,QWORD PTR [rsp+0x38]
   140001605:	48 85 d2             	test   rdx,rdx
   140001608:	74 1b                	je     0x140001625
   14000160a:	48 8b 05 d7 d9 00 00 	mov    rax,QWORD PTR [rip+0xd9d7]        # 0x14000efe8
   140001611:	48 8b 0d d8 d9 00 00 	mov    rcx,QWORD PTR [rip+0xd9d8]        # 0x14000eff0
   140001618:	48 8b 80 b0 01 00 00 	mov    rax,QWORD PTR [rax+0x1b0]
   14000161f:	ff 15 1b 9b 00 00    	call   QWORD PTR [rip+0x9b1b]        # 0x14000b140
   140001625:	48 8b 54 24 30       	mov    rdx,QWORD PTR [rsp+0x30]
   14000162a:	48 85 d2             	test   rdx,rdx
   14000162d:	74 1b                	je     0x14000164a
   14000162f:	48 8b 05 b2 d9 00 00 	mov    rax,QWORD PTR [rip+0xd9b2]        # 0x14000efe8
   140001636:	48 8b 0d b3 d9 00 00 	mov    rcx,QWORD PTR [rip+0xd9b3]        # 0x14000eff0
   14000163d:	48 8b 80 80 06 00 00 	mov    rax,QWORD PTR [rax+0x680]
   140001644:	ff 15 f6 9a 00 00    	call   QWORD PTR [rip+0x9af6]        # 0x14000b140
   14000164a:	8b c3                	mov    eax,ebx
   14000164c:	48 8b 8d a0 00 00 00 	mov    rcx,QWORD PTR [rbp+0xa0]
   140001653:	48 33 cc             	xor    rcx,rsp
   140001656:	e8 c5 56 00 00       	call   0x140006d20
   14000165b:	4c 8d 9c 24 b0 01 00 	lea    r11,[rsp+0x1b0]
   140001662:	00 
   140001663:	49 8b 5b 28          	mov    rbx,QWORD PTR [r11+0x28]
   140001667:	49 8b 73 30          	mov    rsi,QWORD PTR [r11+0x30]
   14000166b:	49 8b e3             	mov    rsp,r11
   14000166e:	41 5e                	pop    r14
   140001670:	5f                   	pop    rdi
   140001671:	5d                   	pop    rbp
   140001672:	c3                   	ret
   140001673:	cc                   	int3
   140001674:	48 83 ec 28          	sub    rsp,0x28
   140001678:	48 8b 15 91 d9 00 00 	mov    rdx,QWORD PTR [rip+0xd991]        # 0x14000f010
   14000167f:	48 85 d2             	test   rdx,rdx
   140001682:	74 23                	je     0x1400016a7
   140001684:	48 8b 05 5d d9 00 00 	mov    rax,QWORD PTR [rip+0xd95d]        # 0x14000efe8
   14000168b:	48 8b 0d 5e d9 00 00 	mov    rcx,QWORD PTR [rip+0xd95e]        # 0x14000eff0
   140001692:	48 8b 80 80 06 00 00 	mov    rax,QWORD PTR [rax+0x680]
   140001699:	ff 15 a1 9a 00 00    	call   QWORD PTR [rip+0x9aa1]        # 0x14000b140
   14000169f:	48 83 25 69 d9 00 00 	and    QWORD PTR [rip+0xd969],0x0        # 0x14000f010
   1400016a6:	00 
   1400016a7:	48 83 c4 28          	add    rsp,0x28
   1400016ab:	c3                   	ret
   1400016ac:	cc                   	int3
   1400016ad:	cc                   	int3
   1400016ae:	cc                   	int3
   1400016af:	cc                   	int3
   1400016b0:	40 53                	rex push rbx
   1400016b2:	48 83 ec 20          	sub    rsp,0x20
   1400016b6:	48 8b 05 2b d9 00 00 	mov    rax,QWORD PTR [rip+0xd92b]        # 0x14000efe8
   1400016bd:	48 8b d1             	mov    rdx,rcx
   1400016c0:	4c 8b 05 51 a9 00 00 	mov    r8,QWORD PTR [rip+0xa951]        # 0x14000c018
   1400016c7:	48 8b 0d 22 d9 00 00 	mov    rcx,QWORD PTR [rip+0xd922]        # 0x14000eff0
   1400016ce:	48 8b 80 50 06 00 00 	mov    rax,QWORD PTR [rax+0x650]
   1400016d5:	ff 15 65 9a 00 00    	call   QWORD PTR [rip+0x9a65]        # 0x14000b140
   1400016db:	48 8b d8             	mov    rbx,rax
   1400016de:	48 8d 88 53 17 00 00 	lea    rcx,[rax+0x1753]
   1400016e5:	e8 a6 1d 00 00       	call   0x140003490
   1400016ea:	48 8d 8b 0b 09 00 00 	lea    rcx,[rbx+0x90b]
   1400016f1:	e8 a6 1d 00 00       	call   0x14000349c
   1400016f6:	48 8d 8b bb 17 00 00 	lea    rcx,[rbx+0x17bb]
   1400016fd:	e8 7e 1d 00 00       	call   0x140003480
   140001702:	33 c0                	xor    eax,eax
   140001704:	48 83 c4 20          	add    rsp,0x20
   140001708:	5b                   	pop    rbx
   140001709:	c3                   	ret
   14000170a:	cc                   	int3
   14000170b:	cc                   	int3
   14000170c:	cc                   	int3
   14000170d:	cc                   	int3
   14000170e:	cc                   	int3
   14000170f:	cc                   	int3
   140001710:	48 83 ec 28          	sub    rsp,0x28
   140001714:	48 8b 05 cd d8 00 00 	mov    rax,QWORD PTR [rip+0xd8cd]        # 0x14000efe8
   14000171b:	48 8b d1             	mov    rdx,rcx
   14000171e:	4c 8b 05 f3 a8 00 00 	mov    r8,QWORD PTR [rip+0xa8f3]        # 0x14000c018
   140001725:	48 8b 0d c4 d8 00 00 	mov    rcx,QWORD PTR [rip+0xd8c4]        # 0x14000eff0
   14000172c:	48 8b 80 50 06 00 00 	mov    rax,QWORD PTR [rax+0x650]
   140001733:	ff 15 07 9a 00 00    	call   QWORD PTR [rip+0x9a07]        # 0x14000b140
   140001739:	33 c0                	xor    eax,eax
   14000173b:	48 83 c4 28          	add    rsp,0x28
   14000173f:	c3                   	ret
   140001740:	48 83 ec 28          	sub    rsp,0x28
   140001744:	48 8b 05 9d d8 00 00 	mov    rax,QWORD PTR [rip+0xd89d]        # 0x14000efe8
   14000174b:	48 8b d1             	mov    rdx,rcx
   14000174e:	4c 8b 05 c3 a8 00 00 	mov    r8,QWORD PTR [rip+0xa8c3]        # 0x14000c018
   140001755:	48 8b 0d 94 d8 00 00 	mov    rcx,QWORD PTR [rip+0xd894]        # 0x14000eff0
   14000175c:	48 8b 80 50 06 00 00 	mov    rax,QWORD PTR [rax+0x650]
   140001763:	ff 15 d7 99 00 00    	call   QWORD PTR [rip+0x99d7]        # 0x14000b140
   140001769:	48 f7 d8             	neg    rax
   14000176c:	1b c0                	sbb    eax,eax
   14000176e:	f7 d0                	not    eax
   140001770:	25 01 00 00 c0       	and    eax,0xc0000001
   140001775:	48 83 c4 28          	add    rsp,0x28
   140001779:	c3                   	ret
   14000177a:	cc                   	int3
   14000177b:	cc                   	int3
   14000177c:	cc                   	int3
   14000177d:	cc                   	int3
   14000177e:	cc                   	int3
   14000177f:	cc                   	int3
   140001780:	33 c0                	xor    eax,eax
   140001782:	c3                   	ret
   140001783:	cc                   	int3
   140001784:	cc                   	int3
   140001785:	cc                   	int3
   140001786:	cc                   	int3
   140001787:	cc                   	int3
   140001788:	cc                   	int3
   140001789:	cc                   	int3
   14000178a:	cc                   	int3
   14000178b:	cc                   	int3
   14000178c:	cc                   	int3
   14000178d:	cc                   	int3
   14000178e:	cc                   	int3
   14000178f:	cc                   	int3
   140001790:	48 83 ec 28          	sub    rsp,0x28
   140001794:	48 8b 05 4d d8 00 00 	mov    rax,QWORD PTR [rip+0xd84d]        # 0x14000efe8
   14000179b:	48 8b d1             	mov    rdx,rcx
   14000179e:	4c 8b 05 73 a8 00 00 	mov    r8,QWORD PTR [rip+0xa873]        # 0x14000c018
   1400017a5:	48 8b 0d 44 d8 00 00 	mov    rcx,QWORD PTR [rip+0xd844]        # 0x14000eff0
   1400017ac:	48 8b 80 50 06 00 00 	mov    rax,QWORD PTR [rax+0x650]
   1400017b3:	ff 15 87 99 00 00    	call   QWORD PTR [rip+0x9987]        # 0x14000b140
   1400017b9:	48 8b c8             	mov    rcx,rax
   1400017bc:	e8 4f 07 00 00       	call   0x140001f10
   1400017c1:	33 c0                	xor    eax,eax
   1400017c3:	48 83 c4 28          	add    rsp,0x28
   1400017c7:	c3                   	ret
   1400017c8:	cc                   	int3
   1400017c9:	cc                   	int3
   1400017ca:	cc                   	int3
   1400017cb:	cc                   	int3
   1400017cc:	cc                   	int3
   1400017cd:	cc                   	int3
   1400017ce:	cc                   	int3
   1400017cf:	cc                   	int3
   1400017d0:	c2 00 00             	ret    0x0
   1400017d3:	cc                   	int3
   1400017d4:	48 8b c4             	mov    rax,rsp
   1400017d7:	48 89 58 08          	mov    QWORD PTR [rax+0x8],rbx
   1400017db:	48 89 70 10          	mov    QWORD PTR [rax+0x10],rsi
   1400017df:	48 89 78 18          	mov    QWORD PTR [rax+0x18],rdi
   1400017e3:	4c 89 60 20          	mov    QWORD PTR [rax+0x20],r12
   1400017e7:	55                   	push   rbp
   1400017e8:	41 56                	push   r14
   1400017ea:	41 57                	push   r15
   1400017ec:	48 8d 68 b8          	lea    rbp,[rax-0x48]
   1400017f0:	48 81 ec 30 01 00 00 	sub    rsp,0x130
   1400017f7:	48 8b 05 72 ad 00 00 	mov    rax,QWORD PTR [rip+0xad72]        # 0x14000c570
   1400017fe:	48 33 c4             	xor    rax,rsp
   140001801:	48 89 45 20          	mov    QWORD PTR [rbp+0x20],rax
   140001805:	33 c0                	xor    eax,eax
   140001807:	48 89 45 10          	mov    QWORD PTR [rbp+0x10],rax
   14000180b:	66 89 45 18          	mov    WORD PTR [rbp+0x18],ax
   14000180f:	ff 15 83 98 00 00    	call   QWORD PTR [rip+0x9883]        # 0x14000b098
   140001815:	48 8b c8             	mov    rcx,rax
   140001818:	ff 15 aa 98 00 00    	call   QWORD PTR [rip+0x98aa]        # 0x14000b0c8
   14000181e:	45 33 ff             	xor    r15d,r15d
   140001821:	41 bc 00 02 00 00    	mov    r12d,0x200
   140001827:	48 8b f8             	mov    rdi,rax
   14000182a:	45 33 c0             	xor    r8d,r8d
   14000182d:	48 8d 44 24 48       	lea    rax,[rsp+0x48]
   140001832:	41 8b d4             	mov    edx,r12d
   140001835:	48 89 44 24 30       	mov    QWORD PTR [rsp+0x30],rax
   14000183a:	48 8b cf             	mov    rcx,rdi
   14000183d:	44 88 7c 24 28       	mov    BYTE PTR [rsp+0x28],r15b
   140001842:	45 8d 4f 08          	lea    r9d,[r15+0x8]
   140001846:	4c 89 7c 24 20       	mov    QWORD PTR [rsp+0x20],r15
   14000184b:	ff 15 7f 98 00 00    	call   QWORD PTR [rip+0x987f]        # 0x14000b0d0
   140001851:	48 8b cf             	mov    rcx,rdi
   140001854:	8b d8                	mov    ebx,eax
   140001856:	ff 15 54 98 00 00    	call   QWORD PTR [rip+0x9854]        # 0x14000b0b0
   14000185c:	45 8d 77 01          	lea    r14d,[r15+0x1]
   140001860:	85 db                	test   ebx,ebx
   140001862:	0f 88 31 02 00 00    	js     0x140001a99
   140001868:	48 8d 4c 24 40       	lea    rcx,[rsp+0x40]
   14000186d:	45 33 c9             	xor    r9d,r9d
   140001870:	48 89 4c 24 20       	mov    QWORD PTR [rsp+0x20],rcx
   140001875:	45 33 c0             	xor    r8d,r8d
   140001878:	48 8b 4c 24 48       	mov    rcx,QWORD PTR [rsp+0x48]
   14000187d:	41 8b d6             	mov    edx,r14d
   140001880:	ff 15 52 98 00 00    	call   QWORD PTR [rip+0x9852]        # 0x14000b0d8
   140001886:	3d 23 00 00 c0       	cmp    eax,0xc0000023
   14000188b:	74 10                	je     0x14000189d
   14000188d:	48 8b 4c 24 48       	mov    rcx,QWORD PTR [rsp+0x48]
   140001892:	ff 15 20 98 00 00    	call   QWORD PTR [rip+0x9820]        # 0x14000b0b8
   140001898:	e9 fc 01 00 00       	jmp    0x140001a99
   14000189d:	8b 54 24 40          	mov    edx,DWORD PTR [rsp+0x40]
   1400018a1:	41 b8 42 54 4d 54    	mov    r8d,0x544d5442
   1400018a7:	41 8b ce             	mov    ecx,r14d
   1400018aa:	ff 15 b0 97 00 00    	call   QWORD PTR [rip+0x97b0]        # 0x14000b060
   1400018b0:	48 8b 4c 24 48       	mov    rcx,QWORD PTR [rsp+0x48]
   1400018b5:	48 8b f8             	mov    rdi,rax
   1400018b8:	48 85 c0             	test   rax,rax
   1400018bb:	74 d5                	je     0x140001892
   1400018bd:	44 8b 4c 24 40       	mov    r9d,DWORD PTR [rsp+0x40]
   1400018c2:	48 8d 44 24 40       	lea    rax,[rsp+0x40]
   1400018c7:	4c 8b c7             	mov    r8,rdi
   1400018ca:	48 89 44 24 20       	mov    QWORD PTR [rsp+0x20],rax
   1400018cf:	41 8b d6             	mov    edx,r14d
   1400018d2:	ff 15 00 98 00 00    	call   QWORD PTR [rip+0x9800]        # 0x14000b0d8
   1400018d8:	48 8b 4c 24 48       	mov    rcx,QWORD PTR [rsp+0x48]
   1400018dd:	8b d8                	mov    ebx,eax
   1400018df:	ff 15 d3 97 00 00    	call   QWORD PTR [rip+0x97d3]        # 0x14000b0b8
   1400018e5:	85 db                	test   ebx,ebx
   1400018e7:	0f 88 a1 01 00 00    	js     0x140001a8e
   1400018ed:	41 b8 42 54 4d 54    	mov    r8d,0x544d5442
   1400018f3:	49 8b d4             	mov    rdx,r12
   1400018f6:	41 8b ce             	mov    ecx,r14d
   1400018f9:	ff 15 61 97 00 00    	call   QWORD PTR [rip+0x9761]        # 0x14000b060
   1400018ff:	48 8b f0             	mov    rsi,rax
   140001902:	48 85 c0             	test   rax,rax
   140001905:	0f 84 83 01 00 00    	je     0x140001a8e
   14000190b:	4d 8b c4             	mov    r8,r12
   14000190e:	33 d2                	xor    edx,edx
   140001910:	48 8b c8             	mov    rcx,rax
   140001913:	e8 28 64 00 00       	call   0x140007d40
   140001918:	48 89 75 80          	mov    QWORD PTR [rbp-0x80],rsi
   14000191c:	48 8d 4c 24 78       	lea    rcx,[rsp+0x78]
   140001921:	66 44 89 64 24 7a    	mov    WORD PTR [rsp+0x7a],r12w
   140001927:	45 33 c0             	xor    r8d,r8d
   14000192a:	48 8b 17             	mov    rdx,QWORD PTR [rdi]
   14000192d:	ff 15 8d 97 00 00    	call   QWORD PTR [rip+0x978d]        # 0x14000b0c0
   140001933:	33 d2                	xor    edx,edx
   140001935:	48 8b cf             	mov    rcx,rdi
   140001938:	8b d8                	mov    ebx,eax
   14000193a:	ff 15 28 97 00 00    	call   QWORD PTR [rip+0x9728]        # 0x14000b068
   140001940:	85 db                	test   ebx,ebx
   140001942:	0f 88 41 01 00 00    	js     0x140001a89
   140001948:	41 b8 42 54 4d 54    	mov    r8d,0x544d5442
   14000194e:	49 8b d4             	mov    rdx,r12
   140001951:	41 8b ce             	mov    ecx,r14d
   140001954:	ff 15 06 97 00 00    	call   QWORD PTR [rip+0x9706]        # 0x14000b060
   14000195a:	48 8b f8             	mov    rdi,rax
   14000195d:	48 85 c0             	test   rax,rax
   140001960:	0f 84 23 01 00 00    	je     0x140001a89
   140001966:	4d 8b c4             	mov    r8,r12
   140001969:	33 d2                	xor    edx,edx
   14000196b:	48 8b c8             	mov    rcx,rax
   14000196e:	e8 cd 63 00 00       	call   0x140007d40
   140001973:	0f 10 05 e6 68 00 00 	movups xmm0,XMMWORD PTR [rip+0x68e6]        # 0x140008260
   14000197a:	48 89 7c 24 60       	mov    QWORD PTR [rsp+0x60],rdi
   14000197f:	48 8d 54 24 78       	lea    rdx,[rsp+0x78]
   140001984:	66 44 89 64 24 5a    	mov    WORD PTR [rsp+0x5a],r12w
   14000198a:	48 8d 4c 24 58       	lea    rcx,[rsp+0x58]
   14000198f:	0f 11 07             	movups XMMWORD PTR [rdi],xmm0
   140001992:	b8 1f 00 00 00       	mov    eax,0x1f
   140001997:	0f 10 0d d2 68 00 00 	movups xmm1,XMMWORD PTR [rip+0x68d2]        # 0x140008270
   14000199e:	0f 11 4f 10          	movups XMMWORD PTR [rdi+0x10],xmm1
   1400019a2:	66 89 44 24 58       	mov    WORD PTR [rsp+0x58],ax
   1400019a7:	ff 15 7b 96 00 00    	call   QWORD PTR [rip+0x967b]        # 0x14000b028
   1400019ad:	48 8d 15 cc 68 00 00 	lea    rdx,[rip+0x68cc]        # 0x140008280
   1400019b4:	48 8d 4c 24 58       	lea    rcx,[rsp+0x58]
   1400019b9:	ff 15 71 96 00 00    	call   QWORD PTR [rip+0x9671]        # 0x14000b030
   1400019bf:	48 8d 45 10          	lea    rax,[rbp+0x10]
   1400019c3:	c7 44 24 68 00 00 0a 	mov    DWORD PTR [rsp+0x68],0xa0000
   1400019ca:	00 
   1400019cb:	41 bc 0a 00 00 00    	mov    r12d,0xa
   1400019d1:	48 89 44 24 70       	mov    QWORD PTR [rsp+0x70],rax
   1400019d6:	33 d2                	xor    edx,edx
   1400019d8:	48 8d 4d a0          	lea    rcx,[rbp-0x60]
   1400019dc:	45 8d 44 24 66       	lea    r8d,[r12+0x66]
   1400019e1:	e8 5a 63 00 00       	call   0x140007d40
   1400019e6:	48 8d 05 c3 68 00 00 	lea    rax,[rip+0x68c3]        # 0x1400082b0
   1400019ed:	c7 45 a8 20 01 00 00 	mov    DWORD PTR [rbp-0x58],0x120
   1400019f4:	48 89 45 b0          	mov    QWORD PTR [rbp-0x50],rax
   1400019f8:	48 8d 15 81 67 00 00 	lea    rdx,[rip+0x6781]        # 0x140008180
   1400019ff:	48 8d 44 24 68       	lea    rax,[rsp+0x68]
   140001a04:	c7 45 c0 01 00 00 01 	mov    DWORD PTR [rbp-0x40],0x1000001
   140001a0b:	48 89 45 b8          	mov    QWORD PTR [rbp-0x48],rax
   140001a0f:	48 8d 4d 88          	lea    rcx,[rbp-0x78]
   140001a13:	48 8d 05 c6 68 00 00 	lea    rax,[rip+0x68c6]        # 0x1400082e0
   140001a1a:	44 89 7d d0          	mov    DWORD PTR [rbp-0x30],r15d
   140001a1e:	48 89 45 c8          	mov    QWORD PTR [rbp-0x38],rax
   140001a22:	ff 15 e8 96 00 00    	call   QWORD PTR [rip+0x96e8]        # 0x14000b110
   140001a28:	48 8d 4d 88          	lea    rcx,[rbp-0x78]
   140001a2c:	ff 15 5e 96 00 00    	call   QWORD PTR [rip+0x965e]        # 0x14000b090
   140001a32:	4c 8d 45 a0          	lea    r8,[rbp-0x60]
   140001a36:	4c 89 7c 24 20       	mov    QWORD PTR [rsp+0x20],r15
   140001a3b:	48 85 c0             	test   rax,rax
   140001a3e:	48 8b d7             	mov    rdx,rdi
   140001a41:	48 0f 44 05 a7 96 00 	cmove  rax,QWORD PTR [rip+0x96a7]        # 0x14000b0f0
   140001a48:	00 
   140001a49:	45 33 c9             	xor    r9d,r9d
   140001a4c:	33 c9                	xor    ecx,ecx
   140001a4e:	ff 15 ec 96 00 00    	call   QWORD PTR [rip+0x96ec]        # 0x14000b140
   140001a54:	33 d2                	xor    edx,edx
   140001a56:	48 8b ce             	mov    rcx,rsi
   140001a59:	8b d8                	mov    ebx,eax
   140001a5b:	ff 15 07 96 00 00    	call   QWORD PTR [rip+0x9607]        # 0x14000b068
   140001a61:	33 d2                	xor    edx,edx
   140001a63:	48 8b cf             	mov    rcx,rdi
   140001a66:	ff 15 fc 95 00 00    	call   QWORD PTR [rip+0x95fc]        # 0x14000b068
   140001a6c:	85 db                	test   ebx,ebx
   140001a6e:	78 29                	js     0x140001a99
   140001a70:	4c 8d 44 24 50       	lea    r8,[rsp+0x50]
   140001a75:	41 8b d4             	mov    edx,r12d
   140001a78:	48 8d 4c 24 68       	lea    rcx,[rsp+0x68]
   140001a7d:	ff 15 95 96 00 00    	call   QWORD PTR [rip+0x9695]        # 0x14000b118
   140001a83:	8a 44 24 50          	mov    al,BYTE PTR [rsp+0x50]
   140001a87:	eb 13                	jmp    0x140001a9c
   140001a89:	48 8b ce             	mov    rcx,rsi
   140001a8c:	eb 03                	jmp    0x140001a91
   140001a8e:	48 8b cf             	mov    rcx,rdi
   140001a91:	33 d2                	xor    edx,edx
   140001a93:	ff 15 cf 95 00 00    	call   QWORD PTR [rip+0x95cf]        # 0x14000b068
   140001a99:	41 8a c6             	mov    al,r14b
   140001a9c:	48 8b 4d 20          	mov    rcx,QWORD PTR [rbp+0x20]
   140001aa0:	48 33 cc             	xor    rcx,rsp
   140001aa3:	e8 78 52 00 00       	call   0x140006d20
   140001aa8:	4c 8d 9c 24 30 01 00 	lea    r11,[rsp+0x130]
   140001aaf:	00 
   140001ab0:	49 8b 5b 20          	mov    rbx,QWORD PTR [r11+0x20]
   140001ab4:	49 8b 73 28          	mov    rsi,QWORD PTR [r11+0x28]
   140001ab8:	49 8b 7b 30          	mov    rdi,QWORD PTR [r11+0x30]
   140001abc:	4d 8b 63 38          	mov    r12,QWORD PTR [r11+0x38]
   140001ac0:	49 8b e3             	mov    rsp,r11
   140001ac3:	41 5f                	pop    r15
   140001ac5:	41 5e                	pop    r14
   140001ac7:	5d                   	pop    rbp
   140001ac8:	c3                   	ret
   140001ac9:	cc                   	int3
   140001aca:	cc                   	int3
   140001acb:	cc                   	int3
   140001acc:	48 89 5c 24 20       	mov    QWORD PTR [rsp+0x20],rbx
   140001ad1:	55                   	push   rbp
   140001ad2:	56                   	push   rsi
   140001ad3:	57                   	push   rdi
   140001ad4:	41 54                	push   r12
   140001ad6:	41 57                	push   r15
   140001ad8:	48 8d 6c 24 c9       	lea    rbp,[rsp-0x37]
   140001add:	48 81 ec e0 00 00 00 	sub    rsp,0xe0
   140001ae4:	ff 15 ae 95 00 00    	call   QWORD PTR [rip+0x95ae]        # 0x14000b098
   140001aea:	48 8b c8             	mov    rcx,rax
   140001aed:	ff 15 d5 95 00 00    	call   QWORD PTR [rip+0x95d5]        # 0x14000b0c8
   140001af3:	41 bc 00 02 00 00    	mov    r12d,0x200
   140001af9:	41 b9 08 00 00 00    	mov    r9d,0x8
   140001aff:	48 8b f8             	mov    rdi,rax
   140001b02:	45 33 c0             	xor    r8d,r8d
   140001b05:	48 8d 45 77          	lea    rax,[rbp+0x77]
   140001b09:	41 8b d4             	mov    edx,r12d
   140001b0c:	48 89 44 24 30       	mov    QWORD PTR [rsp+0x30],rax
   140001b11:	48 8b cf             	mov    rcx,rdi
   140001b14:	c6 44 24 28 00       	mov    BYTE PTR [rsp+0x28],0x0
   140001b19:	48 83 64 24 20 00    	and    QWORD PTR [rsp+0x20],0x0
   140001b1f:	ff 15 ab 95 00 00    	call   QWORD PTR [rip+0x95ab]        # 0x14000b0d0
   140001b25:	48 8b cf             	mov    rcx,rdi
   140001b28:	8b d8                	mov    ebx,eax
   140001b2a:	ff 15 80 95 00 00    	call   QWORD PTR [rip+0x9580]        # 0x14000b0b0
   140001b30:	85 db                	test   ebx,ebx
   140001b32:	0f 88 f3 01 00 00    	js     0x140001d2b
   140001b38:	48 8b 4d 77          	mov    rcx,QWORD PTR [rbp+0x77]
   140001b3c:	48 8d 45 67          	lea    rax,[rbp+0x67]
   140001b40:	45 33 c9             	xor    r9d,r9d
   140001b43:	48 89 44 24 20       	mov    QWORD PTR [rsp+0x20],rax
   140001b48:	45 33 c0             	xor    r8d,r8d
   140001b4b:	45 8d 79 01          	lea    r15d,[r9+0x1]
   140001b4f:	41 8b d7             	mov    edx,r15d
   140001b52:	ff 15 80 95 00 00    	call   QWORD PTR [rip+0x9580]        # 0x14000b0d8
   140001b58:	3d 23 00 00 c0       	cmp    eax,0xc0000023
   140001b5d:	74 0f                	je     0x140001b6e
   140001b5f:	48 8b 4d 77          	mov    rcx,QWORD PTR [rbp+0x77]
   140001b63:	ff 15 4f 95 00 00    	call   QWORD PTR [rip+0x954f]        # 0x14000b0b8
   140001b69:	e9 bd 01 00 00       	jmp    0x140001d2b
   140001b6e:	8b 55 67             	mov    edx,DWORD PTR [rbp+0x67]
   140001b71:	41 b8 42 54 4d 54    	mov    r8d,0x544d5442
   140001b77:	41 8b cf             	mov    ecx,r15d
   140001b7a:	ff 15 e0 94 00 00    	call   QWORD PTR [rip+0x94e0]        # 0x14000b060
   140001b80:	48 8b 4d 77          	mov    rcx,QWORD PTR [rbp+0x77]
   140001b84:	48 8b f8             	mov    rdi,rax
   140001b87:	48 85 c0             	test   rax,rax
   140001b8a:	74 d7                	je     0x140001b63
   140001b8c:	44 8b 4d 67          	mov    r9d,DWORD PTR [rbp+0x67]
   140001b90:	48 8d 45 67          	lea    rax,[rbp+0x67]
   140001b94:	4c 8b c7             	mov    r8,rdi
   140001b97:	48 89 44 24 20       	mov    QWORD PTR [rsp+0x20],rax
   140001b9c:	41 8b d7             	mov    edx,r15d
   140001b9f:	ff 15 33 95 00 00    	call   QWORD PTR [rip+0x9533]        # 0x14000b0d8
   140001ba5:	48 8b 4d 77          	mov    rcx,QWORD PTR [rbp+0x77]
   140001ba9:	8b d8                	mov    ebx,eax
   140001bab:	ff 15 07 95 00 00    	call   QWORD PTR [rip+0x9507]        # 0x14000b0b8
   140001bb1:	85 db                	test   ebx,ebx
   140001bb3:	0f 88 67 01 00 00    	js     0x140001d20
   140001bb9:	41 b8 42 54 4d 54    	mov    r8d,0x544d5442
   140001bbf:	49 8b d4             	mov    rdx,r12
   140001bc2:	41 8b cf             	mov    ecx,r15d
   140001bc5:	ff 15 95 94 00 00    	call   QWORD PTR [rip+0x9495]        # 0x14000b060
   140001bcb:	48 8b f0             	mov    rsi,rax
   140001bce:	48 85 c0             	test   rax,rax
   140001bd1:	0f 84 49 01 00 00    	je     0x140001d20
   140001bd7:	4d 8b c4             	mov    r8,r12
   140001bda:	33 d2                	xor    edx,edx
   140001bdc:	48 8b c8             	mov    rcx,rax
   140001bdf:	e8 5c 61 00 00       	call   0x140007d40
   140001be4:	48 89 75 af          	mov    QWORD PTR [rbp-0x51],rsi
   140001be8:	48 8d 4d a7          	lea    rcx,[rbp-0x59]
   140001bec:	66 44 89 65 a9       	mov    WORD PTR [rbp-0x57],r12w
   140001bf1:	45 33 c0             	xor    r8d,r8d
   140001bf4:	48 8b 17             	mov    rdx,QWORD PTR [rdi]
   140001bf7:	ff 15 c3 94 00 00    	call   QWORD PTR [rip+0x94c3]        # 0x14000b0c0
   140001bfd:	33 d2                	xor    edx,edx
   140001bff:	48 8b cf             	mov    rcx,rdi
   140001c02:	8b d8                	mov    ebx,eax
   140001c04:	ff 15 5e 94 00 00    	call   QWORD PTR [rip+0x945e]        # 0x14000b068
   140001c0a:	85 db                	test   ebx,ebx
   140001c0c:	0f 88 09 01 00 00    	js     0x140001d1b
   140001c12:	41 b8 42 54 4d 54    	mov    r8d,0x544d5442
   140001c18:	49 8b d4             	mov    rdx,r12
   140001c1b:	41 8b cf             	mov    ecx,r15d
   140001c1e:	ff 15 3c 94 00 00    	call   QWORD PTR [rip+0x943c]        # 0x14000b060
   140001c24:	48 8b f8             	mov    rdi,rax
   140001c27:	48 85 c0             	test   rax,rax
   140001c2a:	0f 84 eb 00 00 00    	je     0x140001d1b
   140001c30:	4d 8b c4             	mov    r8,r12
   140001c33:	33 d2                	xor    edx,edx
   140001c35:	48 8b c8             	mov    rcx,rax
   140001c38:	e8 03 61 00 00       	call   0x140007d40
   140001c3d:	0f 10 05 1c 66 00 00 	movups xmm0,XMMWORD PTR [rip+0x661c]        # 0x140008260
   140001c44:	48 89 7d 9f          	mov    QWORD PTR [rbp-0x61],rdi
   140001c48:	48 8d 55 a7          	lea    rdx,[rbp-0x59]
   140001c4c:	66 44 89 65 99       	mov    WORD PTR [rbp-0x67],r12w
   140001c51:	48 8d 4d 97          	lea    rcx,[rbp-0x69]
   140001c55:	0f 11 07             	movups XMMWORD PTR [rdi],xmm0
   140001c58:	b8 1f 00 00 00       	mov    eax,0x1f
   140001c5d:	0f 10 0d 0c 66 00 00 	movups xmm1,XMMWORD PTR [rip+0x660c]        # 0x140008270
   140001c64:	0f 11 4f 10          	movups XMMWORD PTR [rdi+0x10],xmm1
   140001c68:	66 89 45 97          	mov    WORD PTR [rbp-0x69],ax
   140001c6c:	ff 15 b6 93 00 00    	call   QWORD PTR [rip+0x93b6]        # 0x14000b028
   140001c72:	48 8d 15 77 66 00 00 	lea    rdx,[rip+0x6677]        # 0x1400082f0
   140001c79:	48 8d 4d 97          	lea    rcx,[rbp-0x69]
   140001c7d:	ff 15 ad 93 00 00    	call   QWORD PTR [rip+0x93ad]        # 0x14000b030
   140001c83:	33 d2                	xor    edx,edx
   140001c85:	48 8d 4d c7          	lea    rcx,[rbp-0x39]
   140001c89:	44 8d 42 70          	lea    r8d,[rdx+0x70]
   140001c8d:	e8 ae 60 00 00       	call   0x140007d40
   140001c92:	83 65 e7 00          	and    DWORD PTR [rbp-0x19],0x0
   140001c96:	48 8d 05 93 66 00 00 	lea    rax,[rip+0x6693]        # 0x140008330
   140001c9d:	48 83 65 ef 00       	and    QWORD PTR [rbp-0x11],0x0
   140001ca2:	48 8d 15 d7 64 00 00 	lea    rdx,[rip+0x64d7]        # 0x140008180
   140001ca9:	48 89 45 d7          	mov    QWORD PTR [rbp-0x29],rax
   140001cad:	48 8d 4d b7          	lea    rcx,[rbp-0x49]
   140001cb1:	48 8d 45 6f          	lea    rax,[rbp+0x6f]
   140001cb5:	c7 45 cf 24 00 00 00 	mov    DWORD PTR [rbp-0x31],0x24
   140001cbc:	48 89 45 df          	mov    QWORD PTR [rbp-0x21],rax
   140001cc0:	c7 45 f7 04 00 00 00 	mov    DWORD PTR [rbp-0x9],0x4
   140001cc7:	ff 15 43 94 00 00    	call   QWORD PTR [rip+0x9443]        # 0x14000b110
   140001ccd:	48 8d 4d b7          	lea    rcx,[rbp-0x49]
   140001cd1:	ff 15 b9 93 00 00    	call   QWORD PTR [rip+0x93b9]        # 0x14000b090
   140001cd7:	4c 8d 45 c7          	lea    r8,[rbp-0x39]
   140001cdb:	48 8b d7             	mov    rdx,rdi
   140001cde:	48 85 c0             	test   rax,rax
   140001ce1:	48 0f 44 05 07 94 00 	cmove  rax,QWORD PTR [rip+0x9407]        # 0x14000b0f0
   140001ce8:	00 
   140001ce9:	45 33 c9             	xor    r9d,r9d
   140001cec:	48 83 64 24 20 00    	and    QWORD PTR [rsp+0x20],0x0
   140001cf2:	33 c9                	xor    ecx,ecx
   140001cf4:	ff 15 46 94 00 00    	call   QWORD PTR [rip+0x9446]        # 0x14000b140
   140001cfa:	33 d2                	xor    edx,edx
   140001cfc:	48 8b ce             	mov    rcx,rsi
   140001cff:	8b d8                	mov    ebx,eax
   140001d01:	ff 15 61 93 00 00    	call   QWORD PTR [rip+0x9361]        # 0x14000b068
   140001d07:	33 d2                	xor    edx,edx
   140001d09:	48 8b cf             	mov    rcx,rdi
   140001d0c:	ff 15 56 93 00 00    	call   QWORD PTR [rip+0x9356]        # 0x14000b068
   140001d12:	85 db                	test   ebx,ebx
   140001d14:	78 15                	js     0x140001d2b
   140001d16:	8a 45 6f             	mov    al,BYTE PTR [rbp+0x6f]
   140001d19:	eb 12                	jmp    0x140001d2d
   140001d1b:	48 8b ce             	mov    rcx,rsi
   140001d1e:	eb 03                	jmp    0x140001d23
   140001d20:	48 8b cf             	mov    rcx,rdi
   140001d23:	33 d2                	xor    edx,edx
   140001d25:	ff 15 3d 93 00 00    	call   QWORD PTR [rip+0x933d]        # 0x14000b068
   140001d2b:	32 c0                	xor    al,al
   140001d2d:	48 8b 9c 24 28 01 00 	mov    rbx,QWORD PTR [rsp+0x128]
   140001d34:	00 
   140001d35:	48 81 c4 e0 00 00 00 	add    rsp,0xe0
   140001d3c:	41 5f                	pop    r15
   140001d3e:	41 5c                	pop    r12
   140001d40:	5f                   	pop    rdi
   140001d41:	5e                   	pop    rsi
   140001d42:	5d                   	pop    rbp
   140001d43:	c3                   	ret
   140001d44:	48 89 5c 24 08       	mov    QWORD PTR [rsp+0x8],rbx
   140001d49:	48 89 74 24 18       	mov    QWORD PTR [rsp+0x18],rsi
   140001d4e:	57                   	push   rdi
   140001d4f:	48 83 ec 40          	sub    rsp,0x40
   140001d53:	48 8b f1             	mov    rsi,rcx
   140001d56:	ba 00 02 00 00       	mov    edx,0x200
   140001d5b:	b9 01 00 00 00       	mov    ecx,0x1
   140001d60:	41 b8 42 54 4d 54    	mov    r8d,0x544d5442
   140001d66:	ff 15 f4 92 00 00    	call   QWORD PTR [rip+0x92f4]        # 0x14000b060
   140001d6c:	33 db                	xor    ebx,ebx
   140001d6e:	48 8b f8             	mov    rdi,rax
   140001d71:	48 85 c0             	test   rax,rax
   140001d74:	74 74                	je     0x140001dea
   140001d76:	48 8b 05 6b d2 00 00 	mov    rax,QWORD PTR [rip+0xd26b]        # 0x14000efe8
   140001d7d:	48 8d 4c 24 58       	lea    rcx,[rsp+0x58]
   140001d82:	48 89 4c 24 28       	mov    QWORD PTR [rsp+0x28],rcx
   140001d87:	41 b9 00 02 00 00    	mov    r9d,0x200
   140001d8d:	48 8b 0d 5c d2 00 00 	mov    rcx,QWORD PTR [rip+0xd25c]        # 0x14000eff0
   140001d94:	41 b8 01 00 00 00    	mov    r8d,0x1
   140001d9a:	48 8b d6             	mov    rdx,rsi
   140001d9d:	48 89 7c 24 20       	mov    QWORD PTR [rsp+0x20],rdi
   140001da2:	48 8b 80 f0 03 00 00 	mov    rax,QWORD PTR [rax+0x3f0]
   140001da9:	ff 15 91 93 00 00    	call   QWORD PTR [rip+0x9391]        # 0x14000b140
   140001daf:	85 c0                	test   eax,eax
   140001db1:	78 2a                	js     0x140001ddd
   140001db3:	48 8d 15 06 66 00 00 	lea    rdx,[rip+0x6606]        # 0x1400083c0
   140001dba:	48 8b cf             	mov    rcx,rdi
   140001dbd:	e8 4f 2f 00 00       	call   0x140004d11
   140001dc2:	48 85 c0             	test   rax,rax
   140001dc5:	75 14                	jne    0x140001ddb
   140001dc7:	48 8d 15 22 66 00 00 	lea    rdx,[rip+0x6622]        # 0x1400083f0
   140001dce:	48 8b cf             	mov    rcx,rdi
   140001dd1:	e8 3b 2f 00 00       	call   0x140004d11
   140001dd6:	48 85 c0             	test   rax,rax
   140001dd9:	74 02                	je     0x140001ddd
   140001ddb:	b3 01                	mov    bl,0x1
   140001ddd:	33 d2                	xor    edx,edx
   140001ddf:	48 8b cf             	mov    rcx,rdi
   140001de2:	ff 15 80 92 00 00    	call   QWORD PTR [rip+0x9280]        # 0x14000b068
   140001de8:	8a c3                	mov    al,bl
   140001dea:	48 8b 5c 24 50       	mov    rbx,QWORD PTR [rsp+0x50]
   140001def:	48 8b 74 24 60       	mov    rsi,QWORD PTR [rsp+0x60]
   140001df4:	48 83 c4 40          	add    rsp,0x40
   140001df8:	5f                   	pop    rdi
   140001df9:	c3                   	ret
   140001dfa:	cc                   	int3
   140001dfb:	cc                   	int3
   140001dfc:	48 89 5c 24 08       	mov    QWORD PTR [rsp+0x8],rbx
   140001e01:	48 89 7c 24 20       	mov    QWORD PTR [rsp+0x20],rdi
   140001e06:	55                   	push   rbp
   140001e07:	48 8d 6c 24 a9       	lea    rbp,[rsp-0x57]
   140001e0c:	48 81 ec 90 00 00 00 	sub    rsp,0x90
   140001e13:	8b f9                	mov    edi,ecx
   140001e15:	48 8d 15 44 65 00 00 	lea    rdx,[rip+0x6544]        # 0x140008360
   140001e1c:	48 8d 4d 17          	lea    rcx,[rbp+0x17]
   140001e20:	ff 15 ea 92 00 00    	call   QWORD PTR [rip+0x92ea]        # 0x14000b110
   140001e26:	4c 8d 4d 6f          	lea    r9,[rbp+0x6f]
   140001e2a:	ba 80 00 00 00       	mov    edx,0x80
   140001e2f:	4c 8d 45 77          	lea    r8,[rbp+0x77]
   140001e33:	48 8d 4d 17          	lea    rcx,[rbp+0x17]
   140001e37:	ff 15 63 92 00 00    	call   QWORD PTR [rip+0x9263]        # 0x14000b0a0
   140001e3d:	8b d8                	mov    ebx,eax
   140001e3f:	85 c0                	test   eax,eax
   140001e41:	79 32                	jns    0x140001e75
   140001e43:	48 8d 15 46 65 00 00 	lea    rdx,[rip+0x6546]        # 0x140008390
   140001e4a:	48 8d 4d 17          	lea    rcx,[rbp+0x17]
   140001e4e:	ff 15 bc 92 00 00    	call   QWORD PTR [rip+0x92bc]        # 0x14000b110
   140001e54:	4c 8d 4d 6f          	lea    r9,[rbp+0x6f]
   140001e58:	ba 80 00 00 00       	mov    edx,0x80
   140001e5d:	4c 8d 45 77          	lea    r8,[rbp+0x77]
   140001e61:	48 8d 4d 17          	lea    rcx,[rbp+0x17]
   140001e65:	ff 15 35 92 00 00    	call   QWORD PTR [rip+0x9235]        # 0x14000b0a0
   140001e6b:	8b d8                	mov    ebx,eax
   140001e6d:	85 c0                	test   eax,eax
   140001e6f:	0f 88 82 00 00 00    	js     0x140001ef7
   140001e75:	45 33 c0             	xor    r8d,r8d
   140001e78:	48 8d 4d 37          	lea    rcx,[rbp+0x37]
   140001e7c:	33 d2                	xor    edx,edx
   140001e7e:	ff 15 b4 91 00 00    	call   QWORD PTR [rip+0x91b4]        # 0x14000b038
   140001e84:	48 8b 55 6f          	mov    rdx,QWORD PTR [rbp+0x6f]
   140001e88:	48 8d 45 27          	lea    rax,[rbp+0x27]
   140001e8c:	48 89 44 24 40       	mov    QWORD PTR [rsp+0x40],rax
   140001e91:	45 33 c9             	xor    r9d,r9d
   140001e94:	48 8d 45 37          	lea    rax,[rbp+0x37]
   140001e98:	45 33 c0             	xor    r8d,r8d
   140001e9b:	48 89 44 24 38       	mov    QWORD PTR [rsp+0x38],rax
   140001ea0:	8b cf                	mov    ecx,edi
   140001ea2:	c6 44 24 30 00       	mov    BYTE PTR [rsp+0x30],0x0
   140001ea7:	83 64 24 28 00       	and    DWORD PTR [rsp+0x28],0x0
   140001eac:	48 83 64 24 20 00    	and    QWORD PTR [rsp+0x20],0x0
   140001eb2:	ff 15 c8 91 00 00    	call   QWORD PTR [rip+0x91c8]        # 0x14000b080
   140001eb8:	48 85 c0             	test   rax,rax
   140001ebb:	74 30                	je     0x140001eed
   140001ebd:	48 8b 4d 6f          	mov    rcx,QWORD PTR [rbp+0x6f]
   140001ec1:	48 8b d0             	mov    rdx,rax
   140001ec4:	ff 15 be 91 00 00    	call   QWORD PTR [rip+0x91be]        # 0x14000b088
   140001eca:	8b d8                	mov    ebx,eax
   140001ecc:	3d 03 01 00 00       	cmp    eax,0x103
   140001ed1:	75 1a                	jne    0x140001eed
   140001ed3:	48 83 64 24 20 00    	and    QWORD PTR [rsp+0x20],0x0
   140001ed9:	48 8d 4d 37          	lea    rcx,[rbp+0x37]
   140001edd:	45 33 c9             	xor    r9d,r9d
   140001ee0:	45 33 c0             	xor    r8d,r8d
   140001ee3:	41 8d 51 05          	lea    edx,[r9+0x5]
   140001ee7:	ff 15 6b 91 00 00    	call   QWORD PTR [rip+0x916b]        # 0x14000b058
   140001eed:	48 8b 4d 77          	mov    rcx,QWORD PTR [rbp+0x77]
   140001ef1:	ff 15 b9 91 00 00    	call   QWORD PTR [rip+0x91b9]        # 0x14000b0b0
   140001ef7:	4c 8d 9c 24 90 00 00 	lea    r11,[rsp+0x90]
   140001efe:	00 
   140001eff:	8b c3                	mov    eax,ebx
   140001f01:	49 8b 5b 10          	mov    rbx,QWORD PTR [r11+0x10]
   140001f05:	49 8b 7b 28          	mov    rdi,QWORD PTR [r11+0x28]
   140001f09:	49 8b e3             	mov    rsp,r11
   140001f0c:	5d                   	pop    rbp
   140001f0d:	c3                   	ret
   140001f0e:	cc                   	int3
   140001f0f:	cc                   	int3
   140001f10:	40 53                	rex push rbx
   140001f12:	48 83 ec 30          	sub    rsp,0x30
   140001f16:	48 83 b9 01 01 00 00 	cmp    QWORD PTR [rcx+0x101],0x0
   140001f1d:	00 
   140001f1e:	48 8b d9             	mov    rbx,rcx
   140001f21:	74 3f                	je     0x140001f62
   140001f23:	48 83 c1 29          	add    rcx,0x29
   140001f27:	45 33 c0             	xor    r8d,r8d
   140001f2a:	33 d2                	xor    edx,edx
   140001f2c:	ff 15 16 91 00 00    	call   QWORD PTR [rip+0x9116]        # 0x14000b048
   140001f32:	48 8b 8b 01 01 00 00 	mov    rcx,QWORD PTR [rbx+0x101]
   140001f39:	45 33 c9             	xor    r9d,r9d
   140001f3c:	48 83 64 24 20 00    	and    QWORD PTR [rsp+0x20],0x0
   140001f42:	45 33 c0             	xor    r8d,r8d
   140001f45:	33 d2                	xor    edx,edx
   140001f47:	ff 15 0b 91 00 00    	call   QWORD PTR [rip+0x910b]        # 0x14000b058
   140001f4d:	48 8b 8b 01 01 00 00 	mov    rcx,QWORD PTR [rbx+0x101]
   140001f54:	ff 15 56 91 00 00    	call   QWORD PTR [rip+0x9156]        # 0x14000b0b0
   140001f5a:	48 83 a3 01 01 00 00 	and    QWORD PTR [rbx+0x101],0x0
   140001f61:	00 
   140001f62:	48 83 c4 30          	add    rsp,0x30
   140001f66:	5b                   	pop    rbx
   140001f67:	c3                   	ret
   140001f68:	48 8b c4             	mov    rax,rsp
   140001f6b:	48 89 58 08          	mov    QWORD PTR [rax+0x8],rbx
   140001f6f:	48 89 68 18          	mov    QWORD PTR [rax+0x18],rbp
   140001f73:	48 89 70 20          	mov    QWORD PTR [rax+0x20],rsi
   140001f77:	88 50 10             	mov    BYTE PTR [rax+0x10],dl
   140001f7a:	57                   	push   rdi
   140001f7b:	41 54                	push   r12
   140001f7d:	41 55                	push   r13
   140001f7f:	41 56                	push   r14
   140001f81:	41 57                	push   r15
   140001f83:	48 83 ec 30          	sub    rsp,0x30
   140001f87:	45 33 e4             	xor    r12d,r12d
   140001f8a:	45 8a e8             	mov    r13b,r8b
   140001f8d:	4c 8b f9             	mov    r15,rcx
   140001f90:	4c 39 61 18          	cmp    QWORD PTR [rcx+0x18],r12
   140001f94:	0f 84 88 02 00 00    	je     0x140002222
   140001f9a:	48 8b 05 47 d0 00 00 	mov    rax,QWORD PTR [rip+0xd047]        # 0x14000efe8
   140001fa1:	48 8b 11             	mov    rdx,QWORD PTR [rcx]
   140001fa4:	48 8b 0d 45 d0 00 00 	mov    rcx,QWORD PTR [rip+0xd045]        # 0x14000eff0
   140001fab:	48 8b 80 00 01 00 00 	mov    rax,QWORD PTR [rax+0x100]
   140001fb2:	ff 15 88 91 00 00    	call   QWORD PTR [rip+0x9188]        # 0x14000b140
   140001fb8:	4c 8b f0             	mov    r14,rax
   140001fbb:	48 85 c0             	test   rax,rax
   140001fbe:	0f 84 5e 02 00 00    	je     0x140002222
   140001fc4:	8a 48 4c             	mov    cl,BYTE PTR [rax+0x4c]
   140001fc7:	33 d2                	xor    edx,edx
   140001fc9:	fe c1                	inc    cl
   140001fcb:	ff 15 0f 91 00 00    	call   QWORD PTR [rip+0x910f]        # 0x14000b0e0
   140001fd1:	48 8b d8             	mov    rbx,rax
   140001fd4:	48 85 c0             	test   rax,rax
   140001fd7:	0f 84 45 02 00 00    	je     0x140002222
   140001fdd:	bd 42 54 4d 54       	mov    ebp,0x544d5442
   140001fe2:	41 8d 74 24 48       	lea    esi,[r12+0x48]
   140001fe7:	44 8b c5             	mov    r8d,ebp
   140001fea:	8b d6                	mov    edx,esi
   140001fec:	b9 00 02 00 00       	mov    ecx,0x200
   140001ff1:	ff 15 69 90 00 00    	call   QWORD PTR [rip+0x9069]        # 0x14000b060
   140001ff7:	48 8b f8             	mov    rdi,rax
   140001ffa:	48 85 c0             	test   rax,rax
   140001ffd:	75 0e                	jne    0x14000200d
   140001fff:	48 8b cb             	mov    rcx,rbx
   140002002:	ff 15 18 91 00 00    	call   QWORD PTR [rip+0x9118]        # 0x14000b120
   140002008:	e9 15 02 00 00       	jmp    0x140002222
   14000200d:	4c 8b c6             	mov    r8,rsi
   140002010:	33 d2                	xor    edx,edx
   140002012:	48 8b cf             	mov    rcx,rdi
   140002015:	e8 26 5d 00 00       	call   0x140007d40
   14000201a:	48 8b 83 b8 00 00 00 	mov    rax,QWORD PTR [rbx+0xb8]
   140002021:	48 8d 0d d0 91 00 00 	lea    rcx,[rip+0x91d0]        # 0x14000b1f8
   140002028:	48 2b c6             	sub    rax,rsi
   14000202b:	44 8b c5             	mov    r8d,ebp
   14000202e:	ba 18 00 00 00       	mov    edx,0x18
   140002033:	48 89 48 08          	mov    QWORD PTR [rax+0x8],rcx
   140002037:	b9 00 02 00 00       	mov    ecx,0x200
   14000203c:	66 c7 00 1b 08       	mov    WORD PTR [rax],0x81b
   140002041:	c7 40 10 48 00 00 02 	mov    DWORD PTR [rax+0x10],0x2000048
   140002048:	48 89 78 18          	mov    QWORD PTR [rax+0x18],rdi
   14000204c:	4c 89 60 20          	mov    QWORD PTR [rax+0x20],r12
   140002050:	ff 15 0a 90 00 00    	call   QWORD PTR [rip+0x900a]        # 0x14000b060
   140002056:	48 8b f0             	mov    rsi,rax
   140002059:	48 85 c0             	test   rax,rax
   14000205c:	75 11                	jne    0x14000206f
   14000205e:	48 8b cb             	mov    rcx,rbx
   140002061:	ff 15 b9 90 00 00    	call   QWORD PTR [rip+0x90b9]        # 0x14000b120
   140002067:	48 8b cf             	mov    rcx,rdi
   14000206a:	e9 ab 01 00 00       	jmp    0x14000221a
   14000206f:	45 33 c0             	xor    r8d,r8d
   140002072:	33 d2                	xor    edx,edx
   140002074:	48 8b ce             	mov    rcx,rsi
   140002077:	ff 15 bb 8f 00 00    	call   QWORD PTR [rip+0x8fbb]        # 0x14000b038
   14000207d:	48 8b 83 b8 00 00 00 	mov    rax,QWORD PTR [rbx+0xb8]
   140002084:	48 8d 0d 15 8d 00 00 	lea    rcx,[rip+0x8d15]        # 0x14000ada0
   14000208b:	48 8b d3             	mov    rdx,rbx
   14000208e:	48 89 48 f0          	mov    QWORD PTR [rax-0x10],rcx
   140002092:	49 8b ce             	mov    rcx,r14
   140002095:	48 89 70 f8          	mov    QWORD PTR [rax-0x8],rsi
   140002099:	c6 40 bb e0          	mov    BYTE PTR [rax-0x45],0xe0
   14000209d:	c7 43 30 bb 00 00 c0 	mov    DWORD PTR [rbx+0x30],0xc00000bb
   1400020a4:	ff 15 de 8f 00 00    	call   QWORD PTR [rip+0x8fde]        # 0x14000b088
   1400020aa:	3d 03 01 00 00       	cmp    eax,0x103
   1400020af:	75 19                	jne    0x1400020ca
   1400020b1:	45 33 c9             	xor    r9d,r9d
   1400020b4:	4c 89 64 24 20       	mov    QWORD PTR [rsp+0x20],r12
   1400020b9:	45 33 c0             	xor    r8d,r8d
   1400020bc:	33 d2                	xor    edx,edx
   1400020be:	48 8b ce             	mov    rcx,rsi
   1400020c1:	ff 15 91 8f 00 00    	call   QWORD PTR [rip+0x8f91]        # 0x14000b058
   1400020c7:	8b 43 30             	mov    eax,DWORD PTR [rbx+0x30]
   1400020ca:	85 c0                	test   eax,eax
   1400020cc:	0f 88 31 01 00 00    	js     0x140002203
   1400020d2:	48 8b 47 20          	mov    rax,QWORD PTR [rdi+0x20]
   1400020d6:	8b d5                	mov    edx,ebp
   1400020d8:	b9 05 01 00 00       	mov    ecx,0x105
   1400020dd:	ff 15 5d 90 00 00    	call   QWORD PTR [rip+0x905d]        # 0x14000b140
   1400020e3:	48 8b e8             	mov    rbp,rax
   1400020e6:	48 85 c0             	test   rax,rax
   1400020e9:	0f 84 14 01 00 00    	je     0x140002203
   1400020ef:	ba 04 00 00 00       	mov    edx,0x4
   1400020f4:	b9 00 02 00 00       	mov    ecx,0x200
   1400020f9:	41 b8 42 54 4d 54    	mov    r8d,0x544d5442
   1400020ff:	ff 15 5b 8f 00 00    	call   QWORD PTR [rip+0x8f5b]        # 0x14000b060
   140002105:	4c 8b e0             	mov    r12,rax
   140002108:	48 85 c0             	test   rax,rax
   14000210b:	75 1b                	jne    0x140002128
   14000210d:	48 8b cb             	mov    rcx,rbx
   140002110:	ff 15 0a 90 00 00    	call   QWORD PTR [rip+0x900a]        # 0x14000b120
   140002116:	48 8b 47 28          	mov    rax,QWORD PTR [rdi+0x28]
   14000211a:	48 8b cd             	mov    rcx,rbp
   14000211d:	ff 15 1d 90 00 00    	call   QWORD PTR [rip+0x901d]        # 0x14000b140
   140002123:	e9 e4 00 00 00       	jmp    0x14000220c
   140002128:	66 c7 00 53 f8       	mov    WORD PTR [rax],0xf853
   14000212d:	45 33 c0             	xor    r8d,r8d
   140002130:	8a 44 24 68          	mov    al,BYTE PTR [rsp+0x68]
   140002134:	33 d2                	xor    edx,edx
   140002136:	41 88 44 24 02       	mov    BYTE PTR [r12+0x2],al
   14000213b:	48 8b ce             	mov    rcx,rsi
   14000213e:	45 88 6c 24 03       	mov    BYTE PTR [r12+0x3],r13b
   140002143:	49 8b 47 08          	mov    rax,QWORD PTR [r15+0x8]
   140002147:	48 89 45 70          	mov    QWORD PTR [rbp+0x70],rax
   14000214b:	4c 89 a5 88 00 00 00 	mov    QWORD PTR [rbp+0x88],r12
   140002152:	c7 85 84 00 00 00 04 	mov    DWORD PTR [rbp+0x84],0x4
   140002159:	00 00 00 
   14000215c:	49 8b 47 18          	mov    rax,QWORD PTR [r15+0x18]
   140002160:	83 a5 80 00 00 00 00 	and    DWORD PTR [rbp+0x80],0x0
   140002167:	48 89 45 78          	mov    QWORD PTR [rbp+0x78],rax
   14000216b:	48 8b 83 b8 00 00 00 	mov    rax,QWORD PTR [rbx+0xb8]
   140002172:	c6 40 b8 0f          	mov    BYTE PTR [rax-0x48],0xf
   140002176:	c7 40 d0 03 00 41 00 	mov    DWORD PTR [rax-0x30],0x410003
   14000217d:	48 89 68 c0          	mov    QWORD PTR [rax-0x40],rbp
   140002181:	ff 15 b1 8e 00 00    	call   QWORD PTR [rip+0x8eb1]        # 0x14000b038
   140002187:	48 8b 83 b8 00 00 00 	mov    rax,QWORD PTR [rbx+0xb8]
   14000218e:	48 8d 0d 0b 8c 00 00 	lea    rcx,[rip+0x8c0b]        # 0x14000ada0
   140002195:	48 8b d3             	mov    rdx,rbx
   140002198:	48 89 48 f0          	mov    QWORD PTR [rax-0x10],rcx
   14000219c:	49 8b ce             	mov    rcx,r14
   14000219f:	48 89 70 f8          	mov    QWORD PTR [rax-0x8],rsi
   1400021a3:	c6 40 bb e0          	mov    BYTE PTR [rax-0x45],0xe0
   1400021a7:	c7 43 30 bb 00 00 c0 	mov    DWORD PTR [rbx+0x30],0xc00000bb
   1400021ae:	ff 15 d4 8e 00 00    	call   QWORD PTR [rip+0x8ed4]        # 0x14000b088
   1400021b4:	3d 03 01 00 00       	cmp    eax,0x103
   1400021b9:	75 17                	jne    0x1400021d2
   1400021bb:	48 83 64 24 20 00    	and    QWORD PTR [rsp+0x20],0x0
   1400021c1:	45 33 c9             	xor    r9d,r9d
   1400021c4:	45 33 c0             	xor    r8d,r8d
   1400021c7:	33 d2                	xor    edx,edx
   1400021c9:	48 8b ce             	mov    rcx,rsi
   1400021cc:	ff 15 86 8e 00 00    	call   QWORD PTR [rip+0x8e86]        # 0x14000b058
   1400021d2:	48 8b cb             	mov    rcx,rbx
   1400021d5:	ff 15 45 8f 00 00    	call   QWORD PTR [rip+0x8f45]        # 0x14000b120
   1400021db:	48 8b 47 28          	mov    rax,QWORD PTR [rdi+0x28]
   1400021df:	48 8b cd             	mov    rcx,rbp
   1400021e2:	ff 15 58 8f 00 00    	call   QWORD PTR [rip+0x8f58]        # 0x14000b140
   1400021e8:	33 d2                	xor    edx,edx
   1400021ea:	48 8b cf             	mov    rcx,rdi
   1400021ed:	ff 15 75 8e 00 00    	call   QWORD PTR [rip+0x8e75]        # 0x14000b068
   1400021f3:	33 d2                	xor    edx,edx
   1400021f5:	48 8b ce             	mov    rcx,rsi
   1400021f8:	ff 15 6a 8e 00 00    	call   QWORD PTR [rip+0x8e6a]        # 0x14000b068
   1400021fe:	49 8b cc             	mov    rcx,r12
   140002201:	eb 17                	jmp    0x14000221a
   140002203:	48 8b cb             	mov    rcx,rbx
   140002206:	ff 15 14 8f 00 00    	call   QWORD PTR [rip+0x8f14]        # 0x14000b120
   14000220c:	33 d2                	xor    edx,edx
   14000220e:	48 8b cf             	mov    rcx,rdi
   140002211:	ff 15 51 8e 00 00    	call   QWORD PTR [rip+0x8e51]        # 0x14000b068
   140002217:	48 8b ce             	mov    rcx,rsi
   14000221a:	33 d2                	xor    edx,edx
   14000221c:	ff 15 46 8e 00 00    	call   QWORD PTR [rip+0x8e46]        # 0x14000b068
   140002222:	48 8b 5c 24 60       	mov    rbx,QWORD PTR [rsp+0x60]
   140002227:	48 8b 6c 24 70       	mov    rbp,QWORD PTR [rsp+0x70]
   14000222c:	48 8b 74 24 78       	mov    rsi,QWORD PTR [rsp+0x78]
   140002231:	48 83 c4 30          	add    rsp,0x30
   140002235:	41 5f                	pop    r15
   140002237:	41 5e                	pop    r14
   140002239:	41 5d                	pop    r13
   14000223b:	41 5c                	pop    r12
   14000223d:	5f                   	pop    rdi
   14000223e:	c3                   	ret
   14000223f:	cc                   	int3
   140002240:	8a 01                	mov    al,BYTE PTR [rcx]
   140002242:	24 07                	and    al,0x7
   140002244:	3c 05                	cmp    al,0x5
   140002246:	75 0d                	jne    0x140002255
   140002248:	c6 02 01             	mov    BYTE PTR [rdx],0x1
   14000224b:	0f b6 49 01          	movzx  ecx,BYTE PTR [rcx+0x1]
   14000224f:	41 89 08             	mov    DWORD PTR [r8],ecx
   140002252:	b0 01                	mov    al,0x1
   140002254:	c3                   	ret
   140002255:	3c 06                	cmp    al,0x6
   140002257:	75 16                	jne    0x14000226f
   140002259:	c6 02 02             	mov    BYTE PTR [rdx],0x2
   14000225c:	0f b7 41 01          	movzx  eax,WORD PTR [rcx+0x1]
   140002260:	41 89 00             	mov    DWORD PTR [r8],eax
   140002263:	66 c1 c0 08          	rol    ax,0x8
   140002267:	0f b7 c0             	movzx  eax,ax
   14000226a:	41 89 00             	mov    DWORD PTR [r8],eax
   14000226d:	eb e3                	jmp    0x140002252
   14000226f:	3c 07                	cmp    al,0x7
   140002271:	75 0a                	jne    0x14000227d
   140002273:	c6 02 04             	mov    BYTE PTR [rdx],0x4
   140002276:	8b 41 01             	mov    eax,DWORD PTR [rcx+0x1]
   140002279:	0f c8                	bswap  eax
   14000227b:	eb ed                	jmp    0x14000226a
   14000227d:	32 c0                	xor    al,al
   14000227f:	c3                   	ret
   140002280:	40 53                	rex push rbx
   140002282:	48 83 ec 20          	sub    rsp,0x20
   140002286:	48 8b d9             	mov    rbx,rcx
   140002289:	85 d2                	test   edx,edx
   14000228b:	74 5b                	je     0x1400022e8
   14000228d:	83 ea 01             	sub    edx,0x1
   140002290:	74 32                	je     0x1400022c4
   140002292:	83 fa 01             	cmp    edx,0x1
   140002295:	74 09                	je     0x1400022a0
   140002297:	c6 81 12 18 00 00 05 	mov    BYTE PTR [rcx+0x1812],0x5
   14000229e:	eb 4f                	jmp    0x1400022ef
   1400022a0:	80 b9 12 18 00 00 03 	cmp    BYTE PTR [rcx+0x1812],0x3
   1400022a7:	74 46                	je     0x1400022ef
   1400022a9:	48 81 c1 a1 00 00 00 	add    rcx,0xa1
   1400022b0:	45 33 c0             	xor    r8d,r8d
   1400022b3:	33 d2                	xor    edx,edx
   1400022b5:	ff 15 8d 8d 00 00    	call   QWORD PTR [rip+0x8d8d]        # 0x14000b048
   1400022bb:	c6 83 12 18 00 00 02 	mov    BYTE PTR [rbx+0x1812],0x2
   1400022c2:	eb 2b                	jmp    0x1400022ef
   1400022c4:	80 b9 12 18 00 00 03 	cmp    BYTE PTR [rcx+0x1812],0x3
   1400022cb:	74 22                	je     0x1400022ef
   1400022cd:	48 81 c1 89 00 00 00 	add    rcx,0x89
   1400022d4:	45 33 c0             	xor    r8d,r8d
   1400022d7:	33 d2                	xor    edx,edx
   1400022d9:	ff 15 69 8d 00 00    	call   QWORD PTR [rip+0x8d69]        # 0x14000b048
   1400022df:	c6 83 12 18 00 00 01 	mov    BYTE PTR [rbx+0x1812],0x1
   1400022e6:	eb 07                	jmp    0x1400022ef
   1400022e8:	c6 81 12 18 00 00 00 	mov    BYTE PTR [rcx+0x1812],0x0
   1400022ef:	48 83 c4 20          	add    rsp,0x20
   1400022f3:	5b                   	pop    rbx
   1400022f4:	c3                   	ret
   1400022f5:	cc                   	int3
   1400022f6:	cc                   	int3
   1400022f7:	cc                   	int3
   1400022f8:	48 8b c4             	mov    rax,rsp
   1400022fb:	48 89 58 08          	mov    QWORD PTR [rax+0x8],rbx
   1400022ff:	48 89 68 10          	mov    QWORD PTR [rax+0x10],rbp
   140002303:	48 89 70 18          	mov    QWORD PTR [rax+0x18],rsi
   140002307:	48 89 78 20          	mov    QWORD PTR [rax+0x20],rdi
   14000230b:	41 54                	push   r12
   14000230d:	41 56                	push   r14
   14000230f:	41 57                	push   r15
   140002311:	48 83 ec 30          	sub    rsp,0x30
   140002315:	48 8b 05 cc cc 00 00 	mov    rax,QWORD PTR [rip+0xcccc]        # 0x14000efe8
   14000231c:	4c 8b e1             	mov    r12,rcx
   14000231f:	48 8b 11             	mov    rdx,QWORD PTR [rcx]
   140002322:	48 8b 0d c7 cc 00 00 	mov    rcx,QWORD PTR [rip+0xccc7]        # 0x14000eff0
   140002329:	48 8b 80 00 01 00 00 	mov    rax,QWORD PTR [rax+0x100]
   140002330:	ff 15 0a 8e 00 00    	call   QWORD PTR [rip+0x8e0a]        # 0x14000b140
   140002336:	4c 8b f0             	mov    r14,rax
   140002339:	48 85 c0             	test   rax,rax
   14000233c:	0f 84 50 02 00 00    	je     0x140002592
   140002342:	8a 48 4c             	mov    cl,BYTE PTR [rax+0x4c]
   140002345:	33 d2                	xor    edx,edx
   140002347:	ff 15 93 8d 00 00    	call   QWORD PTR [rip+0x8d93]        # 0x14000b0e0
   14000234d:	48 8b d8             	mov    rbx,rax
   140002350:	48 85 c0             	test   rax,rax
   140002353:	0f 84 39 02 00 00    	je     0x140002592
   140002359:	41 bf 42 54 4d 54    	mov    r15d,0x544d5442
   14000235f:	be 48 00 00 00       	mov    esi,0x48
   140002364:	bd 00 02 00 00       	mov    ebp,0x200
   140002369:	45 8b c7             	mov    r8d,r15d
   14000236c:	8b d6                	mov    edx,esi
   14000236e:	8b cd                	mov    ecx,ebp
   140002370:	ff 15 ea 8c 00 00    	call   QWORD PTR [rip+0x8cea]        # 0x14000b060
   140002376:	48 8b f8             	mov    rdi,rax
   140002379:	48 85 c0             	test   rax,rax
   14000237c:	75 0e                	jne    0x14000238c
   14000237e:	48 8b cb             	mov    rcx,rbx
   140002381:	ff 15 99 8d 00 00    	call   QWORD PTR [rip+0x8d99]        # 0x14000b120
   140002387:	e9 06 02 00 00       	jmp    0x140002592
   14000238c:	4c 8b c6             	mov    r8,rsi
   14000238f:	33 d2                	xor    edx,edx
   140002391:	48 8b cf             	mov    rcx,rdi
   140002394:	e8 a7 59 00 00       	call   0x140007d40
   140002399:	48 8b 83 b8 00 00 00 	mov    rax,QWORD PTR [rbx+0xb8]
   1400023a0:	48 8d 0d 51 8e 00 00 	lea    rcx,[rip+0x8e51]        # 0x14000b1f8
   1400023a7:	48 2b c6             	sub    rax,rsi
   1400023aa:	45 8b c7             	mov    r8d,r15d
   1400023ad:	ba 18 00 00 00       	mov    edx,0x18
   1400023b2:	48 83 60 20 00       	and    QWORD PTR [rax+0x20],0x0
   1400023b7:	48 89 48 08          	mov    QWORD PTR [rax+0x8],rcx
   1400023bb:	8b cd                	mov    ecx,ebp
   1400023bd:	66 c7 00 1b 08       	mov    WORD PTR [rax],0x81b
   1400023c2:	c7 40 10 48 00 00 02 	mov    DWORD PTR [rax+0x10],0x2000048
   1400023c9:	48 89 78 18          	mov    QWORD PTR [rax+0x18],rdi
   1400023cd:	ff 15 8d 8c 00 00    	call   QWORD PTR [rip+0x8c8d]        # 0x14000b060
   1400023d3:	48 8b f0             	mov    rsi,rax
   1400023d6:	48 85 c0             	test   rax,rax
   1400023d9:	75 11                	jne    0x1400023ec
   1400023db:	48 8b cb             	mov    rcx,rbx
   1400023de:	ff 15 3c 8d 00 00    	call   QWORD PTR [rip+0x8d3c]        # 0x14000b120
   1400023e4:	48 8b cf             	mov    rcx,rdi
   1400023e7:	e9 9e 01 00 00       	jmp    0x14000258a
   1400023ec:	45 33 c0             	xor    r8d,r8d
   1400023ef:	33 d2                	xor    edx,edx
   1400023f1:	48 8b ce             	mov    rcx,rsi
   1400023f4:	ff 15 3e 8c 00 00    	call   QWORD PTR [rip+0x8c3e]        # 0x14000b038
   1400023fa:	48 8b 83 b8 00 00 00 	mov    rax,QWORD PTR [rbx+0xb8]
   140002401:	48 8d 0d 98 89 00 00 	lea    rcx,[rip+0x8998]        # 0x14000ada0
   140002408:	48 8b d3             	mov    rdx,rbx
   14000240b:	48 89 48 f0          	mov    QWORD PTR [rax-0x10],rcx
   14000240f:	49 8b ce             	mov    rcx,r14
   140002412:	48 89 70 f8          	mov    QWORD PTR [rax-0x8],rsi
   140002416:	c6 40 bb e0          	mov    BYTE PTR [rax-0x45],0xe0
   14000241a:	c7 43 30 bb 00 00 c0 	mov    DWORD PTR [rbx+0x30],0xc00000bb
   140002421:	ff 15 61 8c 00 00    	call   QWORD PTR [rip+0x8c61]        # 0x14000b088
   140002427:	3d 03 01 00 00       	cmp    eax,0x103
   14000242c:	75 1a                	jne    0x140002448
   14000242e:	48 83 64 24 20 00    	and    QWORD PTR [rsp+0x20],0x0
   140002434:	45 33 c9             	xor    r9d,r9d
   140002437:	45 33 c0             	xor    r8d,r8d
   14000243a:	33 d2                	xor    edx,edx
   14000243c:	48 8b ce             	mov    rcx,rsi
   14000243f:	ff 15 13 8c 00 00    	call   QWORD PTR [rip+0x8c13]        # 0x14000b058
   140002445:	8b 43 30             	mov    eax,DWORD PTR [rbx+0x30]
   140002448:	85 c0                	test   eax,eax
   14000244a:	0f 88 23 01 00 00    	js     0x140002573
   140002450:	48 8b 47 20          	mov    rax,QWORD PTR [rdi+0x20]
   140002454:	41 8b d7             	mov    edx,r15d
   140002457:	b9 05 01 00 00       	mov    ecx,0x105
   14000245c:	ff 15 de 8c 00 00    	call   QWORD PTR [rip+0x8cde]        # 0x14000b140
   140002462:	48 8b e8             	mov    rbp,rax
   140002465:	48 85 c0             	test   rax,rax
   140002468:	0f 84 05 01 00 00    	je     0x140002573
   14000246e:	45 8b c7             	mov    r8d,r15d
   140002471:	ba 02 00 00 00       	mov    edx,0x2
   140002476:	b9 00 02 00 00       	mov    ecx,0x200
   14000247b:	ff 15 df 8b 00 00    	call   QWORD PTR [rip+0x8bdf]        # 0x14000b060
   140002481:	4c 8b f8             	mov    r15,rax
   140002484:	48 85 c0             	test   rax,rax
   140002487:	75 1b                	jne    0x1400024a4
   140002489:	48 8b cb             	mov    rcx,rbx
   14000248c:	ff 15 8e 8c 00 00    	call   QWORD PTR [rip+0x8c8e]        # 0x14000b120
   140002492:	48 8b 47 28          	mov    rax,QWORD PTR [rdi+0x28]
   140002496:	48 8b cd             	mov    rcx,rbp
   140002499:	ff 15 a1 8c 00 00    	call   QWORD PTR [rip+0x8ca1]        # 0x14000b140
   14000249f:	e9 d8 00 00 00       	jmp    0x14000257c
   1400024a4:	66 c7 00 53 f2       	mov    WORD PTR [rax],0xf253
   1400024a9:	45 33 c0             	xor    r8d,r8d
   1400024ac:	49 8b 44 24 08       	mov    rax,QWORD PTR [r12+0x8]
   1400024b1:	33 d2                	xor    edx,edx
   1400024b3:	48 89 45 70          	mov    QWORD PTR [rbp+0x70],rax
   1400024b7:	48 8b ce             	mov    rcx,rsi
   1400024ba:	4c 89 bd 88 00 00 00 	mov    QWORD PTR [rbp+0x88],r15
   1400024c1:	c7 85 84 00 00 00 02 	mov    DWORD PTR [rbp+0x84],0x2
   1400024c8:	00 00 00 
   1400024cb:	49 8b 44 24 18       	mov    rax,QWORD PTR [r12+0x18]
   1400024d0:	83 a5 80 00 00 00 00 	and    DWORD PTR [rbp+0x80],0x0
   1400024d7:	48 89 45 78          	mov    QWORD PTR [rbp+0x78],rax
   1400024db:	48 8b 83 b8 00 00 00 	mov    rax,QWORD PTR [rbx+0xb8]
   1400024e2:	c6 40 b8 0f          	mov    BYTE PTR [rax-0x48],0xf
   1400024e6:	c7 40 d0 03 00 41 00 	mov    DWORD PTR [rax-0x30],0x410003
   1400024ed:	48 89 68 c0          	mov    QWORD PTR [rax-0x40],rbp
   1400024f1:	ff 15 41 8b 00 00    	call   QWORD PTR [rip+0x8b41]        # 0x14000b038
   1400024f7:	48 8b 83 b8 00 00 00 	mov    rax,QWORD PTR [rbx+0xb8]
   1400024fe:	48 8d 0d 9b 88 00 00 	lea    rcx,[rip+0x889b]        # 0x14000ada0
   140002505:	48 8b d3             	mov    rdx,rbx
   140002508:	48 89 48 f0          	mov    QWORD PTR [rax-0x10],rcx
   14000250c:	49 8b ce             	mov    rcx,r14
   14000250f:	48 89 70 f8          	mov    QWORD PTR [rax-0x8],rsi
   140002513:	c6 40 bb e0          	mov    BYTE PTR [rax-0x45],0xe0
   140002517:	c7 43 30 bb 00 00 c0 	mov    DWORD PTR [rbx+0x30],0xc00000bb
   14000251e:	ff 15 64 8b 00 00    	call   QWORD PTR [rip+0x8b64]        # 0x14000b088
   140002524:	3d 03 01 00 00       	cmp    eax,0x103
   140002529:	75 17                	jne    0x140002542
   14000252b:	48 83 64 24 20 00    	and    QWORD PTR [rsp+0x20],0x0
   140002531:	45 33 c9             	xor    r9d,r9d
   140002534:	45 33 c0             	xor    r8d,r8d
   140002537:	33 d2                	xor    edx,edx
   140002539:	48 8b ce             	mov    rcx,rsi
   14000253c:	ff 15 16 8b 00 00    	call   QWORD PTR [rip+0x8b16]        # 0x14000b058
   140002542:	48 8b cb             	mov    rcx,rbx
   140002545:	ff 15 d5 8b 00 00    	call   QWORD PTR [rip+0x8bd5]        # 0x14000b120
   14000254b:	48 8b 47 28          	mov    rax,QWORD PTR [rdi+0x28]
   14000254f:	48 8b cd             	mov    rcx,rbp
   140002552:	ff 15 e8 8b 00 00    	call   QWORD PTR [rip+0x8be8]        # 0x14000b140
   140002558:	33 d2                	xor    edx,edx
   14000255a:	48 8b cf             	mov    rcx,rdi
   14000255d:	ff 15 05 8b 00 00    	call   QWORD PTR [rip+0x8b05]        # 0x14000b068
   140002563:	33 d2                	xor    edx,edx
   140002565:	48 8b ce             	mov    rcx,rsi
   140002568:	ff 15 fa 8a 00 00    	call   QWORD PTR [rip+0x8afa]        # 0x14000b068
   14000256e:	49 8b cf             	mov    rcx,r15
   140002571:	eb 17                	jmp    0x14000258a
   140002573:	48 8b cb             	mov    rcx,rbx
   140002576:	ff 15 a4 8b 00 00    	call   QWORD PTR [rip+0x8ba4]        # 0x14000b120
   14000257c:	33 d2                	xor    edx,edx
   14000257e:	48 8b cf             	mov    rcx,rdi
   140002581:	ff 15 e1 8a 00 00    	call   QWORD PTR [rip+0x8ae1]        # 0x14000b068
   140002587:	48 8b ce             	mov    rcx,rsi
   14000258a:	33 d2                	xor    edx,edx
   14000258c:	ff 15 d6 8a 00 00    	call   QWORD PTR [rip+0x8ad6]        # 0x14000b068
   140002592:	48 8b 5c 24 50       	mov    rbx,QWORD PTR [rsp+0x50]
   140002597:	48 8b 6c 24 58       	mov    rbp,QWORD PTR [rsp+0x58]
   14000259c:	48 8b 74 24 60       	mov    rsi,QWORD PTR [rsp+0x60]
   1400025a1:	48 8b 7c 24 68       	mov    rdi,QWORD PTR [rsp+0x68]
   1400025a6:	48 83 c4 30          	add    rsp,0x30
   1400025aa:	41 5f                	pop    r15
   1400025ac:	41 5e                	pop    r14
   1400025ae:	41 5c                	pop    r12
   1400025b0:	c3                   	ret
   1400025b1:	cc                   	int3
   1400025b2:	cc                   	int3
   1400025b3:	cc                   	int3
   1400025b4:	48 89 5c 24 08       	mov    QWORD PTR [rsp+0x8],rbx
   1400025b9:	48 89 6c 24 10       	mov    QWORD PTR [rsp+0x10],rbp
   1400025be:	48 89 74 24 18       	mov    QWORD PTR [rsp+0x18],rsi
   1400025c3:	57                   	push   rdi
   1400025c4:	41 54                	push   r12
   1400025c6:	41 55                	push   r13
   1400025c8:	41 56                	push   r14
   1400025ca:	41 57                	push   r15
   1400025cc:	48 83 ec 30          	sub    rsp,0x30
   1400025d0:	45 33 f6             	xor    r14d,r14d
   1400025d3:	44 8a e2             	mov    r12b,dl
   1400025d6:	4c 8b f9             	mov    r15,rcx
   1400025d9:	4c 39 71 18          	cmp    QWORD PTR [rcx+0x18],r14
   1400025dd:	0f 84 a3 02 00 00    	je     0x140002886
   1400025e3:	48 8b 05 fe c9 00 00 	mov    rax,QWORD PTR [rip+0xc9fe]        # 0x14000efe8
   1400025ea:	48 8b 11             	mov    rdx,QWORD PTR [rcx]
   1400025ed:	48 8b 0d fc c9 00 00 	mov    rcx,QWORD PTR [rip+0xc9fc]        # 0x14000eff0
   1400025f4:	48 8b 80 00 01 00 00 	mov    rax,QWORD PTR [rax+0x100]
   1400025fb:	ff 15 3f 8b 00 00    	call   QWORD PTR [rip+0x8b3f]        # 0x14000b140
   140002601:	4c 8b e8             	mov    r13,rax
   140002604:	48 85 c0             	test   rax,rax
   140002607:	0f 84 79 02 00 00    	je     0x140002886
   14000260d:	8a 48 4c             	mov    cl,BYTE PTR [rax+0x4c]
   140002610:	33 d2                	xor    edx,edx
   140002612:	fe c1                	inc    cl
   140002614:	ff 15 c6 8a 00 00    	call   QWORD PTR [rip+0x8ac6]        # 0x14000b0e0
   14000261a:	48 8b d8             	mov    rbx,rax
   14000261d:	48 85 c0             	test   rax,rax
   140002620:	0f 84 60 02 00 00    	je     0x140002886
   140002626:	bd 42 54 4d 54       	mov    ebp,0x544d5442
   14000262b:	41 8d 56 48          	lea    edx,[r14+0x48]
   14000262f:	be 00 02 00 00       	mov    esi,0x200
   140002634:	44 8b c5             	mov    r8d,ebp
   140002637:	8b ce                	mov    ecx,esi
   140002639:	ff 15 21 8a 00 00    	call   QWORD PTR [rip+0x8a21]        # 0x14000b060
   14000263f:	48 8b f8             	mov    rdi,rax
   140002642:	48 85 c0             	test   rax,rax
   140002645:	75 0e                	jne    0x140002655
   140002647:	48 8b cb             	mov    rcx,rbx
   14000264a:	ff 15 d0 8a 00 00    	call   QWORD PTR [rip+0x8ad0]        # 0x14000b120
   140002650:	e9 31 02 00 00       	jmp    0x140002886
   140002655:	33 d2                	xor    edx,edx
   140002657:	48 8b cf             	mov    rcx,rdi
   14000265a:	44 8d 42 48          	lea    r8d,[rdx+0x48]
   14000265e:	e8 dd 56 00 00       	call   0x140007d40
   140002663:	48 8b 83 b8 00 00 00 	mov    rax,QWORD PTR [rbx+0xb8]
   14000266a:	48 8d 0d 87 8b 00 00 	lea    rcx,[rip+0x8b87]        # 0x14000b1f8
   140002671:	44 8b c5             	mov    r8d,ebp
   140002674:	ba 18 00 00 00       	mov    edx,0x18
   140002679:	48 89 48 c0          	mov    QWORD PTR [rax-0x40],rcx
   14000267d:	8b ce                	mov    ecx,esi
   14000267f:	66 c7 40 b8 1b 08    	mov    WORD PTR [rax-0x48],0x81b
   140002685:	c7 40 c8 48 00 00 02 	mov    DWORD PTR [rax-0x38],0x2000048
   14000268c:	48 89 78 d0          	mov    QWORD PTR [rax-0x30],rdi
   140002690:	4c 89 70 d8          	mov    QWORD PTR [rax-0x28],r14
   140002694:	ff 15 c6 89 00 00    	call   QWORD PTR [rip+0x89c6]        # 0x14000b060
   14000269a:	48 8b f0             	mov    rsi,rax
   14000269d:	48 85 c0             	test   rax,rax
   1400026a0:	75 11                	jne    0x1400026b3
   1400026a2:	48 8b cb             	mov    rcx,rbx
   1400026a5:	ff 15 75 8a 00 00    	call   QWORD PTR [rip+0x8a75]        # 0x14000b120
   1400026ab:	48 8b cf             	mov    rcx,rdi
   1400026ae:	e9 cb 01 00 00       	jmp    0x14000287e
   1400026b3:	45 33 c0             	xor    r8d,r8d
   1400026b6:	33 d2                	xor    edx,edx
   1400026b8:	48 8b ce             	mov    rcx,rsi
   1400026bb:	ff 15 77 89 00 00    	call   QWORD PTR [rip+0x8977]        # 0x14000b038
   1400026c1:	48 8b 83 b8 00 00 00 	mov    rax,QWORD PTR [rbx+0xb8]
   1400026c8:	48 8d 0d d1 86 00 00 	lea    rcx,[rip+0x86d1]        # 0x14000ada0
   1400026cf:	48 8b d3             	mov    rdx,rbx
   1400026d2:	48 89 48 f0          	mov    QWORD PTR [rax-0x10],rcx
   1400026d6:	49 8b cd             	mov    rcx,r13
   1400026d9:	48 89 70 f8          	mov    QWORD PTR [rax-0x8],rsi
   1400026dd:	c6 40 bb e0          	mov    BYTE PTR [rax-0x45],0xe0
   1400026e1:	c7 43 30 bb 00 00 c0 	mov    DWORD PTR [rbx+0x30],0xc00000bb
   1400026e8:	ff 15 9a 89 00 00    	call   QWORD PTR [rip+0x899a]        # 0x14000b088
   1400026ee:	3d 03 01 00 00       	cmp    eax,0x103
   1400026f3:	75 19                	jne    0x14000270e
   1400026f5:	45 33 c9             	xor    r9d,r9d
   1400026f8:	4c 89 74 24 20       	mov    QWORD PTR [rsp+0x20],r14
   1400026fd:	45 33 c0             	xor    r8d,r8d
   140002700:	33 d2                	xor    edx,edx
   140002702:	48 8b ce             	mov    rcx,rsi
   140002705:	ff 15 4d 89 00 00    	call   QWORD PTR [rip+0x894d]        # 0x14000b058
   14000270b:	8b 43 30             	mov    eax,DWORD PTR [rbx+0x30]
   14000270e:	85 c0                	test   eax,eax
   140002710:	0f 88 51 01 00 00    	js     0x140002867
   140002716:	48 8b 47 20          	mov    rax,QWORD PTR [rdi+0x20]
   14000271a:	8b d5                	mov    edx,ebp
   14000271c:	b9 05 01 00 00       	mov    ecx,0x105
   140002721:	ff 15 19 8a 00 00    	call   QWORD PTR [rip+0x8a19]        # 0x14000b140
   140002727:	48 8b e8             	mov    rbp,rax
   14000272a:	48 85 c0             	test   rax,rax
   14000272d:	0f 84 34 01 00 00    	je     0x140002867
   140002733:	ba 05 00 00 00       	mov    edx,0x5
   140002738:	b9 00 02 00 00       	mov    ecx,0x200
   14000273d:	41 b8 42 54 4d 54    	mov    r8d,0x544d5442
   140002743:	ff 15 17 89 00 00    	call   QWORD PTR [rip+0x8917]        # 0x14000b060
   140002749:	4c 8b f0             	mov    r14,rax
   14000274c:	48 85 c0             	test   rax,rax
   14000274f:	75 1b                	jne    0x14000276c
   140002751:	48 8b cb             	mov    rcx,rbx
   140002754:	ff 15 c6 89 00 00    	call   QWORD PTR [rip+0x89c6]        # 0x14000b120
   14000275a:	48 8b 47 28          	mov    rax,QWORD PTR [rdi+0x28]
   14000275e:	48 8b cd             	mov    rcx,rbp
   140002761:	ff 15 d9 89 00 00    	call   QWORD PTR [rip+0x89d9]        # 0x14000b140
   140002767:	e9 04 01 00 00       	jmp    0x140002870
   14000276c:	c6 00 53             	mov    BYTE PTR [rax],0x53
   14000276f:	41 80 bf 2c 18 00 00 	cmp    BYTE PTR [r15+0x182c],0x0
   140002776:	00 
   140002777:	75 17                	jne    0x140002790
   140002779:	66 c7 40 01 f1 02    	mov    WORD PTR [rax+0x1],0x2f1
   14000277f:	45 84 e4             	test   r12b,r12b
   140002782:	0f 95 c0             	setne  al
   140002785:	41 88 46 03          	mov    BYTE PTR [r14+0x3],al
   140002789:	b8 04 00 00 00       	mov    eax,0x4
   14000278e:	eb 13                	jmp    0x1400027a3
   140002790:	c6 40 01 d7          	mov    BYTE PTR [rax+0x1],0xd7
   140002794:	45 84 e4             	test   r12b,r12b
   140002797:	0f 95 c0             	setne  al
   14000279a:	41 88 46 02          	mov    BYTE PTR [r14+0x2],al
   14000279e:	b8 03 00 00 00       	mov    eax,0x3
   1400027a3:	89 85 84 00 00 00    	mov    DWORD PTR [rbp+0x84],eax
   1400027a9:	45 33 c0             	xor    r8d,r8d
   1400027ac:	49 8b 47 08          	mov    rax,QWORD PTR [r15+0x8]
   1400027b0:	33 d2                	xor    edx,edx
   1400027b2:	48 89 45 70          	mov    QWORD PTR [rbp+0x70],rax
   1400027b6:	48 8b ce             	mov    rcx,rsi
   1400027b9:	4c 89 b5 88 00 00 00 	mov    QWORD PTR [rbp+0x88],r14
   1400027c0:	49 8b 47 18          	mov    rax,QWORD PTR [r15+0x18]
   1400027c4:	83 a5 80 00 00 00 00 	and    DWORD PTR [rbp+0x80],0x0
   1400027cb:	48 89 45 78          	mov    QWORD PTR [rbp+0x78],rax
   1400027cf:	48 8b 83 b8 00 00 00 	mov    rax,QWORD PTR [rbx+0xb8]
   1400027d6:	c6 40 b8 0f          	mov    BYTE PTR [rax-0x48],0xf
   1400027da:	c7 40 d0 03 00 41 00 	mov    DWORD PTR [rax-0x30],0x410003
   1400027e1:	48 89 68 c0          	mov    QWORD PTR [rax-0x40],rbp
   1400027e5:	ff 15 4d 88 00 00    	call   QWORD PTR [rip+0x884d]        # 0x14000b038
   1400027eb:	48 8b 83 b8 00 00 00 	mov    rax,QWORD PTR [rbx+0xb8]
   1400027f2:	48 8d 0d a7 85 00 00 	lea    rcx,[rip+0x85a7]        # 0x14000ada0
   1400027f9:	48 8b d3             	mov    rdx,rbx
   1400027fc:	48 89 48 f0          	mov    QWORD PTR [rax-0x10],rcx
   140002800:	49 8b cd             	mov    rcx,r13
   140002803:	48 89 70 f8          	mov    QWORD PTR [rax-0x8],rsi
   140002807:	c6 40 bb e0          	mov    BYTE PTR [rax-0x45],0xe0
   14000280b:	c7 43 30 bb 00 00 c0 	mov    DWORD PTR [rbx+0x30],0xc00000bb
   140002812:	ff 15 70 88 00 00    	call   QWORD PTR [rip+0x8870]        # 0x14000b088
   140002818:	3d 03 01 00 00       	cmp    eax,0x103
   14000281d:	75 17                	jne    0x140002836
   14000281f:	48 83 64 24 20 00    	and    QWORD PTR [rsp+0x20],0x0
   140002825:	45 33 c9             	xor    r9d,r9d
   140002828:	45 33 c0             	xor    r8d,r8d
   14000282b:	33 d2                	xor    edx,edx
   14000282d:	48 8b ce             	mov    rcx,rsi
   140002830:	ff 15 22 88 00 00    	call   QWORD PTR [rip+0x8822]        # 0x14000b058
   140002836:	48 8b cb             	mov    rcx,rbx
   140002839:	ff 15 e1 88 00 00    	call   QWORD PTR [rip+0x88e1]        # 0x14000b120
   14000283f:	48 8b 47 28          	mov    rax,QWORD PTR [rdi+0x28]
   140002843:	48 8b cd             	mov    rcx,rbp
   140002846:	ff 15 f4 88 00 00    	call   QWORD PTR [rip+0x88f4]        # 0x14000b140
   14000284c:	33 d2                	xor    edx,edx
   14000284e:	48 8b cf             	mov    rcx,rdi
   140002851:	ff 15 11 88 00 00    	call   QWORD PTR [rip+0x8811]        # 0x14000b068
   140002857:	33 d2                	xor    edx,edx
   140002859:	48 8b ce             	mov    rcx,rsi
   14000285c:	ff 15 06 88 00 00    	call   QWORD PTR [rip+0x8806]        # 0x14000b068
   140002862:	49 8b ce             	mov    rcx,r14
   140002865:	eb 17                	jmp    0x14000287e
   140002867:	48 8b cb             	mov    rcx,rbx
   14000286a:	ff 15 b0 88 00 00    	call   QWORD PTR [rip+0x88b0]        # 0x14000b120
   140002870:	33 d2                	xor    edx,edx
   140002872:	48 8b cf             	mov    rcx,rdi
   140002875:	ff 15 ed 87 00 00    	call   QWORD PTR [rip+0x87ed]        # 0x14000b068
   14000287b:	48 8b ce             	mov    rcx,rsi
   14000287e:	33 d2                	xor    edx,edx
   140002880:	ff 15 e2 87 00 00    	call   QWORD PTR [rip+0x87e2]        # 0x14000b068
   140002886:	48 8b 5c 24 60       	mov    rbx,QWORD PTR [rsp+0x60]
   14000288b:	48 8b 6c 24 68       	mov    rbp,QWORD PTR [rsp+0x68]
   140002890:	48 8b 74 24 70       	mov    rsi,QWORD PTR [rsp+0x70]
   140002895:	48 83 c4 30          	add    rsp,0x30
   140002899:	41 5f                	pop    r15
   14000289b:	41 5e                	pop    r14
   14000289d:	41 5d                	pop    r13
   14000289f:	41 5c                	pop    r12
   1400028a1:	5f                   	pop    rdi
   1400028a2:	c3                   	ret
   1400028a3:	cc                   	int3
   1400028a4:	48 8b c4             	mov    rax,rsp
   1400028a7:	48 89 58 08          	mov    QWORD PTR [rax+0x8],rbx
   1400028ab:	48 89 68 10          	mov    QWORD PTR [rax+0x10],rbp
   1400028af:	48 89 70 18          	mov    QWORD PTR [rax+0x18],rsi
   1400028b3:	48 89 78 20          	mov    QWORD PTR [rax+0x20],rdi
   1400028b7:	41 54                	push   r12
   1400028b9:	41 56                	push   r14
   1400028bb:	41 57                	push   r15
   1400028bd:	48 83 ec 30          	sub    rsp,0x30
   1400028c1:	48 83 79 18 00       	cmp    QWORD PTR [rcx+0x18],0x0
   1400028c6:	4c 8b f1             	mov    r14,rcx
   1400028c9:	0f 84 7f 02 00 00    	je     0x140002b4e
   1400028cf:	48 8b 05 12 c7 00 00 	mov    rax,QWORD PTR [rip+0xc712]        # 0x14000efe8
   1400028d6:	48 8b 11             	mov    rdx,QWORD PTR [rcx]
   1400028d9:	48 8b 0d 10 c7 00 00 	mov    rcx,QWORD PTR [rip+0xc710]        # 0x14000eff0
   1400028e0:	48 8b 80 00 01 00 00 	mov    rax,QWORD PTR [rax+0x100]
   1400028e7:	ff 15 53 88 00 00    	call   QWORD PTR [rip+0x8853]        # 0x14000b140
   1400028ed:	4c 8b f8             	mov    r15,rax
   1400028f0:	48 85 c0             	test   rax,rax
   1400028f3:	0f 84 55 02 00 00    	je     0x140002b4e
   1400028f9:	8a 48 4c             	mov    cl,BYTE PTR [rax+0x4c]
   1400028fc:	33 d2                	xor    edx,edx
   1400028fe:	fe c1                	inc    cl
   140002900:	ff 15 da 87 00 00    	call   QWORD PTR [rip+0x87da]        # 0x14000b0e0
   140002906:	48 8b d8             	mov    rbx,rax
   140002909:	48 85 c0             	test   rax,rax
   14000290c:	0f 84 3c 02 00 00    	je     0x140002b4e
   140002912:	41 bc 42 54 4d 54    	mov    r12d,0x544d5442
   140002918:	be 48 00 00 00       	mov    esi,0x48
   14000291d:	bd 00 02 00 00       	mov    ebp,0x200
   140002922:	45 8b c4             	mov    r8d,r12d
   140002925:	8b d6                	mov    edx,esi
   140002927:	8b cd                	mov    ecx,ebp
   140002929:	ff 15 31 87 00 00    	call   QWORD PTR [rip+0x8731]        # 0x14000b060
   14000292f:	48 8b f8             	mov    rdi,rax
   140002932:	48 85 c0             	test   rax,rax
   140002935:	75 0e                	jne    0x140002945
   140002937:	48 8b cb             	mov    rcx,rbx
   14000293a:	ff 15 e0 87 00 00    	call   QWORD PTR [rip+0x87e0]        # 0x14000b120
   140002940:	e9 09 02 00 00       	jmp    0x140002b4e
   140002945:	4c 8b c6             	mov    r8,rsi
   140002948:	33 d2                	xor    edx,edx
   14000294a:	48 8b cf             	mov    rcx,rdi
   14000294d:	e8 ee 53 00 00       	call   0x140007d40
   140002952:	48 8b 83 b8 00 00 00 	mov    rax,QWORD PTR [rbx+0xb8]
   140002959:	48 8d 0d 98 88 00 00 	lea    rcx,[rip+0x8898]        # 0x14000b1f8
   140002960:	48 2b c6             	sub    rax,rsi
   140002963:	45 8b c4             	mov    r8d,r12d
   140002966:	ba 18 00 00 00       	mov    edx,0x18
   14000296b:	48 83 60 20 00       	and    QWORD PTR [rax+0x20],0x0
   140002970:	48 89 48 08          	mov    QWORD PTR [rax+0x8],rcx
   140002974:	8b cd                	mov    ecx,ebp
   140002976:	66 c7 00 1b 08       	mov    WORD PTR [rax],0x81b
   14000297b:	c7 40 10 48 00 00 02 	mov    DWORD PTR [rax+0x10],0x2000048
   140002982:	48 89 78 18          	mov    QWORD PTR [rax+0x18],rdi
   140002986:	ff 15 d4 86 00 00    	call   QWORD PTR [rip+0x86d4]        # 0x14000b060
   14000298c:	48 8b f0             	mov    rsi,rax
   14000298f:	48 85 c0             	test   rax,rax
   140002992:	75 11                	jne    0x1400029a5
   140002994:	48 8b cb             	mov    rcx,rbx
   140002997:	ff 15 83 87 00 00    	call   QWORD PTR [rip+0x8783]        # 0x14000b120
   14000299d:	48 8b cf             	mov    rcx,rdi
   1400029a0:	e9 a1 01 00 00       	jmp    0x140002b46
   1400029a5:	45 33 c0             	xor    r8d,r8d
   1400029a8:	33 d2                	xor    edx,edx
   1400029aa:	48 8b ce             	mov    rcx,rsi
   1400029ad:	ff 15 85 86 00 00    	call   QWORD PTR [rip+0x8685]        # 0x14000b038
   1400029b3:	48 8b 83 b8 00 00 00 	mov    rax,QWORD PTR [rbx+0xb8]
   1400029ba:	48 8d 0d df 83 00 00 	lea    rcx,[rip+0x83df]        # 0x14000ada0
   1400029c1:	48 8b d3             	mov    rdx,rbx
   1400029c4:	48 89 48 f0          	mov    QWORD PTR [rax-0x10],rcx
   1400029c8:	49 8b cf             	mov    rcx,r15
   1400029cb:	48 89 70 f8          	mov    QWORD PTR [rax-0x8],rsi
   1400029cf:	c6 40 bb e0          	mov    BYTE PTR [rax-0x45],0xe0
   1400029d3:	c7 43 30 bb 00 00 c0 	mov    DWORD PTR [rbx+0x30],0xc00000bb
   1400029da:	ff 15 a8 86 00 00    	call   QWORD PTR [rip+0x86a8]        # 0x14000b088
   1400029e0:	3d 03 01 00 00       	cmp    eax,0x103
   1400029e5:	75 1a                	jne    0x140002a01
   1400029e7:	48 83 64 24 20 00    	and    QWORD PTR [rsp+0x20],0x0
   1400029ed:	45 33 c9             	xor    r9d,r9d
   1400029f0:	45 33 c0             	xor    r8d,r8d
   1400029f3:	33 d2                	xor    edx,edx
   1400029f5:	48 8b ce             	mov    rcx,rsi
   1400029f8:	ff 15 5a 86 00 00    	call   QWORD PTR [rip+0x865a]        # 0x14000b058
   1400029fe:	8b 43 30             	mov    eax,DWORD PTR [rbx+0x30]
   140002a01:	85 c0                	test   eax,eax
   140002a03:	0f 88 26 01 00 00    	js     0x140002b2f
   140002a09:	48 8b 47 20          	mov    rax,QWORD PTR [rdi+0x20]
   140002a0d:	41 8b d4             	mov    edx,r12d
   140002a10:	b9 05 01 00 00       	mov    ecx,0x105
   140002a15:	ff 15 25 87 00 00    	call   QWORD PTR [rip+0x8725]        # 0x14000b140
   140002a1b:	48 8b e8             	mov    rbp,rax
   140002a1e:	48 85 c0             	test   rax,rax
   140002a21:	0f 84 08 01 00 00    	je     0x140002b2f
   140002a27:	45 8b c4             	mov    r8d,r12d
   140002a2a:	ba 05 00 00 00       	mov    edx,0x5
   140002a2f:	b9 00 02 00 00       	mov    ecx,0x200
   140002a34:	ff 15 26 86 00 00    	call   QWORD PTR [rip+0x8626]        # 0x14000b060
   140002a3a:	4c 8b e0             	mov    r12,rax
   140002a3d:	48 85 c0             	test   rax,rax
   140002a40:	75 1b                	jne    0x140002a5d
   140002a42:	48 8b cb             	mov    rcx,rbx
   140002a45:	ff 15 d5 86 00 00    	call   QWORD PTR [rip+0x86d5]        # 0x14000b120
   140002a4b:	48 8b 47 28          	mov    rax,QWORD PTR [rdi+0x28]
   140002a4f:	48 8b cd             	mov    rcx,rbp
   140002a52:	ff 15 e8 86 00 00    	call   QWORD PTR [rip+0x86e8]        # 0x14000b140
   140002a58:	e9 db 00 00 00       	jmp    0x140002b38
   140002a5d:	c7 00 53 f1 06 01    	mov    DWORD PTR [rax],0x106f153
   140002a63:	45 33 c0             	xor    r8d,r8d
   140002a66:	c6 40 04 32          	mov    BYTE PTR [rax+0x4],0x32
   140002a6a:	33 d2                	xor    edx,edx
   140002a6c:	c7 85 84 00 00 00 05 	mov    DWORD PTR [rbp+0x84],0x5
   140002a73:	00 00 00 
   140002a76:	48 8b ce             	mov    rcx,rsi
   140002a79:	49 8b 46 08          	mov    rax,QWORD PTR [r14+0x8]
   140002a7d:	48 89 45 70          	mov    QWORD PTR [rbp+0x70],rax
   140002a81:	4c 89 a5 88 00 00 00 	mov    QWORD PTR [rbp+0x88],r12
   140002a88:	49 8b 46 18          	mov    rax,QWORD PTR [r14+0x18]
   140002a8c:	83 a5 80 00 00 00 00 	and    DWORD PTR [rbp+0x80],0x0
   140002a93:	48 89 45 78          	mov    QWORD PTR [rbp+0x78],rax
   140002a97:	48 8b 83 b8 00 00 00 	mov    rax,QWORD PTR [rbx+0xb8]
   140002a9e:	c6 40 b8 0f          	mov    BYTE PTR [rax-0x48],0xf
   140002aa2:	c7 40 d0 03 00 41 00 	mov    DWORD PTR [rax-0x30],0x410003
   140002aa9:	48 89 68 c0          	mov    QWORD PTR [rax-0x40],rbp
   140002aad:	ff 15 85 85 00 00    	call   QWORD PTR [rip+0x8585]        # 0x14000b038
   140002ab3:	48 8b 83 b8 00 00 00 	mov    rax,QWORD PTR [rbx+0xb8]
   140002aba:	48 8d 0d df 82 00 00 	lea    rcx,[rip+0x82df]        # 0x14000ada0
   140002ac1:	48 8b d3             	mov    rdx,rbx
   140002ac4:	48 89 48 f0          	mov    QWORD PTR [rax-0x10],rcx
   140002ac8:	49 8b cf             	mov    rcx,r15
   140002acb:	48 89 70 f8          	mov    QWORD PTR [rax-0x8],rsi
   140002acf:	c6 40 bb e0          	mov    BYTE PTR [rax-0x45],0xe0
   140002ad3:	c7 43 30 bb 00 00 c0 	mov    DWORD PTR [rbx+0x30],0xc00000bb
   140002ada:	ff 15 a8 85 00 00    	call   QWORD PTR [rip+0x85a8]        # 0x14000b088
   140002ae0:	3d 03 01 00 00       	cmp    eax,0x103
   140002ae5:	75 17                	jne    0x140002afe
   140002ae7:	48 83 64 24 20 00    	and    QWORD PTR [rsp+0x20],0x0
   140002aed:	45 33 c9             	xor    r9d,r9d
   140002af0:	45 33 c0             	xor    r8d,r8d
   140002af3:	33 d2                	xor    edx,edx
   140002af5:	48 8b ce             	mov    rcx,rsi
   140002af8:	ff 15 5a 85 00 00    	call   QWORD PTR [rip+0x855a]        # 0x14000b058
   140002afe:	48 8b cb             	mov    rcx,rbx
   140002b01:	ff 15 19 86 00 00    	call   QWORD PTR [rip+0x8619]        # 0x14000b120
   140002b07:	48 8b 47 28          	mov    rax,QWORD PTR [rdi+0x28]
   140002b0b:	48 8b cd             	mov    rcx,rbp
   140002b0e:	ff 15 2c 86 00 00    	call   QWORD PTR [rip+0x862c]        # 0x14000b140
   140002b14:	33 d2                	xor    edx,edx
   140002b16:	48 8b cf             	mov    rcx,rdi
   140002b19:	ff 15 49 85 00 00    	call   QWORD PTR [rip+0x8549]        # 0x14000b068
   140002b1f:	33 d2                	xor    edx,edx
   140002b21:	48 8b ce             	mov    rcx,rsi
   140002b24:	ff 15 3e 85 00 00    	call   QWORD PTR [rip+0x853e]        # 0x14000b068
   140002b2a:	49 8b cc             	mov    rcx,r12
   140002b2d:	eb 17                	jmp    0x140002b46
   140002b2f:	48 8b cb             	mov    rcx,rbx
   140002b32:	ff 15 e8 85 00 00    	call   QWORD PTR [rip+0x85e8]        # 0x14000b120
   140002b38:	33 d2                	xor    edx,edx
   140002b3a:	48 8b cf             	mov    rcx,rdi
   140002b3d:	ff 15 25 85 00 00    	call   QWORD PTR [rip+0x8525]        # 0x14000b068
   140002b43:	48 8b ce             	mov    rcx,rsi
   140002b46:	33 d2                	xor    edx,edx
   140002b48:	ff 15 1a 85 00 00    	call   QWORD PTR [rip+0x851a]        # 0x14000b068
   140002b4e:	48 8b 5c 24 50       	mov    rbx,QWORD PTR [rsp+0x50]
   140002b53:	48 8b 6c 24 58       	mov    rbp,QWORD PTR [rsp+0x58]
   140002b58:	48 8b 74 24 60       	mov    rsi,QWORD PTR [rsp+0x60]
   140002b5d:	48 8b 7c 24 68       	mov    rdi,QWORD PTR [rsp+0x68]
   140002b62:	48 83 c4 30          	add    rsp,0x30
   140002b66:	41 5f                	pop    r15
   140002b68:	41 5e                	pop    r14
   140002b6a:	41 5c                	pop    r12
   140002b6c:	c3                   	ret
   140002b6d:	cc                   	int3
   140002b6e:	cc                   	int3
   140002b6f:	cc                   	int3
   140002b70:	45 85 c0             	test   r8d,r8d
   140002b73:	0f 8e bf 01 00 00    	jle    0x140002d38
   140002b79:	48 89 5c 24 08       	mov    QWORD PTR [rsp+0x8],rbx
   140002b7e:	48 89 6c 24 10       	mov    QWORD PTR [rsp+0x10],rbp
   140002b83:	48 89 74 24 20       	mov    QWORD PTR [rsp+0x20],rsi
   140002b88:	57                   	push   rdi
   140002b89:	41 54                	push   r12
   140002b8b:	41 55                	push   r13
   140002b8d:	41 56                	push   r14
   140002b8f:	41 57                	push   r15
   140002b91:	48 83 ec 20          	sub    rsp,0x20
   140002b95:	45 33 ed             	xor    r13d,r13d
   140002b98:	4d 63 e0             	movsxd r12,r8d
   140002b9b:	45 8b f5             	mov    r14d,r13d
   140002b9e:	45 8b f9             	mov    r15d,r9d
   140002ba1:	48 8b f2             	mov    rsi,rdx
   140002ba4:	48 8b d9             	mov    rbx,rcx
   140002ba7:	49 83 fe 20          	cmp    r14,0x20
   140002bab:	0f 8d 6b 01 00 00    	jge    0x140002d1c
   140002bb1:	8a 0e                	mov    cl,BYTE PTR [rsi]
   140002bb3:	80 f9 20             	cmp    cl,0x20
   140002bb6:	0f 87 60 01 00 00    	ja     0x140002d1c
   140002bbc:	0f b6 e9             	movzx  ebp,cl
   140002bbf:	45 8b c7             	mov    r8d,r15d
   140002bc2:	48 6b fd 1c          	imul   rdi,rbp,0x1c
   140002bc6:	0f b6 d1             	movzx  edx,cl
   140002bc9:	48 8b cb             	mov    rcx,rbx
   140002bcc:	0f 10 44 1f 08       	movups xmm0,XMMWORD PTR [rdi+rbx*1+0x8]
   140002bd1:	8b 44 1f 20          	mov    eax,DWORD PTR [rdi+rbx*1+0x20]
   140002bd5:	f2 0f 10 4c 1f 18    	movsd  xmm1,QWORD PTR [rdi+rbx*1+0x18]
   140002bdb:	0f 11 84 1f 88 03 00 	movups XMMWORD PTR [rdi+rbx*1+0x388],xmm0
   140002be2:	00 
   140002be3:	f2 0f 11 8c 1f 98 03 	movsd  QWORD PTR [rdi+rbx*1+0x398],xmm1
   140002bea:	00 00 
   140002bec:	89 84 1f a0 03 00 00 	mov    DWORD PTR [rdi+rbx*1+0x3a0],eax
   140002bf3:	8b 03                	mov    eax,DWORD PTR [rbx]
   140002bf5:	89 43 04             	mov    DWORD PTR [rbx+0x4],eax
   140002bf8:	0f 10 06             	movups xmm0,XMMWORD PTR [rsi]
   140002bfb:	0f 11 44 1f 08       	movups XMMWORD PTR [rdi+rbx*1+0x8],xmm0
   140002c00:	f2 0f 10 4e 10       	movsd  xmm1,QWORD PTR [rsi+0x10]
   140002c05:	f2 0f 11 4c 1f 18    	movsd  QWORD PTR [rdi+rbx*1+0x18],xmm1
   140002c0b:	8b 46 18             	mov    eax,DWORD PTR [rsi+0x18]
   140002c0e:	89 44 1f 20          	mov    DWORD PTR [rdi+rbx*1+0x20],eax
   140002c12:	e8 25 01 00 00       	call   0x140002d3c
   140002c17:	44 89 3b             	mov    DWORD PTR [rbx],r15d
   140002c1a:	80 7c 1f 09 04       	cmp    BYTE PTR [rdi+rbx*1+0x9],0x4
   140002c1f:	75 0a                	jne    0x140002c2b
   140002c21:	80 bc 1f 89 03 00 00 	cmp    BYTE PTR [rdi+rbx*1+0x389],0x4
   140002c28:	04 
   140002c29:	74 08                	je     0x140002c33
   140002c2b:	44 89 ac ab 88 08 00 	mov    DWORD PTR [rbx+rbp*4+0x888],r13d
   140002c32:	00 
   140002c33:	8b 8c ab 88 09 00 00 	mov    ecx,DWORD PTR [rbx+rbp*4+0x988]
   140002c3a:	41 bb 07 d0 34 67    	mov    r11d,0x6734d007
   140002c40:	44 8b 84 ab 88 08 00 	mov    r8d,DWORD PTR [rbx+rbp*4+0x888]
   140002c47:	00 
   140002c48:	49 ff c6             	inc    r14
   140002c4b:	0f bf c1             	movsx  eax,cx
   140002c4e:	69 d0 f4 01 00 00    	imul   edx,eax,0x1f4
   140002c54:	41 8b c3             	mov    eax,r11d
   140002c57:	c1 e9 10             	shr    ecx,0x10
   140002c5a:	f7 ea                	imul   edx
   140002c5c:	44 8b ca             	mov    r9d,edx
   140002c5f:	41 c1 f9 0a          	sar    r9d,0xa
   140002c63:	41 8b c1             	mov    eax,r9d
   140002c66:	c1 e8 1f             	shr    eax,0x1f
   140002c69:	44 03 c8             	add    r9d,eax
   140002c6c:	0f bf c1             	movsx  eax,cx
   140002c6f:	69 c8 f4 01 00 00    	imul   ecx,eax,0x1f4
   140002c75:	41 8b c3             	mov    eax,r11d
   140002c78:	41 bb d3 4d 62 10    	mov    r11d,0x10624dd3
   140002c7e:	66 44 89 4c 24 60    	mov    WORD PTR [rsp+0x60],r9w
   140002c84:	f7 e9                	imul   ecx
   140002c86:	c1 fa 0a             	sar    edx,0xa
   140002c89:	8b c2                	mov    eax,edx
   140002c8b:	c1 e8 1f             	shr    eax,0x1f
   140002c8e:	03 d0                	add    edx,eax
   140002c90:	41 0f bf c1          	movsx  eax,r9w
   140002c94:	69 c8 ec 09 00 00    	imul   ecx,eax,0x9ec
   140002c9a:	41 8b c3             	mov    eax,r11d
   140002c9d:	66 89 54 24 62       	mov    WORD PTR [rsp+0x62],dx
   140002ca2:	f7 e9                	imul   ecx
   140002ca4:	8b 4c 24 60          	mov    ecx,DWORD PTR [rsp+0x60]
   140002ca8:	44 8b d2             	mov    r10d,edx
   140002cab:	41 c1 fa 05          	sar    r10d,0x5
   140002caf:	41 8b c2             	mov    eax,r10d
   140002cb2:	c1 e8 1f             	shr    eax,0x1f
   140002cb5:	44 03 d0             	add    r10d,eax
   140002cb8:	8b c1                	mov    eax,ecx
   140002cba:	c1 e8 10             	shr    eax,0x10
   140002cbd:	98                   	cwde
   140002cbe:	44 69 c8 ec 09 00 00 	imul   r9d,eax,0x9ec
   140002cc5:	41 8b c3             	mov    eax,r11d
   140002cc8:	41 f7 e9             	imul   r9d
   140002ccb:	c1 fa 05             	sar    edx,0x5
   140002cce:	8b c2                	mov    eax,edx
   140002cd0:	c1 e8 1f             	shr    eax,0x1f
   140002cd3:	03 d0                	add    edx,eax
   140002cd5:	41 0f b7 c0          	movzx  eax,r8w
   140002cd9:	66 41 2b c2          	sub    ax,r10w
   140002cdd:	41 c1 e8 10          	shr    r8d,0x10
   140002ce1:	66 01 84 ab 88 09 00 	add    WORD PTR [rbx+rbp*4+0x988],ax
   140002ce8:	00 
   140002ce9:	66 44 2b c2          	sub    r8w,dx
   140002ced:	66 44 01 84 ab 8a 09 	add    WORD PTR [rbx+rbp*4+0x98a],r8w
   140002cf4:	00 00 
   140002cf6:	89 8c ab 08 09 00 00 	mov    DWORD PTR [rbx+rbp*4+0x908],ecx
   140002cfd:	0f b7 44 1f 0c       	movzx  eax,WORD PTR [rdi+rbx*1+0xc]
   140002d02:	66 89 46 04          	mov    WORD PTR [rsi+0x4],ax
   140002d06:	0f b7 44 1f 0e       	movzx  eax,WORD PTR [rdi+rbx*1+0xe]
   140002d0b:	66 89 46 06          	mov    WORD PTR [rsi+0x6],ax
   140002d0f:	48 83 c6 1c          	add    rsi,0x1c
   140002d13:	4d 3b f4             	cmp    r14,r12
   140002d16:	0f 8c 8b fe ff ff    	jl     0x140002ba7
   140002d1c:	48 8b 5c 24 50       	mov    rbx,QWORD PTR [rsp+0x50]
   140002d21:	48 8b 6c 24 58       	mov    rbp,QWORD PTR [rsp+0x58]
   140002d26:	48 8b 74 24 68       	mov    rsi,QWORD PTR [rsp+0x68]
   140002d2b:	48 83 c4 20          	add    rsp,0x20
   140002d2f:	41 5f                	pop    r15
   140002d31:	41 5e                	pop    r14
   140002d33:	41 5d                	pop    r13
   140002d35:	41 5c                	pop    r12
   140002d37:	5f                   	pop    rdi
   140002d38:	c3                   	ret
   140002d39:	cc                   	int3
   140002d3a:	cc                   	int3
   140002d3b:	cc                   	int3
   140002d3c:	44 89 44 24 18       	mov    DWORD PTR [rsp+0x18],r8d
   140002d41:	55                   	push   rbp
   140002d42:	53                   	push   rbx
   140002d43:	56                   	push   rsi
   140002d44:	57                   	push   rdi
   140002d45:	41 54                	push   r12
   140002d47:	41 55                	push   r13
   140002d49:	41 56                	push   r14
   140002d4b:	41 57                	push   r15
   140002d4d:	48 8d 6c 24 e1       	lea    rbp,[rsp-0x1f]
   140002d52:	48 81 ec a8 00 00 00 	sub    rsp,0xa8
   140002d59:	48 63 fa             	movsxd rdi,edx
   140002d5c:	48 8d b1 88 07 00 00 	lea    rsi,[rcx+0x788]
   140002d63:	48 6b c7 1c          	imul   rax,rdi,0x1c
   140002d67:	48 8b d9             	mov    rbx,rcx
   140002d6a:	48 8d 15 57 93 00 00 	lea    rdx,[rip+0x9357]        # 0x14000c0c8
   140002d71:	45 8b f0             	mov    r14d,r8d
   140002d74:	48 89 45 e7          	mov    QWORD PTR [rbp-0x19],rax
   140002d78:	48 8d 34 be          	lea    rsi,[rsi+rdi*4]
   140002d7c:	4c 8d 2c 08          	lea    r13,[rax+rcx*1]
   140002d80:	45 0f b7 7d 0c       	movzx  r15d,WORD PTR [r13+0xc]
   140002d85:	49 8d 4d 08          	lea    rcx,[r13+0x8]
   140002d89:	45 0f b7 65 0e       	movzx  r12d,WORD PTR [r13+0xe]
   140002d8e:	66 44 89 7d 67       	mov    WORD PTR [rbp+0x67],r15w
   140002d93:	66 44 89 65 69       	mov    WORD PTR [rbp+0x69],r12w
   140002d98:	e8 13 11 00 00       	call   0x140003eb0
   140002d9d:	f3 0f 10 1d 3b 85 00 	movss  xmm3,DWORD PTR [rip+0x853b]        # 0x14000b2e0
   140002da4:	00 
   140002da5:	33 c9                	xor    ecx,ecx
   140002da7:	48 89 45 7f          	mov    QWORD PTR [rbp+0x7f],rax
   140002dab:	f3 0f 10 45 7f       	movss  xmm0,DWORD PTR [rbp+0x7f]
   140002db0:	f3 0f 59 c3          	mulss  xmm0,xmm3
   140002db4:	f3 0f 2c c0          	cvttss2si eax,xmm0
   140002db8:	f3 0f 10 85 83 00 00 	movss  xmm0,DWORD PTR [rbp+0x83]
   140002dbf:	00 
   140002dc0:	f3 0f 59 c3          	mulss  xmm0,xmm3
   140002dc4:	66 89 45 6f          	mov    WORD PTR [rbp+0x6f],ax
   140002dc8:	f3 0f 2c c0          	cvttss2si eax,xmm0
   140002dcc:	66 89 45 71          	mov    WORD PTR [rbp+0x71],ax
   140002dd0:	66 41 39 4d 10       	cmp    WORD PTR [r13+0x10],cx
   140002dd5:	75 0a                	jne    0x140002de1
   140002dd7:	41 b3 01             	mov    r11b,0x1
   140002dda:	66 41 39 4d 12       	cmp    WORD PTR [r13+0x12],cx
   140002ddf:	74 03                	je     0x140002de4
   140002de1:	44 8a d9             	mov    r11b,cl
   140002de4:	41 8a 55 09          	mov    dl,BYTE PTR [r13+0x9]
   140002de8:	4c 8b 45 e7          	mov    r8,QWORD PTR [rbp-0x19]
   140002dec:	80 fa 03             	cmp    dl,0x3
   140002def:	72 2c                	jb     0x140002e1d
   140002df1:	41 38 8c 18 89 03 00 	cmp    BYTE PTR [r8+rbx*1+0x389],cl
   140002df8:	00 
   140002df9:	74 22                	je     0x140002e1d
   140002dfb:	b0 05                	mov    al,0x5
   140002dfd:	38 8c 1f 88 0d 00 00 	cmp    BYTE PTR [rdi+rbx*1+0xd88],cl
   140002e04:	74 04                	je     0x140002e0a
   140002e06:	3a d0                	cmp    dl,al
   140002e08:	73 13                	jae    0x140002e1d
   140002e0a:	41 38 84 18 8a 03 00 	cmp    BYTE PTR [r8+rbx*1+0x38a],al
   140002e11:	00 
   140002e12:	77 09                	ja     0x140002e1d
   140002e14:	44 8a c9             	mov    r9b,cl
   140002e17:	41 38 45 0a          	cmp    BYTE PTR [r13+0xa],al
   140002e1b:	76 03                	jbe    0x140002e20
   140002e1d:	41 b1 01             	mov    r9b,0x1
   140002e20:	80 fa 01             	cmp    dl,0x1
   140002e23:	74 10                	je     0x140002e35
   140002e25:	41 8a 84 18 89 03 00 	mov    al,BYTE PTR [r8+rbx*1+0x389]
   140002e2c:	00 
   140002e2d:	84 c0                	test   al,al
   140002e2f:	74 04                	je     0x140002e35
   140002e31:	3a d0                	cmp    dl,al
   140002e33:	73 0c                	jae    0x140002e41
   140002e35:	44 89 b4 bb 08 0a 00 	mov    DWORD PTR [rbx+rdi*4+0xa08],r14d
   140002e3c:	00 
   140002e3d:	41 8a 55 09          	mov    dl,BYTE PTR [r13+0x9]
   140002e41:	b0 02                	mov    al,0x2
   140002e43:	3a d0                	cmp    dl,al
   140002e45:	75 1d                	jne    0x140002e64
   140002e47:	8a d0                	mov    dl,al
   140002e49:	41 38 84 18 89 03 00 	cmp    BYTE PTR [r8+rbx*1+0x389],al
   140002e50:	00 
   140002e51:	74 0d                	je     0x140002e60
   140002e53:	44 89 b4 bb 88 0a 00 	mov    DWORD PTR [rbx+rdi*4+0xa88],r14d
   140002e5a:	00 
   140002e5b:	41 8a 54 18 09       	mov    dl,BYTE PTR [r8+rbx*1+0x9]
   140002e60:	3a d0                	cmp    dl,al
   140002e62:	74 17                	je     0x140002e7b
   140002e64:	41 38 84 18 89 03 00 	cmp    BYTE PTR [r8+rbx*1+0x389],al
   140002e6b:	00 
   140002e6c:	75 0d                	jne    0x140002e7b
   140002e6e:	44 89 b4 bb 08 0b 00 	mov    DWORD PTR [rbx+rdi*4+0xb08],r14d
   140002e75:	00 
   140002e76:	41 8a 54 18 09       	mov    dl,BYTE PTR [r8+rbx*1+0x9]
   140002e7b:	8b 84 bb 88 0a 00 00 	mov    eax,DWORD PTR [rbx+rdi*4+0xa88]
   140002e82:	41 8b ce             	mov    ecx,r14d
   140002e85:	44 8b 94 bb 08 0b 00 	mov    r10d,DWORD PTR [rbx+rdi*4+0xb08]
   140002e8c:	00 
   140002e8d:	2b c8                	sub    ecx,eax
   140002e8f:	44 2b d0             	sub    r10d,eax
   140002e92:	80 fa 02             	cmp    dl,0x2
   140002e95:	44 0f 44 d1          	cmove  r10d,ecx
   140002e99:	41 0f bf 4d 0c       	movsx  ecx,WORD PTR [r13+0xc]
   140002e9e:	8d 81 99 08 00 00    	lea    eax,[rcx+0x899]
   140002ea4:	66 0f 6e d0          	movd   xmm2,eax
   140002ea8:	8d 81 62 f5 ff ff    	lea    eax,[rcx-0xa9e]
   140002eae:	f3 0f e6 d2          	cvtdq2pd xmm2,xmm2
   140002eb2:	66 0f 6e c0          	movd   xmm0,eax
   140002eb6:	41 0f b7 45 14       	movzx  eax,WORD PTR [r13+0x14]
   140002ebb:	0f 54 15 3e 84 00 00 	andps  xmm2,XMMWORD PTR [rip+0x843e]        # 0x14000b300
   140002ec2:	f3 0f e6 c0          	cvtdq2pd xmm0,xmm0
   140002ec6:	66 0f 6e c8          	movd   xmm1,eax
   140002eca:	0f 54 05 2f 84 00 00 	andps  xmm0,XMMWORD PTR [rip+0x842f]        # 0x14000b300
   140002ed1:	f2 0f 5d d0          	minsd  xmm2,xmm0
   140002ed5:	f3 0f 10 05 e7 83 00 	movss  xmm0,DWORD PTR [rip+0x83e7]        # 0x14000b2c4
   140002edc:	00 
   140002edd:	0f 5b c9             	cvtdq2ps xmm1,xmm1
   140002ee0:	66 0f 5a e2          	cvtpd2ps xmm4,xmm2
   140002ee4:	f3 0f 5e cb          	divss  xmm1,xmm3
   140002ee8:	f3 0f 5e e3          	divss  xmm4,xmm3
   140002eec:	0f 2f c1             	comiss xmm0,xmm1
   140002eef:	72 05                	jb     0x140002ef6
   140002ef1:	0f 57 c9             	xorps  xmm1,xmm1
   140002ef4:	eb 0c                	jmp    0x140002f02
   140002ef6:	f3 0f 5c c8          	subss  xmm1,xmm0
   140002efa:	f3 0f 5e 0d b2 83 00 	divss  xmm1,DWORD PTR [rip+0x83b2]        # 0x14000b2b4
   140002f01:	00 
   140002f02:	f3 0f 10 05 a6 83 00 	movss  xmm0,DWORD PTR [rip+0x83a6]        # 0x14000b2b0
   140002f09:	00 
   140002f0a:	0f 2f c4             	comiss xmm0,xmm4
   140002f0d:	76 20                	jbe    0x140002f2f
   140002f0f:	66 41 0f 6e c2       	movd   xmm0,r10d
   140002f14:	0f 5b c0             	cvtdq2ps xmm0,xmm0
   140002f17:	0f 2f 05 ce 83 00 00 	comiss xmm0,DWORD PTR [rip+0x83ce]        # 0x14000b2ec
   140002f1e:	76 0f                	jbe    0x140002f2f
   140002f20:	0f 2f 0d fd 82 00 00 	comiss xmm1,DWORD PTR [rip+0x82fd]        # 0x14000b224
   140002f27:	76 06                	jbe    0x140002f2f
   140002f29:	b0 01                	mov    al,0x1
   140002f2b:	33 c9                	xor    ecx,ecx
   140002f2d:	eb 04                	jmp    0x140002f33
   140002f2f:	33 c9                	xor    ecx,ecx
   140002f31:	8a c1                	mov    al,cl
   140002f33:	08 84 1f 28 0e 00 00 	or     BYTE PTR [rdi+rbx*1+0xe28],al
   140002f3a:	44 0a 8c 1f 28 0e 00 	or     r9b,BYTE PTR [rdi+rbx*1+0xe28]
   140002f41:	00 
   140002f42:	0f 85 6a 02 00 00    	jne    0x1400031b2
   140002f48:	45 84 db             	test   r11b,r11b
   140002f4b:	0f 85 61 02 00 00    	jne    0x1400031b2
   140002f51:	41 0f b7 84 18 96 03 	movzx  eax,WORD PTR [r8+rbx*1+0x396]
   140002f58:	00 00 
   140002f5a:	4c 8d b3 88 0d 00 00 	lea    r14,[rbx+0xd88]
   140002f61:	4c 03 f7             	add    r14,rdi
   140002f64:	4c 8d 8f 6a 03 00 00 	lea    r9,[rdi+0x36a]
   140002f6b:	4e 8d 0c 8b          	lea    r9,[rbx+r9*4]
   140002f6f:	66 0f 6e c0          	movd   xmm0,eax
   140002f73:	41 0f b7 45 16       	movzx  eax,WORD PTR [r13+0x16]
   140002f78:	0f 5b c0             	cvtdq2ps xmm0,xmm0
   140002f7b:	66 0f 6e c8          	movd   xmm1,eax
   140002f7f:	41 0f b7 84 18 94 03 	movzx  eax,WORD PTR [r8+rbx*1+0x394]
   140002f86:	00 00 
   140002f88:	f3 0f 5e c3          	divss  xmm0,xmm3
   140002f8c:	0f 5b c9             	cvtdq2ps xmm1,xmm1
   140002f8f:	f3 44 0f 2c d0       	cvttss2si r10d,xmm0
   140002f94:	66 0f 6e c0          	movd   xmm0,eax
   140002f98:	33 c0                	xor    eax,eax
   140002f9a:	f3 0f 5e cb          	divss  xmm1,xmm3
   140002f9e:	0f 5b c0             	cvtdq2ps xmm0,xmm0
   140002fa1:	f3 44 0f 2c d9       	cvttss2si r11d,xmm1
   140002fa6:	f3 0f 10 0d 42 83 00 	movss  xmm1,DWORD PTR [rip+0x8342]        # 0x14000b2f0
   140002fad:	00 
   140002fae:	f3 0f 5e c3          	divss  xmm0,xmm3
   140002fb2:	0f 2f c1             	comiss xmm0,xmm1
   140002fb5:	72 16                	jb     0x140002fcd
   140002fb7:	f3 0f 5c c1          	subss  xmm0,xmm1
   140002fbb:	0f 2f c1             	comiss xmm0,xmm1
   140002fbe:	73 0d                	jae    0x140002fcd
   140002fc0:	48 b9 00 00 00 00 00 	movabs rcx,0x8000000000000000
   140002fc7:	00 00 80 
   140002fca:	48 8b c1             	mov    rax,rcx
   140002fcd:	f3 48 0f 2c d0       	cvttss2si rdx,xmm0
   140002fd2:	48 03 d0             	add    rdx,rax
   140002fd5:	41 0f b7 45 14       	movzx  eax,WORD PTR [r13+0x14]
   140002fda:	66 0f 6e c0          	movd   xmm0,eax
   140002fde:	48 8d 87 42 03 00 00 	lea    rax,[rdi+0x342]
   140002fe5:	48 8d 04 83          	lea    rax,[rbx+rax*4]
   140002fe9:	48 89 44 24 68       	mov    QWORD PTR [rsp+0x68],rax
   140002fee:	48 8d 87 81 01 00 00 	lea    rax,[rdi+0x181]
   140002ff5:	48 8d 04 c3          	lea    rax,[rbx+rax*8]
   140002ff9:	48 89 44 24 60       	mov    QWORD PTR [rsp+0x60],rax
   140002ffe:	48 8d 87 e2 02 00 00 	lea    rax,[rdi+0x2e2]
   140003005:	4c 89 4c 24 58       	mov    QWORD PTR [rsp+0x58],r9
   14000300a:	48 8d 04 83          	lea    rax,[rbx+rax*4]
   14000300e:	45 0f b7 4d 1a       	movzx  r9d,WORD PTR [r13+0x1a]
   140003013:	48 89 44 24 50       	mov    QWORD PTR [rsp+0x50],rax
   140003018:	41 8a 06             	mov    al,BYTE PTR [r14]
   14000301b:	88 44 24 48          	mov    BYTE PTR [rsp+0x48],al
   14000301f:	41 0f b7 84 18 9a 03 	movzx  eax,WORD PTR [r8+rbx*1+0x39a]
   140003026:	00 00 
   140003028:	4d 8d 45 08          	lea    r8,[r13+0x8]
   14000302c:	66 44 89 54 24 40    	mov    WORD PTR [rsp+0x40],r10w
   140003032:	66 44 89 5c 24 38    	mov    WORD PTR [rsp+0x38],r11w
   140003038:	66 89 54 24 30       	mov    WORD PTR [rsp+0x30],dx
   14000303d:	8b 94 bb 08 0a 00 00 	mov    edx,DWORD PTR [rbx+rdi*4+0xa08]
   140003044:	0f 5b c0             	cvtdq2ps xmm0,xmm0
   140003047:	f3 0f 5e c3          	divss  xmm0,xmm3
   14000304b:	f3 0f 2c c8          	cvttss2si ecx,xmm0
   14000304f:	66 89 4c 24 28       	mov    WORD PTR [rsp+0x28],cx
   140003054:	8b 4d 77             	mov    ecx,DWORD PTR [rbp+0x77]
   140003057:	66 89 44 24 20       	mov    WORD PTR [rsp+0x20],ax
   14000305c:	e8 a3 0c 00 00       	call   0x140003d04
   140003061:	0f 10 0d 60 90 00 00 	movups xmm1,XMMWORD PTR [rip+0x9060]        # 0x14000c0c8
   140003068:	8b 84 bb 08 07 00 00 	mov    eax,DWORD PTR [rbx+rdi*4+0x708]
   14000306f:	4c 8b c6             	mov    r8,rsi
   140003072:	0f 10 15 5f 90 00 00 	movups xmm2,XMMWORD PTR [rip+0x905f]        # 0x14000c0d8
   140003079:	44 8b 4d 6f          	mov    r9d,DWORD PTR [rbp+0x6f]
   14000307d:	48 8d 4d f7          	lea    rcx,[rbp-0x9]
   140003081:	8b 55 67             	mov    edx,DWORD PTR [rbp+0x67]
   140003084:	0f 28 e0             	movaps xmm4,xmm0
   140003087:	0f 29 4d f7          	movaps XMMWORD PTR [rbp-0x9],xmm1
   14000308b:	0f 29 55 07          	movaps XMMWORD PTR [rbp+0x7],xmm2
   14000308f:	89 44 24 20          	mov    DWORD PTR [rsp+0x20],eax
   140003093:	e8 98 0f 00 00       	call   0x140004030
   140003098:	f3 0f 59 25 44 82 00 	mulss  xmm4,DWORD PTR [rip+0x8244]        # 0x14000b2e4
   14000309f:	00 
   1400030a0:	44 0f bf 06          	movsx  r8d,WORD PTR [rsi]
   1400030a4:	41 0f bf cf          	movsx  ecx,r15w
   1400030a8:	41 2b c8             	sub    ecx,r8d
   1400030ab:	f3 0f 5a e4          	cvtss2sd xmm4,xmm4
   1400030af:	f2 0f 58 25 b1 81 00 	addsd  xmm4,QWORD PTR [rip+0x81b1]        # 0x14000b268
   1400030b6:	00 
   1400030b7:	f2 0f 2c d4          	cvttsd2si edx,xmm4
   1400030bb:	44 0f bf d2          	movsx  r10d,dx
   1400030bf:	41 3b ca             	cmp    ecx,r10d
   1400030c2:	7e 06                	jle    0x1400030ca
   1400030c4:	41 8d 0c 10          	lea    ecx,[r8+rdx*1]
   1400030c8:	eb 10                	jmp    0x1400030da
   1400030ca:	41 8b c2             	mov    eax,r10d
   1400030cd:	f7 d8                	neg    eax
   1400030cf:	3b c8                	cmp    ecx,eax
   1400030d1:	7d 0c                	jge    0x1400030df
   1400030d3:	41 0f b7 c8          	movzx  ecx,r8w
   1400030d7:	66 2b ca             	sub    cx,dx
   1400030da:	66 89 0e             	mov    WORD PTR [rsi],cx
   1400030dd:	eb 08                	jmp    0x1400030e7
   1400030df:	66 44 89 3e          	mov    WORD PTR [rsi],r15w
   1400030e3:	41 0f b7 cf          	movzx  ecx,r15w
   1400030e7:	44 0f bf 46 02       	movsx  r8d,WORD PTR [rsi+0x2]
   1400030ec:	45 0f bf cc          	movsx  r9d,r12w
   1400030f0:	45 8b d9             	mov    r11d,r9d
   1400030f3:	45 2b d8             	sub    r11d,r8d
   1400030f6:	45 3b da             	cmp    r11d,r10d
   1400030f9:	7e 0a                	jle    0x140003105
   1400030fb:	66 41 03 d0          	add    dx,r8w
   1400030ff:	66 89 56 02          	mov    WORD PTR [rsi+0x2],dx
   140003103:	eb 18                	jmp    0x14000311d
   140003105:	41 f7 da             	neg    r10d
   140003108:	45 3b da             	cmp    r11d,r10d
   14000310b:	7d 0b                	jge    0x140003118
   14000310d:	66 44 2b c2          	sub    r8w,dx
   140003111:	66 44 89 46 02       	mov    WORD PTR [rsi+0x2],r8w
   140003116:	eb 05                	jmp    0x14000311d
   140003118:	66 44 89 66 02       	mov    WORD PTR [rsi+0x2],r12w
   14000311d:	66 89 8c bb 08 08 00 	mov    WORD PTR [rbx+rdi*4+0x808],cx
   140003124:	00 
   140003125:	ba 14 00 00 00       	mov    edx,0x14
   14000312a:	0f b7 46 02          	movzx  eax,WORD PTR [rsi+0x2]
   14000312e:	66 89 84 bb 0a 08 00 	mov    WORD PTR [rbx+rdi*4+0x80a],ax
   140003135:	00 
   140003136:	0f bf 06             	movsx  eax,WORD PTR [rsi]
   140003139:	41 0f bf cf          	movsx  ecx,r15w
   14000313d:	2b c8                	sub    ecx,eax
   14000313f:	3b ca                	cmp    ecx,edx
   140003141:	7e 06                	jle    0x140003149
   140003143:	66 44 2b fa          	sub    r15w,dx
   140003147:	eb 09                	jmp    0x140003152
   140003149:	83 f9 ec             	cmp    ecx,0xffffffec
   14000314c:	7d 11                	jge    0x14000315f
   14000314e:	66 44 03 fa          	add    r15w,dx
   140003152:	66 44 89 3e          	mov    WORD PTR [rsi],r15w
   140003156:	4d 85 f6             	test   r14,r14
   140003159:	74 04                	je     0x14000315f
   14000315b:	41 c6 06 01          	mov    BYTE PTR [r14],0x1
   14000315f:	0f bf 46 02          	movsx  eax,WORD PTR [rsi+0x2]
   140003163:	44 2b c8             	sub    r9d,eax
   140003166:	44 3b ca             	cmp    r9d,edx
   140003169:	7e 06                	jle    0x140003171
   14000316b:	66 44 2b e2          	sub    r12w,dx
   14000316f:	eb 0a                	jmp    0x14000317b
   140003171:	41 83 f9 ec          	cmp    r9d,0xffffffec
   140003175:	7d 12                	jge    0x140003189
   140003177:	66 44 03 e2          	add    r12w,dx
   14000317b:	66 44 89 66 02       	mov    WORD PTR [rsi+0x2],r12w
   140003180:	4d 85 f6             	test   r14,r14
   140003183:	74 04                	je     0x140003189
   140003185:	41 c6 06 01          	mov    BYTE PTR [r14],0x1
   140003189:	0f b7 0e             	movzx  ecx,WORD PTR [rsi]
   14000318c:	66 2b 8c bb 08 08 00 	sub    cx,WORD PTR [rbx+rdi*4+0x808]
   140003193:	00 
   140003194:	66 89 8c bb 88 08 00 	mov    WORD PTR [rbx+rdi*4+0x888],cx
   14000319b:	00 
   14000319c:	0f b7 4e 02          	movzx  ecx,WORD PTR [rsi+0x2]
   1400031a0:	66 2b 8c bb 0a 08 00 	sub    cx,WORD PTR [rbx+rdi*4+0x80a]
   1400031a7:	00 
   1400031a8:	66 89 8c bb 8a 08 00 	mov    WORD PTR [rbx+rdi*4+0x88a],cx
   1400031af:	00 
   1400031b0:	eb 68                	jmp    0x14000321a
   1400031b2:	66 44 89 3e          	mov    WORD PTR [rsi],r15w
   1400031b6:	66 44 89 bc bb 08 08 	mov    WORD PTR [rbx+rdi*4+0x808],r15w
   1400031bd:	00 00 
   1400031bf:	66 44 89 66 02       	mov    WORD PTR [rsi+0x2],r12w
   1400031c4:	66 44 89 a4 bb 0a 08 	mov    WORD PTR [rbx+rdi*4+0x80a],r12w
   1400031cb:	00 00 
   1400031cd:	41 0f b7 44 18 1a    	movzx  eax,WORD PTR [r8+rbx*1+0x1a]
   1400031d3:	66 0f 6e c0          	movd   xmm0,eax
   1400031d7:	48 8d 04 bb          	lea    rax,[rbx+rdi*4]
   1400031db:	0f 5b c0             	cvtdq2ps xmm0,xmm0
   1400031de:	f3 0f 11 80 88 0b 00 	movss  DWORD PTR [rax+0xb88],xmm0
   1400031e5:	00 
   1400031e6:	88 8c 1f 28 0e 00 00 	mov    BYTE PTR [rdi+rbx*1+0xe28],cl
   1400031ed:	41 0f b7 45 14       	movzx  eax,WORD PTR [r13+0x14]
   1400031f2:	83 a4 bb 88 08 00 00 	and    DWORD PTR [rbx+rdi*4+0x888],0x0
   1400031f9:	00 
   1400031fa:	66 0f 6e c0          	movd   xmm0,eax
   1400031fe:	0f 5b c0             	cvtdq2ps xmm0,xmm0
   140003201:	f3 0f 5e c3          	divss  xmm0,xmm3
   140003205:	f3 0f 11 84 bb a8 0d 	movss  DWORD PTR [rbx+rdi*4+0xda8],xmm0
   14000320c:	00 00 
   14000320e:	45 84 c9             	test   r9b,r9b
   140003211:	74 07                	je     0x14000321a
   140003213:	88 8c 1f 88 0d 00 00 	mov    BYTE PTR [rdi+rbx*1+0xd88],cl
   14000321a:	0f b7 06             	movzx  eax,WORD PTR [rsi]
   14000321d:	66 41 89 45 0c       	mov    WORD PTR [r13+0xc],ax
   140003222:	0f b7 46 02          	movzx  eax,WORD PTR [rsi+0x2]
   140003226:	66 41 89 45 0e       	mov    WORD PTR [r13+0xe],ax
   14000322b:	48 81 c4 a8 00 00 00 	add    rsp,0xa8
   140003232:	41 5f                	pop    r15
   140003234:	41 5e                	pop    r14
   140003236:	41 5d                	pop    r13
   140003238:	41 5c                	pop    r12
   14000323a:	5f                   	pop    rdi
   14000323b:	5e                   	pop    rsi
   14000323c:	5b                   	pop    rbx
   14000323d:	5d                   	pop    rbp
   14000323e:	c3                   	ret
   14000323f:	cc                   	int3
   140003240:	48 89 5c 24 10       	mov    QWORD PTR [rsp+0x10],rbx
   140003245:	48 89 6c 24 18       	mov    QWORD PTR [rsp+0x18],rbp
   14000324a:	48 89 74 24 20       	mov    QWORD PTR [rsp+0x20],rsi
   14000324f:	57                   	push   rdi
   140003250:	41 54                	push   r12
   140003252:	41 55                	push   r13
   140003254:	41 56                	push   r14
   140003256:	41 57                	push   r15
   140003258:	48 81 ec e0 00 00 00 	sub    rsp,0xe0
   14000325f:	48 8b 05 0a 93 00 00 	mov    rax,QWORD PTR [rip+0x930a]        # 0x14000c570
   140003266:	48 33 c4             	xor    rax,rsp
   140003269:	48 89 84 24 d0 00 00 	mov    QWORD PTR [rsp+0xd0],rax
   140003270:	00 
   140003271:	83 64 24 38 00       	and    DWORD PTR [rsp+0x38],0x0
   140003276:	48 8d 99 53 17 00 00 	lea    rbx,[rcx+0x1753]
   14000327d:	83 64 24 3c 00       	and    DWORD PTR [rsp+0x3c],0x0
   140003282:	48 8d a9 0b 09 00 00 	lea    rbp,[rcx+0x90b]
   140003289:	45 8b e8             	mov    r13d,r8d
   14000328c:	4c 8d b9 bb 17 00 00 	lea    r15,[rcx+0x17bb]
   140003293:	48 8b fa             	mov    rdi,rdx
   140003296:	48 8b f1             	mov    rsi,rcx
   140003299:	ba 80 03 00 00       	mov    edx,0x380
   14000329e:	b9 00 02 00 00       	mov    ecx,0x200
   1400032a3:	41 b8 42 54 4d 54    	mov    r8d,0x544d5442
   1400032a9:	45 8a e1             	mov    r12b,r9b
   1400032ac:	ff 15 ae 7d 00 00    	call   QWORD PTR [rip+0x7dae]        # 0x14000b060
   1400032b2:	33 d2                	xor    edx,edx
   1400032b4:	4c 8b f0             	mov    r14,rax
   1400032b7:	48 85 c0             	test   rax,rax
   1400032ba:	0f 84 8c 01 00 00    	je     0x14000344c
   1400032c0:	48 8b c8             	mov    rcx,rax
   1400032c3:	8d 42 07             	lea    eax,[rdx+0x7]
   1400032c6:	44 8d 40 79          	lea    r8d,[rax+0x79]
   1400032ca:	0f 10 07             	movups xmm0,XMMWORD PTR [rdi]
   1400032cd:	0f 11 01             	movups XMMWORD PTR [rcx],xmm0
   1400032d0:	0f 10 4f 10          	movups xmm1,XMMWORD PTR [rdi+0x10]
   1400032d4:	0f 11 49 10          	movups XMMWORD PTR [rcx+0x10],xmm1
   1400032d8:	0f 10 47 20          	movups xmm0,XMMWORD PTR [rdi+0x20]
   1400032dc:	0f 11 41 20          	movups XMMWORD PTR [rcx+0x20],xmm0
   1400032e0:	0f 10 4f 30          	movups xmm1,XMMWORD PTR [rdi+0x30]
   1400032e4:	0f 11 49 30          	movups XMMWORD PTR [rcx+0x30],xmm1
   1400032e8:	0f 10 47 40          	movups xmm0,XMMWORD PTR [rdi+0x40]
   1400032ec:	0f 11 41 40          	movups XMMWORD PTR [rcx+0x40],xmm0
   1400032f0:	0f 10 4f 50          	movups xmm1,XMMWORD PTR [rdi+0x50]
   1400032f4:	0f 11 49 50          	movups XMMWORD PTR [rcx+0x50],xmm1
   1400032f8:	0f 10 47 60          	movups xmm0,XMMWORD PTR [rdi+0x60]
   1400032fc:	0f 11 41 60          	movups XMMWORD PTR [rcx+0x60],xmm0
   140003300:	49 03 c8             	add    rcx,r8
   140003303:	0f 10 4f 70          	movups xmm1,XMMWORD PTR [rdi+0x70]
   140003307:	49 03 f8             	add    rdi,r8
   14000330a:	0f 11 49 f0          	movups XMMWORD PTR [rcx-0x10],xmm1
   14000330e:	48 83 e8 01          	sub    rax,0x1
   140003312:	75 b6                	jne    0x1400032ca
   140003314:	8a 43 5c             	mov    al,BYTE PTR [rbx+0x5c]
   140003317:	41 b8 40 00 00 00    	mov    r8d,0x40
   14000331d:	88 43 5d             	mov    BYTE PTR [rbx+0x5d],al
   140003320:	48 8b cb             	mov    rcx,rbx
   140003323:	8a 43 5e             	mov    al,BYTE PTR [rbx+0x5e]
   140003326:	88 43 5f             	mov    BYTE PTR [rbx+0x5f],al
   140003329:	8a 43 60             	mov    al,BYTE PTR [rbx+0x60]
   14000332c:	88 43 61             	mov    BYTE PTR [rbx+0x61],al
   14000332f:	8b 43 50             	mov    eax,DWORD PTR [rbx+0x50]
   140003332:	89 43 54             	mov    DWORD PTR [rbx+0x54],eax
   140003335:	89 53 50             	mov    DWORD PTR [rbx+0x50],edx
   140003338:	88 53 5c             	mov    BYTE PTR [rbx+0x5c],dl
   14000333b:	88 53 5e             	mov    BYTE PTR [rbx+0x5e],dl
   14000333e:	88 53 60             	mov    BYTE PTR [rbx+0x60],dl
   140003341:	e8 fa 49 00 00       	call   0x140007d40
   140003346:	8b bc 24 30 01 00 00 	mov    edi,DWORD PTR [rsp+0x130]
   14000334d:	45 8b c5             	mov    r8d,r13d
   140003350:	44 8b cf             	mov    r9d,edi
   140003353:	49 8b d6             	mov    rdx,r14
   140003356:	48 8b cd             	mov    rcx,rbp
   140003359:	e8 12 f8 ff ff       	call   0x140002b70
   14000335e:	48 8d 44 24 50       	lea    rax,[rsp+0x50]
   140003363:	4c 8b cd             	mov    r9,rbp
   140003366:	4c 8b c3             	mov    r8,rbx
   140003369:	48 89 44 24 20       	mov    QWORD PTR [rsp+0x20],rax
   14000336e:	49 8b d6             	mov    rdx,r14
   140003371:	41 8b cd             	mov    ecx,r13d
   140003374:	e8 af 0e 00 00       	call   0x140004228
   140003379:	44 88 a6 dc 17 00 00 	mov    BYTE PTR [rsi+0x17dc],r12b
   140003380:	44 38 a6 db 17 00 00 	cmp    BYTE PTR [rsi+0x17db],r12b
   140003387:	74 13                	je     0x14000339c
   140003389:	f3 0f 10 0d b3 7e 00 	movss  xmm1,DWORD PTR [rip+0x7eb3]        # 0x14000b244
   140003390:	00 
   140003391:	45 33 c0             	xor    r8d,r8d
   140003394:	49 8b cf             	mov    rcx,r15
   140003397:	e8 10 01 00 00       	call   0x1400034ac
   14000339c:	80 7b 5f 00          	cmp    BYTE PTR [rbx+0x5f],0x0
   1400033a0:	8a 43 5e             	mov    al,BYTE PTR [rbx+0x5e]
   1400033a3:	76 09                	jbe    0x1400033ae
   1400033a5:	84 c0                	test   al,al
   1400033a7:	75 09                	jne    0x1400033b2
   1400033a9:	89 7b 58             	mov    DWORD PTR [rbx+0x58],edi
   1400033ac:	eb 7c                	jmp    0x14000342a
   1400033ae:	84 c0                	test   al,al
   1400033b0:	74 78                	je     0x14000342a
   1400033b2:	8a 43 60             	mov    al,BYTE PTR [rbx+0x60]
   1400033b5:	3c 01                	cmp    al,0x1
   1400033b7:	75 48                	jne    0x140003401
   1400033b9:	4c 8d 4c 24 30       	lea    r9,[rsp+0x30]
   1400033be:	4d 8b c7             	mov    r8,r15
   1400033c1:	48 8b d5             	mov    rdx,rbp
   1400033c4:	48 8b cb             	mov    rcx,rbx
   1400033c7:	e8 24 06 00 00       	call   0x1400039f0
   1400033cc:	0f bf 44 24 30       	movsx  eax,WORD PTR [rsp+0x30]
   1400033d1:	89 44 24 38          	mov    DWORD PTR [rsp+0x38],eax
   1400033d5:	0f bf 44 24 32       	movsx  eax,WORD PTR [rsp+0x32]
   1400033da:	89 44 24 3c          	mov    DWORD PTR [rsp+0x3c],eax
   1400033de:	48 63 44 24 50       	movsxd rax,DWORD PTR [rsp+0x50]
   1400033e3:	48 6b c8 1c          	imul   rcx,rax,0x1c
   1400033e7:	0f b7 44 29 10       	movzx  eax,WORD PTR [rcx+rbp*1+0x10]
   1400033ec:	66 89 86 06 18 00 00 	mov    WORD PTR [rsi+0x1806],ax
   1400033f3:	0f b7 44 29 12       	movzx  eax,WORD PTR [rcx+rbp*1+0x12]
   1400033f8:	66 89 86 08 18 00 00 	mov    WORD PTR [rsi+0x1808],ax
   1400033ff:	eb 29                	jmp    0x14000342a
   140003401:	3c 02                	cmp    al,0x2
   140003403:	75 25                	jne    0x14000342a
   140003405:	4c 8d 4c 24 30       	lea    r9,[rsp+0x30]
   14000340a:	4d 8b c7             	mov    r8,r15
   14000340d:	48 8b d5             	mov    rdx,rbp
   140003410:	48 8b cb             	mov    rcx,rbx
   140003413:	e8 d8 05 00 00       	call   0x1400039f0
   140003418:	0f bf 44 24 30       	movsx  eax,WORD PTR [rsp+0x30]
   14000341d:	89 44 24 38          	mov    DWORD PTR [rsp+0x38],eax
   140003421:	0f bf 44 24 32       	movsx  eax,WORD PTR [rsp+0x32]
   140003426:	89 44 24 3c          	mov    DWORD PTR [rsp+0x3c],eax
   14000342a:	8a 44 24 38          	mov    al,BYTE PTR [rsp+0x38]
   14000342e:	ba 42 54 4d 54       	mov    edx,0x544d5442
   140003433:	88 86 e0 17 00 00    	mov    BYTE PTR [rsi+0x17e0],al
   140003439:	49 8b ce             	mov    rcx,r14
   14000343c:	8a 44 24 3c          	mov    al,BYTE PTR [rsp+0x3c]
   140003440:	88 86 e1 17 00 00    	mov    BYTE PTR [rsi+0x17e1],al
   140003446:	ff 15 1c 7c 00 00    	call   QWORD PTR [rip+0x7c1c]        # 0x14000b068
   14000344c:	48 8b 8c 24 d0 00 00 	mov    rcx,QWORD PTR [rsp+0xd0]
   140003453:	00 
   140003454:	48 33 cc             	xor    rcx,rsp
   140003457:	e8 c4 38 00 00       	call   0x140006d20
   14000345c:	4c 8d 9c 24 e0 00 00 	lea    r11,[rsp+0xe0]
   140003463:	00 
   140003464:	49 8b 5b 38          	mov    rbx,QWORD PTR [r11+0x38]
   140003468:	49 8b 6b 40          	mov    rbp,QWORD PTR [r11+0x40]
   14000346c:	49 8b 73 48          	mov    rsi,QWORD PTR [r11+0x48]
   140003470:	49 8b e3             	mov    rsp,r11
   140003473:	41 5f                	pop    r15
   140003475:	41 5e                	pop    r14
   140003477:	41 5d                	pop    r13
   140003479:	41 5c                	pop    r12
   14000347b:	5f                   	pop    rdi
   14000347c:	c3                   	ret
   14000347d:	cc                   	int3
   14000347e:	cc                   	int3
   14000347f:	cc                   	int3
   140003480:	33 c0                	xor    eax,eax
   140003482:	48 89 01             	mov    QWORD PTR [rcx],rax
   140003485:	48 89 41 08          	mov    QWORD PTR [rcx+0x8],rax
   140003489:	48 89 41 18          	mov    QWORD PTR [rcx+0x18],rax
   14000348d:	c3                   	ret
   14000348e:	cc                   	int3
   14000348f:	cc                   	int3
   140003490:	33 d2                	xor    edx,edx
   140003492:	44 8d 42 68          	lea    r8d,[rdx+0x68]
   140003496:	e9 a5 48 00 00       	jmp    0x140007d40
   14000349b:	cc                   	int3
   14000349c:	33 d2                	xor    edx,edx
   14000349e:	41 b8 48 0e 00 00    	mov    r8d,0xe48
   1400034a4:	e9 97 48 00 00       	jmp    0x140007d40
   1400034a9:	cc                   	int3
   1400034aa:	cc                   	int3
   1400034ab:	cc                   	int3
   1400034ac:	48 8b c4             	mov    rax,rsp
   1400034af:	48 89 58 08          	mov    QWORD PTR [rax+0x8],rbx
   1400034b3:	48 89 70 10          	mov    QWORD PTR [rax+0x10],rsi
   1400034b7:	57                   	push   rdi
   1400034b8:	48 83 ec 40          	sub    rsp,0x40
   1400034bc:	f2 0f 10 05 ac 7d 00 	movsd  xmm0,QWORD PTR [rip+0x7dac]        # 0x14000b270
   1400034c3:	00 
   1400034c4:	48 be 14 00 00 00 80 	movabs rsi,0xfffff78000000014
   1400034cb:	f7 ff ff 
   1400034ce:	0f 29 70 e8          	movaps XMMWORD PTR [rax-0x18],xmm6
   1400034d2:	41 8a d8             	mov    bl,r8b
   1400034d5:	0f 28 f1             	movaps xmm6,xmm1
   1400034d8:	0f 29 78 d8          	movaps XMMWORD PTR [rax-0x28],xmm7
   1400034dc:	f2 0f 10 3d e4 7d 00 	movsd  xmm7,QWORD PTR [rip+0x7de4]        # 0x14000b2c8
   1400034e3:	00 
   1400034e4:	0f 57 c9             	xorps  xmm1,xmm1
   1400034e7:	48 8b 06             	mov    rax,QWORD PTR [rsi]
   1400034ea:	48 8b f9             	mov    rdi,rcx
   1400034ed:	f2 48 0f 2a c8       	cvtsi2sd xmm1,rax
   1400034f2:	f2 0f 5e cf          	divsd  xmm1,xmm7
   1400034f6:	f2 0f 5c 49 18       	subsd  xmm1,QWORD PTR [rcx+0x18]
   1400034fb:	f2 0f 5e 0d 4d 7d 00 	divsd  xmm1,QWORD PTR [rip+0x7d4d]        # 0x14000b250
   140003502:	00 
   140003503:	e8 08 3c 00 00       	call   0x140007110
   140003508:	0f 57 c9             	xorps  xmm1,xmm1
   14000350b:	f2 0f 5a c8          	cvtsd2ss xmm1,xmm0
   14000350f:	84 db                	test   bl,bl
   140003511:	75 1c                	jne    0x14000352f
   140003513:	f3 0f 10 05 29 7d 00 	movss  xmm0,DWORD PTR [rip+0x7d29]        # 0x14000b244
   14000351a:	00 
   14000351b:	f3 0f 5c c1          	subss  xmm0,xmm1
   14000351f:	f3 0f 59 4f 10       	mulss  xmm1,DWORD PTR [rdi+0x10]
   140003524:	f3 0f 59 c6          	mulss  xmm0,xmm6
   140003528:	0f 28 f0             	movaps xmm6,xmm0
   14000352b:	f3 0f 58 f1          	addss  xmm6,xmm1
   14000352f:	f3 0f 11 77 10       	movss  DWORD PTR [rdi+0x10],xmm6
   140003534:	0f 57 c0             	xorps  xmm0,xmm0
   140003537:	48 8b 06             	mov    rax,QWORD PTR [rsi]
   14000353a:	48 8b 5c 24 50       	mov    rbx,QWORD PTR [rsp+0x50]
   14000353f:	48 8b 74 24 58       	mov    rsi,QWORD PTR [rsp+0x58]
   140003544:	0f 28 74 24 30       	movaps xmm6,XMMWORD PTR [rsp+0x30]
   140003549:	f2 48 0f 2a c0       	cvtsi2sd xmm0,rax
   14000354e:	f2 0f 5e c7          	divsd  xmm0,xmm7
   140003552:	0f 28 7c 24 20       	movaps xmm7,XMMWORD PTR [rsp+0x20]
   140003557:	f2 0f 11 47 18       	movsd  QWORD PTR [rdi+0x18],xmm0
   14000355c:	48 83 c4 40          	add    rsp,0x40
   140003560:	5f                   	pop    rdi
   140003561:	c3                   	ret
   140003562:	cc                   	int3
   140003563:	cc                   	int3
   140003564:	48 8b c4             	mov    rax,rsp
   140003567:	48 89 58 08          	mov    QWORD PTR [rax+0x8],rbx
   14000356b:	57                   	push   rdi
   14000356c:	48 83 ec 60          	sub    rsp,0x60
   140003570:	f3 0f 10 19          	movss  xmm3,DWORD PTR [rcx]
   140003574:	0f 57 c0             	xorps  xmm0,xmm0
   140003577:	0f 29 70 e8          	movaps XMMWORD PTR [rax-0x18],xmm6
   14000357b:	0f 57 f6             	xorps  xmm6,xmm6
   14000357e:	0f 29 78 d8          	movaps XMMWORD PTR [rax-0x28],xmm7
   140003582:	48 bf 14 00 00 00 80 	movabs rdi,0xfffff78000000014
   140003589:	f7 ff ff 
   14000358c:	44 0f 29 40 c8       	movaps XMMWORD PTR [rax-0x38],xmm8
   140003591:	48 8b d9             	mov    rbx,rcx
   140003594:	44 0f 29 48 b8       	movaps XMMWORD PTR [rax-0x48],xmm9
   140003599:	f3 0f 58 59 04       	addss  xmm3,DWORD PTR [rcx+0x4]
   14000359e:	48 8b 07             	mov    rax,QWORD PTR [rdi]
   1400035a1:	f3 0f 5a c1          	cvtss2sd xmm0,xmm1
   1400035a5:	f2 48 0f 2a f0       	cvtsi2sd xmm6,rax
   1400035aa:	0f 54 05 4f 7d 00 00 	andps  xmm0,XMMWORD PTR [rip+0x7d4f]        # 0x14000b300
   1400035b1:	f2 0f 5e 35 0f 7d 00 	divsd  xmm6,QWORD PTR [rip+0x7d0f]        # 0x14000b2c8
   1400035b8:	00 
   1400035b9:	66 44 0f 5a c8       	cvtpd2ps xmm9,xmm0
   1400035be:	0f 57 c0             	xorps  xmm0,xmm0
   1400035c1:	f2 0f 5c 71 08       	subsd  xmm6,QWORD PTR [rcx+0x8]
   1400035c6:	f3 0f 5a c2          	cvtss2sd xmm0,xmm2
   1400035ca:	0f 54 05 2f 7d 00 00 	andps  xmm0,XMMWORD PTR [rip+0x7d2f]        # 0x14000b300
   1400035d1:	66 44 0f 5a c0       	cvtpd2ps xmm8,xmm0
   1400035d6:	45 84 c9             	test   r9b,r9b
   1400035d9:	74 12                	je     0x1400035ed
   1400035db:	f2 0f 10 05 75 7c 00 	movsd  xmm0,QWORD PTR [rip+0x7c75]        # 0x14000b258
   1400035e2:	00 
   1400035e3:	66 0f 2f c6          	comisd xmm0,xmm6
   1400035e7:	0f 87 b7 00 00 00    	ja     0x1400036a4
   1400035ed:	0f 2f 1d c0 7c 00 00 	comiss xmm3,DWORD PTR [rip+0x7cc0]        # 0x14000b2b4
   1400035f4:	f2 0f 5e 35 4c 7c 00 	divsd  xmm6,QWORD PTR [rip+0x7c4c]        # 0x14000b248
   1400035fb:	00 
   1400035fc:	76 0a                	jbe    0x140003608
   1400035fe:	f2 0f 10 05 6a 7c 00 	movsd  xmm0,QWORD PTR [rip+0x7c6a]        # 0x14000b270
   140003605:	00 
   140003606:	eb 08                	jmp    0x140003610
   140003608:	f2 0f 10 05 68 7c 00 	movsd  xmm0,QWORD PTR [rip+0x7c68]        # 0x14000b278
   14000360f:	00 
   140003610:	0f 28 ce             	movaps xmm1,xmm6
   140003613:	e8 f8 3a 00 00       	call   0x140007110
   140003618:	0f 57 ff             	xorps  xmm7,xmm7
   14000361b:	0f 28 ce             	movaps xmm1,xmm6
   14000361e:	f2 0f 5a f8          	cvtsd2ss xmm7,xmm0
   140003622:	f2 0f 10 05 36 7c 00 	movsd  xmm0,QWORD PTR [rip+0x7c36]        # 0x14000b260
   140003629:	00 
   14000362a:	e8 e1 3a 00 00       	call   0x140007110
   14000362f:	f3 0f 10 2b          	movss  xmm5,DWORD PTR [rbx]
   140003633:	0f 57 d2             	xorps  xmm2,xmm2
   140003636:	44 0f 2f cd          	comiss xmm9,xmm5
   14000363a:	f2 0f 5a d0          	cvtsd2ss xmm2,xmm0
   14000363e:	76 05                	jbe    0x140003645
   140003640:	0f 28 e2             	movaps xmm4,xmm2
   140003643:	eb 03                	jmp    0x140003648
   140003645:	0f 28 e7             	movaps xmm4,xmm7
   140003648:	f3 0f 10 5b 04       	movss  xmm3,DWORD PTR [rbx+0x4]
   14000364d:	44 0f 2f c3          	comiss xmm8,xmm3
   140003651:	77 03                	ja     0x140003656
   140003653:	0f 28 d7             	movaps xmm2,xmm7
   140003656:	f3 0f 10 0d e6 7b 00 	movss  xmm1,DWORD PTR [rip+0x7be6]        # 0x14000b244
   14000365d:	00 
   14000365e:	0f 28 c1             	movaps xmm0,xmm1
   140003661:	f3 0f 59 ec          	mulss  xmm5,xmm4
   140003665:	f3 0f 5c c4          	subss  xmm0,xmm4
   140003669:	f3 0f 59 da          	mulss  xmm3,xmm2
   14000366d:	f3 0f 5c ca          	subss  xmm1,xmm2
   140003671:	f3 41 0f 59 c1       	mulss  xmm0,xmm9
   140003676:	f3 41 0f 59 c8       	mulss  xmm1,xmm8
   14000367b:	f3 0f 58 c5          	addss  xmm0,xmm5
   14000367f:	f3 0f 58 cb          	addss  xmm1,xmm3
   140003683:	f3 0f 11 03          	movss  DWORD PTR [rbx],xmm0
   140003687:	0f 57 c0             	xorps  xmm0,xmm0
   14000368a:	f3 0f 11 4b 04       	movss  DWORD PTR [rbx+0x4],xmm1
   14000368f:	48 8b 07             	mov    rax,QWORD PTR [rdi]
   140003692:	f2 48 0f 2a c0       	cvtsi2sd xmm0,rax
   140003697:	f2 0f 5e 05 29 7c 00 	divsd  xmm0,QWORD PTR [rip+0x7c29]        # 0x14000b2c8
   14000369e:	00 
   14000369f:	f2 0f 11 43 08       	movsd  QWORD PTR [rbx+0x8],xmm0
   1400036a4:	48 8b 5c 24 70       	mov    rbx,QWORD PTR [rsp+0x70]
   1400036a9:	0f 28 74 24 50       	movaps xmm6,XMMWORD PTR [rsp+0x50]
   1400036ae:	0f 28 7c 24 40       	movaps xmm7,XMMWORD PTR [rsp+0x40]
   1400036b3:	44 0f 28 44 24 30    	movaps xmm8,XMMWORD PTR [rsp+0x30]
   1400036b9:	44 0f 28 4c 24 20    	movaps xmm9,XMMWORD PTR [rsp+0x20]
   1400036bf:	48 83 c4 60          	add    rsp,0x60
   1400036c3:	5f                   	pop    rdi
   1400036c4:	c3                   	ret
   1400036c5:	cc                   	int3
   1400036c6:	cc                   	int3
   1400036c7:	cc                   	int3
   1400036c8:	48 8b c4             	mov    rax,rsp
   1400036cb:	48 89 58 08          	mov    QWORD PTR [rax+0x8],rbx
   1400036cf:	48 89 70 10          	mov    QWORD PTR [rax+0x10],rsi
   1400036d3:	57                   	push   rdi
   1400036d4:	48 81 ec a0 00 00 00 	sub    rsp,0xa0
   1400036db:	0f 29 70 e8          	movaps XMMWORD PTR [rax-0x18],xmm6
   1400036df:	0f 57 d2             	xorps  xmm2,xmm2
   1400036e2:	0f 29 78 d8          	movaps XMMWORD PTR [rax-0x28],xmm7
   1400036e6:	0f 57 f6             	xorps  xmm6,xmm6
   1400036e9:	44 0f 29 40 c8       	movaps XMMWORD PTR [rax-0x38],xmm8
   1400036ee:	0f 57 ff             	xorps  xmm7,xmm7
   1400036f1:	f3 0f 2a bc 24 e0 00 	cvtsi2ss xmm7,DWORD PTR [rsp+0xe0]
   1400036f8:	00 00 
   1400036fa:	41 0f b7 f1          	movzx  esi,r9w
   1400036fe:	41 0f b7 d8          	movzx  ebx,r8w
   140003702:	44 0f 29 48 b8       	movaps XMMWORD PTR [rax-0x48],xmm9
   140003707:	f3 0f 59 3d d9 7b 00 	mulss  xmm7,DWORD PTR [rip+0x7bd9]        # 0x14000b2e8
   14000370e:	00 
   14000370f:	44 0f 29 58 a8       	movaps XMMWORD PTR [rax-0x58],xmm11
   140003714:	45 0f 57 db          	xorps  xmm11,xmm11
   140003718:	44 0f 29 60 98       	movaps XMMWORD PTR [rax-0x68],xmm12
   14000371d:	44 0f 29 68 88       	movaps XMMWORD PTR [rax-0x78],xmm13
   140003722:	0f b7 c1             	movzx  eax,cx
   140003725:	44 0f 29 74 24 20    	movaps XMMWORD PTR [rsp+0x20],xmm14
   14000372b:	f3 44 0f 2a d8       	cvtsi2ss xmm11,eax
   140003730:	0f b7 c2             	movzx  eax,dx
   140003733:	f3 0f 2a d0          	cvtsi2ss xmm2,eax
   140003737:	41 0f 28 cb          	movaps xmm1,xmm11
   14000373b:	f3 0f 5f ca          	maxss  xmm1,xmm2
   14000373f:	0f 2f ce             	comiss xmm1,xmm6
   140003742:	0f 86 62 02 00 00    	jbe    0x1400039aa
   140003748:	f3 44 0f 10 25 6f 7b 	movss  xmm12,DWORD PTR [rip+0x7b6f]        # 0x14000b2c0
   14000374f:	00 00 
   140003751:	41 0f 28 c3          	movaps xmm0,xmm11
   140003755:	f3 44 0f 10 2d d6 7a 	movss  xmm13,DWORD PTR [rip+0x7ad6]        # 0x14000b234
   14000375c:	00 00 
   14000375e:	f3 0f 5c c2          	subss  xmm0,xmm2
   140003762:	f3 44 0f 10 0d d9 7a 	movss  xmm9,DWORD PTR [rip+0x7ad9]        # 0x14000b244
   140003769:	00 00 
   14000376b:	f3 0f 59 05 6d 7b 00 	mulss  xmm0,DWORD PTR [rip+0x7b6d]        # 0x14000b2e0
   140003772:	00 
   140003773:	f3 0f 5e c1          	divss  xmm0,xmm1
   140003777:	0f 5a c0             	cvtps2pd xmm0,xmm0
   14000377a:	0f 54 05 7f 7b 00 00 	andps  xmm0,XMMWORD PTR [rip+0x7b7f]        # 0x14000b300
   140003781:	66 0f 5a c8          	cvtpd2ps xmm1,xmm0
   140003785:	44 0f 2f e1          	comiss xmm12,xmm1
   140003789:	72 05                	jb     0x140003790
   14000378b:	0f 57 c9             	xorps  xmm1,xmm1
   14000378e:	eb 1c                	jmp    0x1400037ac
   140003790:	0f 2f 0d 41 7b 00 00 	comiss xmm1,DWORD PTR [rip+0x7b41]        # 0x14000b2d8
   140003797:	72 06                	jb     0x14000379f
   140003799:	41 0f 28 c9          	movaps xmm1,xmm9
   14000379d:	eb 0d                	jmp    0x1400037ac
   14000379f:	f3 41 0f 5c cc       	subss  xmm1,xmm12
   1400037a4:	f3 0f 5e 0d 28 7b 00 	divss  xmm1,DWORD PTR [rip+0x7b28]        # 0x14000b2d4
   1400037ab:	00 
   1400037ac:	0f 5a c1             	cvtps2pd xmm0,xmm1
   1400037af:	f2 0f 10 0d d1 7a 00 	movsd  xmm1,QWORD PTR [rip+0x7ad1]        # 0x14000b288
   1400037b6:	00 
   1400037b7:	e8 54 39 00 00       	call   0x140007110
   1400037bc:	80 bc 24 e8 00 00 00 	cmp    BYTE PTR [rsp+0xe8],0x0
   1400037c3:	00 
   1400037c4:	45 0f 57 c0          	xorps  xmm8,xmm8
   1400037c8:	f3 44 0f 10 b4 24 f0 	movss  xmm14,DWORD PTR [rsp+0xf0]
   1400037cf:	00 00 00 
   1400037d2:	f2 44 0f 5a c0       	cvtsd2ss xmm8,xmm0
   1400037d7:	74 0a                	je     0x1400037e3
   1400037d9:	45 0f 2f f3          	comiss xmm14,xmm11
   1400037dd:	76 04                	jbe    0x1400037e3
   1400037df:	45 0f 57 c0          	xorps  xmm8,xmm8
   1400037e3:	0f 2f f7             	comiss xmm6,xmm7
   1400037e6:	72 06                	jb     0x1400037ee
   1400037e8:	41 0f 28 c9          	movaps xmm1,xmm9
   1400037ec:	eb 1e                	jmp    0x14000380c
   1400037ee:	0f 2f 3d 2f 7a 00 00 	comiss xmm7,DWORD PTR [rip+0x7a2f]        # 0x14000b224
   1400037f5:	72 05                	jb     0x1400037fc
   1400037f7:	0f 57 c9             	xorps  xmm1,xmm1
   1400037fa:	eb 10                	jmp    0x14000380c
   1400037fc:	f3 0f 10 0d 20 7a 00 	movss  xmm1,DWORD PTR [rip+0x7a20]        # 0x14000b224
   140003803:	00 
   140003804:	f3 0f 5c cf          	subss  xmm1,xmm7
   140003808:	f3 0f 58 c9          	addss  xmm1,xmm1
   14000380c:	0f b7 fb             	movzx  edi,bx
   14000380f:	f3 0f 58 c9          	addss  xmm1,xmm1
   140003813:	0f b7 9c 24 d0 00 00 	movzx  ebx,WORD PTR [rsp+0xd0]
   14000381a:	00 
   14000381b:	8b cf                	mov    ecx,edi
   14000381d:	0f b7 c6             	movzx  eax,si
   140003820:	2b c8                	sub    ecx,eax
   140003822:	0f b7 84 24 d8 00 00 	movzx  eax,WORD PTR [rsp+0xd8]
   140003829:	00 
   14000382a:	f3 41 0f 58 c9       	addss  xmm1,xmm9
   14000382f:	66 0f 6e c1          	movd   xmm0,ecx
   140003833:	8b cb                	mov    ecx,ebx
   140003835:	f3 0f e6 c0          	cvtdq2pd xmm0,xmm0
   140003839:	2b c8                	sub    ecx,eax
   14000383b:	0f 54 05 be 7a 00 00 	andps  xmm0,XMMWORD PTR [rip+0x7abe]        # 0x14000b300
   140003842:	66 0f 5a d0          	cvtpd2ps xmm2,xmm0
   140003846:	66 0f 6e c1          	movd   xmm0,ecx
   14000384a:	f3 0f e6 c0          	cvtdq2pd xmm0,xmm0
   14000384e:	0f 54 05 ab 7a 00 00 	andps  xmm0,XMMWORD PTR [rip+0x7aab]        # 0x14000b300
   140003855:	66 0f 5a c0          	cvtpd2ps xmm0,xmm0
   140003859:	f3 0f 5f d0          	maxss  xmm2,xmm0
   14000385d:	0f 2f ca             	comiss xmm1,xmm2
   140003860:	72 05                	jb     0x140003867
   140003862:	0f 57 d2             	xorps  xmm2,xmm2
   140003865:	eb 13                	jmp    0x14000387a
   140003867:	0f 28 c1             	movaps xmm0,xmm1
   14000386a:	f3 0f 5c d1          	subss  xmm2,xmm1
   14000386e:	f3 0f 58 c1          	addss  xmm0,xmm1
   140003872:	f3 0f 5c c1          	subss  xmm0,xmm1
   140003876:	f3 0f 5e d0          	divss  xmm2,xmm0
   14000387a:	f2 0f 10 0d 06 7a 00 	movsd  xmm1,QWORD PTR [rip+0x7a06]        # 0x14000b288
   140003881:	00 
   140003882:	0f 5a c2             	cvtps2pd xmm0,xmm2
   140003885:	e8 86 38 00 00       	call   0x140007110
   14000388a:	48 8b 84 24 00 01 00 	mov    rax,QWORD PTR [rsp+0x100]
   140003891:	00 
   140003892:	0f 57 db             	xorps  xmm3,xmm3
   140003895:	f2 0f 5a d8          	cvtsd2ss xmm3,xmm0
   140003899:	f3 0f 10 10          	movss  xmm2,DWORD PTR [rax]
   14000389d:	0f 2f da             	comiss xmm3,xmm2
   1400038a0:	76 0b                	jbe    0x1400038ad
   1400038a2:	f3 44 0f 10 2d 6d 79 	movss  xmm13,DWORD PTR [rip+0x796d]        # 0x14000b218
   1400038a9:	00 00 
   1400038ab:	eb 0f                	jmp    0x1400038bc
   1400038ad:	45 0f 2f f3          	comiss xmm14,xmm11
   1400038b1:	76 09                	jbe    0x1400038bc
   1400038b3:	f3 44 0f 10 2d 68 79 	movss  xmm13,DWORD PTR [rip+0x7968]        # 0x14000b224
   1400038ba:	00 00 
   1400038bc:	f3 41 0f 59 d5       	mulss  xmm2,xmm13
   1400038c1:	41 0f 28 c9          	movaps xmm1,xmm9
   1400038c5:	f3 41 0f 5c cd       	subss  xmm1,xmm13
   1400038ca:	66 0f 6e c7          	movd   xmm0,edi
   1400038ce:	0f 5b c0             	cvtdq2ps xmm0,xmm0
   1400038d1:	f3 0f 59 cb          	mulss  xmm1,xmm3
   1400038d5:	f3 0f 58 ca          	addss  xmm1,xmm2
   1400038d9:	f3 0f 10 15 e3 79 00 	movss  xmm2,DWORD PTR [rip+0x79e3]        # 0x14000b2c4
   1400038e0:	00 
   1400038e1:	0f 2f d0             	comiss xmm2,xmm0
   1400038e4:	f3 0f 11 08          	movss  DWORD PTR [rax],xmm1
   1400038e8:	72 05                	jb     0x1400038ef
   1400038ea:	0f 57 db             	xorps  xmm3,xmm3
   1400038ed:	eb 0f                	jmp    0x1400038fe
   1400038ef:	0f 28 d8             	movaps xmm3,xmm0
   1400038f2:	f3 0f 5c da          	subss  xmm3,xmm2
   1400038f6:	f3 0f 5e 1d b6 79 00 	divss  xmm3,DWORD PTR [rip+0x79b6]        # 0x14000b2b4
   1400038fd:	00 
   1400038fe:	66 0f 6e e3          	movd   xmm4,ebx
   140003902:	0f 5b e4             	cvtdq2ps xmm4,xmm4
   140003905:	44 0f 2f e4          	comiss xmm12,xmm4
   140003909:	72 05                	jb     0x140003910
   14000390b:	0f 57 d2             	xorps  xmm2,xmm2
   14000390e:	eb 10                	jmp    0x140003920
   140003910:	0f 28 d4             	movaps xmm2,xmm4
   140003913:	f3 41 0f 5c d4       	subss  xmm2,xmm12
   140003918:	f3 0f 5e 15 84 79 00 	divss  xmm2,DWORD PTR [rip+0x7984]        # 0x14000b2a4
   14000391f:	00 
   140003920:	f3 0f 10 2d 94 79 00 	movss  xmm5,DWORD PTR [rip+0x7994]        # 0x14000b2bc
   140003927:	00 
   140003928:	0f 2f e5             	comiss xmm4,xmm5
   14000392b:	76 06                	jbe    0x140003933
   14000392d:	f3 0f 5e c4          	divss  xmm0,xmm4
   140003931:	eb 0f                	jmp    0x140003942
   140003933:	0f 2f c5             	comiss xmm0,xmm5
   140003936:	76 06                	jbe    0x14000393e
   140003938:	f3 0f 5e c5          	divss  xmm0,xmm5
   14000393c:	eb 04                	jmp    0x140003942
   14000393e:	41 0f 28 c1          	movaps xmm0,xmm9
   140003942:	f3 0f 10 25 56 79 00 	movss  xmm4,DWORD PTR [rip+0x7956]        # 0x14000b2a0
   140003949:	00 
   14000394a:	0f 2f e0             	comiss xmm4,xmm0
   14000394d:	72 05                	jb     0x140003954
   14000394f:	0f 57 c0             	xorps  xmm0,xmm0
   140003952:	eb 0c                	jmp    0x140003960
   140003954:	f3 0f 5c c4          	subss  xmm0,xmm4
   140003958:	f3 0f 5e 05 c0 78 00 	divss  xmm0,DWORD PTR [rip+0x78c0]        # 0x14000b220
   14000395f:	00 
   140003960:	f3 0f 10 25 68 79 00 	movss  xmm4,DWORD PTR [rip+0x7968]        # 0x14000b2d0
   140003967:	00 
   140003968:	0f 2f a4 24 f8 00 00 	comiss xmm4,DWORD PTR [rsp+0xf8]
   14000396f:	00 
   140003970:	73 15                	jae    0x140003987
   140003972:	f3 0f 10 b4 24 f8 00 	movss  xmm6,DWORD PTR [rsp+0xf8]
   140003979:	00 00 
   14000397b:	f3 0f 5c f4          	subss  xmm6,xmm4
   14000397f:	f3 0f 5e 35 25 79 00 	divss  xmm6,DWORD PTR [rip+0x7925]        # 0x14000b2ac
   140003986:	00 
   140003987:	f3 0f 5f c8          	maxss  xmm1,xmm0
   14000398b:	f3 0f 5f d3          	maxss  xmm2,xmm3
   14000398f:	0f 2f ca             	comiss xmm1,xmm2
   140003992:	77 03                	ja     0x140003997
   140003994:	0f 28 ca             	movaps xmm1,xmm2
   140003997:	0f 2f ce             	comiss xmm1,xmm6
   14000399a:	77 03                	ja     0x14000399f
   14000399c:	0f 28 ce             	movaps xmm1,xmm6
   14000399f:	f3 44 0f 5f c1       	maxss  xmm8,xmm1
   1400039a4:	41 0f 28 c0          	movaps xmm0,xmm8
   1400039a8:	eb 08                	jmp    0x1400039b2
   1400039aa:	f3 0f 10 05 92 78 00 	movss  xmm0,DWORD PTR [rip+0x7892]        # 0x14000b244
   1400039b1:	00 
   1400039b2:	4c 8d 9c 24 a0 00 00 	lea    r11,[rsp+0xa0]
   1400039b9:	00 
   1400039ba:	49 8b 5b 10          	mov    rbx,QWORD PTR [r11+0x10]
   1400039be:	49 8b 73 18          	mov    rsi,QWORD PTR [r11+0x18]
   1400039c2:	41 0f 28 73 f0       	movaps xmm6,XMMWORD PTR [r11-0x10]
   1400039c7:	41 0f 28 7b e0       	movaps xmm7,XMMWORD PTR [r11-0x20]
   1400039cc:	45 0f 28 43 d0       	movaps xmm8,XMMWORD PTR [r11-0x30]
   1400039d1:	45 0f 28 4b c0       	movaps xmm9,XMMWORD PTR [r11-0x40]
   1400039d6:	45 0f 28 5b b0       	movaps xmm11,XMMWORD PTR [r11-0x50]
   1400039db:	45 0f 28 63 a0       	movaps xmm12,XMMWORD PTR [r11-0x60]
   1400039e0:	45 0f 28 6b 90       	movaps xmm13,XMMWORD PTR [r11-0x70]
   1400039e5:	45 0f 28 73 80       	movaps xmm14,XMMWORD PTR [r11-0x80]
   1400039ea:	49 8b e3             	mov    rsp,r11
   1400039ed:	5f                   	pop    rdi
   1400039ee:	c3                   	ret
   1400039ef:	cc                   	int3
   1400039f0:	48 8b c4             	mov    rax,rsp
   1400039f3:	48 89 58 08          	mov    QWORD PTR [rax+0x8],rbx
   1400039f7:	48 89 68 10          	mov    QWORD PTR [rax+0x10],rbp
   1400039fb:	48 89 70 18          	mov    QWORD PTR [rax+0x18],rsi
   1400039ff:	57                   	push   rdi
   140003a00:	41 56                	push   r14
   140003a02:	41 57                	push   r15
   140003a04:	48 81 ec d0 00 00 00 	sub    rsp,0xd0
   140003a0b:	f3 0f 10 05 09 78 00 	movss  xmm0,DWORD PTR [rip+0x7809]        # 0x14000b21c
   140003a12:	00 
   140003a13:	4d 8b f9             	mov    r15,r9
   140003a16:	0f 29 70 d8          	movaps XMMWORD PTR [rax-0x28],xmm6
   140003a1a:	49 8b e8             	mov    rbp,r8
   140003a1d:	0f 29 78 c8          	movaps XMMWORD PTR [rax-0x38],xmm7
   140003a21:	48 8b da             	mov    rbx,rdx
   140003a24:	44 0f 29 40 b8       	movaps XMMWORD PTR [rax-0x48],xmm8
   140003a29:	4c 8b f1             	mov    r14,rcx
   140003a2c:	44 0f 29 48 a8       	movaps XMMWORD PTR [rax-0x58],xmm9
   140003a31:	45 0f 57 c9          	xorps  xmm9,xmm9
   140003a35:	44 0f 29 50 98       	movaps XMMWORD PTR [rax-0x68],xmm10
   140003a3a:	45 0f 57 d2          	xorps  xmm10,xmm10
   140003a3e:	44 0f 29 58 88       	movaps XMMWORD PTR [rax-0x78],xmm11
   140003a43:	45 0f 57 db          	xorps  xmm11,xmm11
   140003a47:	44 0f 29 64 24 60    	movaps XMMWORD PTR [rsp+0x60],xmm12
   140003a4d:	45 0f 57 e4          	xorps  xmm12,xmm12
   140003a51:	44 0f 29 6c 24 50    	movaps XMMWORD PTR [rsp+0x50],xmm13
   140003a57:	45 0f 57 ed          	xorps  xmm13,xmm13
   140003a5b:	44 0f 29 74 24 40    	movaps XMMWORD PTR [rsp+0x40],xmm14
   140003a61:	e8 9a 1e 00 00       	call   0x140005900
   140003a66:	f2 0f 10 15 12 78 00 	movsd  xmm2,QWORD PTR [rip+0x7812]        # 0x14000b280
   140003a6d:	00 
   140003a6e:	0f 57 c9             	xorps  xmm1,xmm1
   140003a71:	f3 0f 5a c8          	cvtss2sd xmm1,xmm0
   140003a75:	bf 01 00 00 00       	mov    edi,0x1
   140003a7a:	f2 0f 5e d1          	divsd  xmm2,xmm1
   140003a7e:	66 44 0f 5a f2       	cvtpd2ps xmm14,xmm2
   140003a83:	49 63 0c be          	movsxd rcx,DWORD PTR [r14+rdi*4]
   140003a87:	48 6b d1 1c          	imul   rdx,rcx,0x1c
   140003a8b:	48 8b f1             	mov    rsi,rcx
   140003a8e:	0f 10 44 1a 08       	movups xmm0,XMMWORD PTR [rdx+rbx*1+0x8]
   140003a93:	0f 11 44 24 20       	movups XMMWORD PTR [rsp+0x20],xmm0
   140003a98:	85 c9                	test   ecx,ecx
   140003a9a:	0f 8e f4 00 00 00    	jle    0x140003b94
   140003aa0:	48 8b 44 24 20       	mov    rax,QWORD PTR [rsp+0x20]
   140003aa5:	48 c1 e8 08          	shr    rax,0x8
   140003aa9:	2c 03                	sub    al,0x3
   140003aab:	3c 01                	cmp    al,0x1
   140003aad:	0f 87 e1 00 00 00    	ja     0x140003b94
   140003ab3:	80 7c 1a 09 07       	cmp    BYTE PTR [rdx+rbx*1+0x9],0x7
   140003ab8:	75 09                	jne    0x140003ac3
   140003aba:	8a 84 1a 8a 03 00 00 	mov    al,BYTE PTR [rdx+rbx*1+0x38a]
   140003ac1:	eb 04                	jmp    0x140003ac7
   140003ac3:	8a 44 1a 0a          	mov    al,BYTE PTR [rdx+rbx*1+0xa]
   140003ac7:	0f b6 c0             	movzx  eax,al
   140003aca:	ff c8                	dec    eax
   140003acc:	83 f8 04             	cmp    eax,0x4
   140003acf:	0f 87 bf 00 00 00    	ja     0x140003b94
   140003ad5:	0f bf 44 24 28       	movsx  eax,WORD PTR [rsp+0x28]
   140003ada:	45 0f 57 c0          	xorps  xmm8,xmm8
   140003ade:	45 33 c9             	xor    r9d,r9d
   140003ae1:	48 8b d5             	mov    rdx,rbp
   140003ae4:	48 8b cb             	mov    rcx,rbx
   140003ae7:	f3 44 0f 2a c0       	cvtsi2ss xmm8,eax
   140003aec:	41 0f 28 d0          	movaps xmm2,xmm8
   140003af0:	f3 0f 59 15 18 77 00 	mulss  xmm2,DWORD PTR [rip+0x7718]        # 0x14000b210
   140003af7:	00 
   140003af8:	f3 0f 58 d2          	addss  xmm2,xmm2
   140003afc:	e8 77 06 00 00       	call   0x140004178
   140003b01:	0f bf 44 24 2a       	movsx  eax,WORD PTR [rsp+0x2a]
   140003b06:	0f 57 ff             	xorps  xmm7,xmm7
   140003b09:	41 b9 01 00 00 00    	mov    r9d,0x1
   140003b0f:	48 8b d5             	mov    rdx,rbp
   140003b12:	48 8b cb             	mov    rcx,rbx
   140003b15:	0f 28 f0             	movaps xmm6,xmm0
   140003b18:	f3 0f 2a f8          	cvtsi2ss xmm7,eax
   140003b1c:	0f 28 d7             	movaps xmm2,xmm7
   140003b1f:	f3 0f 59 15 e9 76 00 	mulss  xmm2,DWORD PTR [rip+0x76e9]        # 0x14000b210
   140003b26:	00 
   140003b27:	f3 0f 58 d2          	addss  xmm2,xmm2
   140003b2b:	e8 48 06 00 00       	call   0x140004178
   140003b30:	f3 0f 59 c0          	mulss  xmm0,xmm0
   140003b34:	f3 0f 59 f6          	mulss  xmm6,xmm6
   140003b38:	f3 0f 58 c6          	addss  xmm0,xmm6
   140003b3c:	f3 0f 5a c0          	cvtss2sd xmm0,xmm0
   140003b40:	e8 5b 12 00 00       	call   0x140004da0
   140003b45:	0f bf 84 b3 88 08 00 	movsx  eax,WORD PTR [rbx+rsi*4+0x888]
   140003b4c:	00 
   140003b4d:	0f 57 c9             	xorps  xmm1,xmm1
   140003b50:	0f 57 d2             	xorps  xmm2,xmm2
   140003b53:	f2 0f 5a d0          	cvtsd2ss xmm2,xmm0
   140003b57:	0f 57 c0             	xorps  xmm0,xmm0
   140003b5a:	f3 0f 2a c0          	cvtsi2ss xmm0,eax
   140003b5e:	0f bf 84 b3 8a 08 00 	movsx  eax,WORD PTR [rbx+rsi*4+0x88a]
   140003b65:	00 
   140003b66:	f3 44 0f 59 c2       	mulss  xmm8,xmm2
   140003b6b:	f3 44 0f 58 da       	addss  xmm11,xmm2
   140003b70:	f3 0f 2a c8          	cvtsi2ss xmm1,eax
   140003b74:	f3 0f 59 c2          	mulss  xmm0,xmm2
   140003b78:	f3 45 0f 58 e0       	addss  xmm12,xmm8
   140003b7d:	f3 0f 59 ca          	mulss  xmm1,xmm2
   140003b81:	f3 0f 59 fa          	mulss  xmm7,xmm2
   140003b85:	f3 44 0f 58 c8       	addss  xmm9,xmm0
   140003b8a:	f3 44 0f 58 d1       	addss  xmm10,xmm1
   140003b8f:	f3 44 0f 58 ef       	addss  xmm13,xmm7
   140003b94:	48 ff c7             	inc    rdi
   140003b97:	48 83 ff 05          	cmp    rdi,0x5
   140003b9b:	0f 8e e2 fe ff ff    	jle    0x140003a83
   140003ba1:	44 0f 2f 1d 5f 76 00 	comiss xmm11,DWORD PTR [rip+0x765f]        # 0x14000b208
   140003ba8:	00 
   140003ba9:	76 14                	jbe    0x140003bbf
   140003bab:	f3 45 0f 5e cb       	divss  xmm9,xmm11
   140003bb0:	f3 45 0f 5e d3       	divss  xmm10,xmm11
   140003bb5:	f3 45 0f 5e e3       	divss  xmm12,xmm11
   140003bba:	f3 45 0f 5e eb       	divss  xmm13,xmm11
   140003bbf:	f2 0f 10 25 39 77 00 	movsd  xmm4,QWORD PTR [rip+0x7739]        # 0x14000b300
   140003bc6:	00 
   140003bc7:	0f 57 d2             	xorps  xmm2,xmm2
   140003bca:	0f 57 db             	xorps  xmm3,xmm3
   140003bcd:	0f 57 c9             	xorps  xmm1,xmm1
   140003bd0:	f3 41 0f 5a d5       	cvtss2sd xmm2,xmm13
   140003bd5:	f3 41 0f 5a de       	cvtss2sd xmm3,xmm14
   140003bda:	f3 41 0f 5a cc       	cvtss2sd xmm1,xmm12
   140003bdf:	0f 54 d4             	andps  xmm2,xmm4
   140003be2:	0f 28 c3             	movaps xmm0,xmm3
   140003be5:	f2 0f 59 c2          	mulsd  xmm0,xmm2
   140003be9:	0f 54 cc             	andps  xmm1,xmm4
   140003bec:	66 0f 2f c8          	comisd xmm1,xmm0
   140003bf0:	76 06                	jbe    0x140003bf8
   140003bf2:	45 0f 57 d2          	xorps  xmm10,xmm10
   140003bf6:	eb 11                	jmp    0x140003c09
   140003bf8:	0f 28 c3             	movaps xmm0,xmm3
   140003bfb:	f2 0f 59 c1          	mulsd  xmm0,xmm1
   140003bff:	66 0f 2f d0          	comisd xmm2,xmm0
   140003c03:	76 04                	jbe    0x140003c09
   140003c05:	45 0f 57 c9          	xorps  xmm9,xmm9
   140003c09:	0f 57 d2             	xorps  xmm2,xmm2
   140003c0c:	0f 57 c9             	xorps  xmm1,xmm1
   140003c0f:	f3 41 0f 5a d2       	cvtss2sd xmm2,xmm10
   140003c14:	f3 41 0f 5a c9       	cvtss2sd xmm1,xmm9
   140003c19:	0f 54 d4             	andps  xmm2,xmm4
   140003c1c:	0f 28 c2             	movaps xmm0,xmm2
   140003c1f:	0f 54 cc             	andps  xmm1,xmm4
   140003c22:	f2 0f 59 c3          	mulsd  xmm0,xmm3
   140003c26:	66 0f 2f c8          	comisd xmm1,xmm0
   140003c2a:	76 06                	jbe    0x140003c32
   140003c2c:	45 0f 57 d2          	xorps  xmm10,xmm10
   140003c30:	eb 0e                	jmp    0x140003c40
   140003c32:	f2 0f 59 cb          	mulsd  xmm1,xmm3
   140003c36:	66 0f 2f d1          	comisd xmm2,xmm1
   140003c3a:	76 04                	jbe    0x140003c40
   140003c3c:	45 0f 57 c9          	xorps  xmm9,xmm9
   140003c40:	44 0f 28 74 24 40    	movaps xmm14,XMMWORD PTR [rsp+0x40]
   140003c46:	4c 8d 9c 24 d0 00 00 	lea    r11,[rsp+0xd0]
   140003c4d:	00 
   140003c4e:	49 8b 5b 20          	mov    rbx,QWORD PTR [r11+0x20]
   140003c52:	0f 57 c0             	xorps  xmm0,xmm0
   140003c55:	49 8b 6b 28          	mov    rbp,QWORD PTR [r11+0x28]
   140003c59:	41 b8 07 d0 34 67    	mov    r8d,0x6734d007
   140003c5f:	49 8b 73 30          	mov    rsi,QWORD PTR [r11+0x30]
   140003c63:	41 0f 28 73 f0       	movaps xmm6,XMMWORD PTR [r11-0x10]
   140003c68:	41 0f 28 7b e0       	movaps xmm7,XMMWORD PTR [r11-0x20]
   140003c6d:	45 0f 28 43 d0       	movaps xmm8,XMMWORD PTR [r11-0x30]
   140003c72:	45 0f 28 5b a0       	movaps xmm11,XMMWORD PTR [r11-0x60]
   140003c77:	45 0f 28 63 90       	movaps xmm12,XMMWORD PTR [r11-0x70]
   140003c7c:	45 0f 28 6b 80       	movaps xmm13,XMMWORD PTR [r11-0x80]
   140003c81:	f3 41 0f 5a c1       	cvtss2sd xmm0,xmm9
   140003c86:	45 0f 28 4b c0       	movaps xmm9,XMMWORD PTR [r11-0x40]
   140003c8b:	f2 0f 58 05 d5 75 00 	addsd  xmm0,QWORD PTR [rip+0x75d5]        # 0x14000b268
   140003c92:	00 
   140003c93:	f2 0f 2c c0          	cvttsd2si eax,xmm0
   140003c97:	0f 57 c0             	xorps  xmm0,xmm0
   140003c9a:	0f bf c8             	movsx  ecx,ax
   140003c9d:	41 8b c0             	mov    eax,r8d
   140003ca0:	69 d1 f4 01 00 00    	imul   edx,ecx,0x1f4
   140003ca6:	f3 41 0f 5a c2       	cvtss2sd xmm0,xmm10
   140003cab:	45 0f 28 53 b0       	movaps xmm10,XMMWORD PTR [r11-0x50]
   140003cb0:	f2 0f 58 05 b0 75 00 	addsd  xmm0,QWORD PTR [rip+0x75b0]        # 0x14000b268
   140003cb7:	00 
   140003cb8:	f7 ea                	imul   edx
   140003cba:	41 8b c0             	mov    eax,r8d
   140003cbd:	c1 fa 0a             	sar    edx,0xa
   140003cc0:	8b ca                	mov    ecx,edx
   140003cc2:	c1 e9 1f             	shr    ecx,0x1f
   140003cc5:	03 d1                	add    edx,ecx
   140003cc7:	66 89 94 24 08 01 00 	mov    WORD PTR [rsp+0x108],dx
   140003cce:	00 
   140003ccf:	f2 0f 2c c8          	cvttsd2si ecx,xmm0
   140003cd3:	0f bf d1             	movsx  edx,cx
   140003cd6:	69 ca f4 01 00 00    	imul   ecx,edx,0x1f4
   140003cdc:	f7 e9                	imul   ecx
   140003cde:	c1 fa 0a             	sar    edx,0xa
   140003ce1:	8b c2                	mov    eax,edx
   140003ce3:	c1 e8 1f             	shr    eax,0x1f
   140003ce6:	03 d0                	add    edx,eax
   140003ce8:	66 89 94 24 0a 01 00 	mov    WORD PTR [rsp+0x10a],dx
   140003cef:	00 
   140003cf0:	8b 84 24 08 01 00 00 	mov    eax,DWORD PTR [rsp+0x108]
   140003cf7:	41 89 07             	mov    DWORD PTR [r15],eax
   140003cfa:	49 8b e3             	mov    rsp,r11
   140003cfd:	41 5f                	pop    r15
   140003cff:	41 5e                	pop    r14
   140003d01:	5f                   	pop    rdi
   140003d02:	c3                   	ret
   140003d03:	cc                   	int3
   140003d04:	48 8b c4             	mov    rax,rsp
   140003d07:	48 89 58 08          	mov    QWORD PTR [rax+0x8],rbx
   140003d0b:	57                   	push   rdi
   140003d0c:	48 81 ec 90 00 00 00 	sub    rsp,0x90
   140003d13:	0f 29 70 e8          	movaps XMMWORD PTR [rax-0x18],xmm6
   140003d17:	8b f9                	mov    edi,ecx
   140003d19:	2b fa                	sub    edi,edx
   140003d1b:	0f 29 78 d8          	movaps XMMWORD PTR [rax-0x28],xmm7
   140003d1f:	44 0f 29 40 c8       	movaps XMMWORD PTR [rax-0x38],xmm8
   140003d24:	45 0f b7 d1          	movzx  r10d,r9w
   140003d28:	45 0f 57 c0          	xorps  xmm8,xmm8
   140003d2c:	0f 57 f6             	xorps  xmm6,xmm6
   140003d2f:	83 ff 40             	cmp    edi,0x40
   140003d32:	7e 0a                	jle    0x140003d3e
   140003d34:	f3 0f 10 15 00 75 00 	movss  xmm2,DWORD PTR [rip+0x7500]        # 0x14000b23c
   140003d3b:	00 
   140003d3c:	eb 08                	jmp    0x140003d46
   140003d3e:	f3 0f 10 15 ce 74 00 	movss  xmm2,DWORD PTR [rip+0x74ce]        # 0x14000b214
   140003d45:	00 
   140003d46:	48 8b 8c 24 f0 00 00 	mov    rcx,QWORD PTR [rsp+0xf0]
   140003d4d:	00 
   140003d4e:	f3 0f 10 3d ee 74 00 	movss  xmm7,DWORD PTR [rip+0x74ee]        # 0x14000b244
   140003d55:	00 
   140003d56:	8a 9c 24 e8 00 00 00 	mov    bl,BYTE PTR [rsp+0xe8]
   140003d5d:	0f 28 cf             	movaps xmm1,xmm7
   140003d60:	44 0f b7 8c 24 d0 00 	movzx  r9d,WORD PTR [rsp+0xd0]
   140003d67:	00 00 
   140003d69:	f3 0f 5c ca          	subss  xmm1,xmm2
   140003d6d:	f3 0f 59 11          	mulss  xmm2,DWORD PTR [rcx]
   140003d71:	0f b7 94 24 c0 00 00 	movzx  edx,WORD PTR [rsp+0xc0]
   140003d78:	00 
   140003d79:	41 0f b7 c2          	movzx  eax,r10w
   140003d7d:	66 0f 6e c0          	movd   xmm0,eax
   140003d81:	0f 5b c0             	cvtdq2ps xmm0,xmm0
   140003d84:	f3 0f 59 c8          	mulss  xmm1,xmm0
   140003d88:	f3 0f 58 ca          	addss  xmm1,xmm2
   140003d8c:	f3 0f 11 09          	movss  DWORD PTR [rcx],xmm1
   140003d90:	41 0f b7 40 0c       	movzx  eax,WORD PTR [r8+0xc]
   140003d95:	44 0f b7 84 24 c8 00 	movzx  r8d,WORD PTR [rsp+0xc8]
   140003d9c:	00 00 
   140003d9e:	66 0f 6e d0          	movd   xmm2,eax
   140003da2:	48 8b 84 24 f8 00 00 	mov    rax,QWORD PTR [rsp+0xf8]
   140003da9:	00 
   140003daa:	0f 5b d2             	cvtdq2ps xmm2,xmm2
   140003dad:	f3 0f 10 00          	movss  xmm0,DWORD PTR [rax]
   140003db1:	f3 0f 5e 15 27 75 00 	divss  xmm2,DWORD PTR [rip+0x7527]        # 0x14000b2e0
   140003db8:	00 
   140003db9:	f3 0f 59 05 7f 74 00 	mulss  xmm0,DWORD PTR [rip+0x747f]        # 0x14000b240
   140003dc0:	00 
   140003dc1:	f3 0f 59 15 43 74 00 	mulss  xmm2,DWORD PTR [rip+0x7443]        # 0x14000b20c
   140003dc8:	00 
   140003dc9:	f3 0f 58 d0          	addss  xmm2,xmm0
   140003dcd:	f3 0f 11 10          	movss  DWORD PTR [rax],xmm2
   140003dd1:	48 8b 84 24 08 01 00 	mov    rax,QWORD PTR [rsp+0x108]
   140003dd8:	00 
   140003dd9:	f3 0f 10 01          	movss  xmm0,DWORD PTR [rcx]
   140003ddd:	41 0f b7 ca          	movzx  ecx,r10w
   140003de1:	48 89 44 24 50       	mov    QWORD PTR [rsp+0x50],rax
   140003de6:	0f b7 84 24 e0 00 00 	movzx  eax,WORD PTR [rsp+0xe0]
   140003ded:	00 
   140003dee:	f3 0f 11 54 24 48    	movss  DWORD PTR [rsp+0x48],xmm2
   140003df4:	f3 0f 11 44 24 40    	movss  DWORD PTR [rsp+0x40],xmm0
   140003dfa:	88 5c 24 38          	mov    BYTE PTR [rsp+0x38],bl
   140003dfe:	89 7c 24 30          	mov    DWORD PTR [rsp+0x30],edi
   140003e02:	66 89 44 24 28       	mov    WORD PTR [rsp+0x28],ax
   140003e07:	0f b7 84 24 d8 00 00 	movzx  eax,WORD PTR [rsp+0xd8]
   140003e0e:	00 
   140003e0f:	66 89 44 24 20       	mov    WORD PTR [rsp+0x20],ax
   140003e14:	e8 af f8 ff ff       	call   0x1400036c8
   140003e19:	0f 28 c8             	movaps xmm1,xmm0
   140003e1c:	84 db                	test   bl,bl
   140003e1e:	75 59                	jne    0x140003e79
   140003e20:	66 0f 6e c7          	movd   xmm0,edi
   140003e24:	0f 5b c0             	cvtdq2ps xmm0,xmm0
   140003e27:	44 0f 2f c0          	comiss xmm8,xmm0
   140003e2b:	72 05                	jb     0x140003e32
   140003e2d:	0f 28 f7             	movaps xmm6,xmm7
   140003e30:	eb 18                	jmp    0x140003e4a
   140003e32:	f3 0f 10 15 9a 74 00 	movss  xmm2,DWORD PTR [rip+0x749a]        # 0x14000b2d4
   140003e39:	00 
   140003e3a:	0f 2f c2             	comiss xmm0,xmm2
   140003e3d:	73 0b                	jae    0x140003e4a
   140003e3f:	0f 28 f2             	movaps xmm6,xmm2
   140003e42:	f3 0f 5c f0          	subss  xmm6,xmm0
   140003e46:	f3 0f 5e f2          	divss  xmm6,xmm2
   140003e4a:	44 0f 2f c0          	comiss xmm8,xmm0
   140003e4e:	73 1d                	jae    0x140003e6d
   140003e50:	f3 0f 10 15 84 74 00 	movss  xmm2,DWORD PTR [rip+0x7484]        # 0x14000b2dc
   140003e57:	00 
   140003e58:	0f 2f c2             	comiss xmm0,xmm2
   140003e5b:	72 05                	jb     0x140003e62
   140003e5d:	0f 57 ff             	xorps  xmm7,xmm7
   140003e60:	eb 0b                	jmp    0x140003e6d
   140003e62:	0f 28 fa             	movaps xmm7,xmm2
   140003e65:	f3 0f 5c f8          	subss  xmm7,xmm0
   140003e69:	f3 0f 5e fa          	divss  xmm7,xmm2
   140003e6d:	f3 0f 59 3d 9f 73 00 	mulss  xmm7,DWORD PTR [rip+0x739f]        # 0x14000b214
   140003e74:	00 
   140003e75:	f3 0f 5f f7          	maxss  xmm6,xmm7
   140003e79:	f3 41 0f 5f c8       	maxss  xmm1,xmm8
   140003e7e:	f3 41 0f 5f f0       	maxss  xmm6,xmm8
   140003e83:	0f 2f ce             	comiss xmm1,xmm6
   140003e86:	77 03                	ja     0x140003e8b
   140003e88:	0f 28 ce             	movaps xmm1,xmm6
   140003e8b:	0f 28 7c 24 70       	movaps xmm7,XMMWORD PTR [rsp+0x70]
   140003e90:	4c 8d 9c 24 90 00 00 	lea    r11,[rsp+0x90]
   140003e97:	00 
   140003e98:	49 8b 5b 10          	mov    rbx,QWORD PTR [r11+0x10]
   140003e9c:	0f 28 c1             	movaps xmm0,xmm1
   140003e9f:	41 0f 28 73 f0       	movaps xmm6,XMMWORD PTR [r11-0x10]
   140003ea4:	45 0f 28 43 d0       	movaps xmm8,XMMWORD PTR [r11-0x30]
   140003ea9:	49 8b e3             	mov    rsp,r11
   140003eac:	5f                   	pop    rdi
   140003ead:	c3                   	ret
   140003eae:	cc                   	int3
   140003eaf:	cc                   	int3
   140003eb0:	48 8b c4             	mov    rax,rsp
   140003eb3:	48 83 ec 68          	sub    rsp,0x68
   140003eb7:	83 64 24 70 00       	and    DWORD PTR [rsp+0x70],0x0
   140003ebc:	83 64 24 74 00       	and    DWORD PTR [rsp+0x74],0x0
   140003ec1:	0f 29 70 e8          	movaps XMMWORD PTR [rax-0x18],xmm6
   140003ec5:	0f 29 78 d8          	movaps XMMWORD PTR [rax-0x28],xmm7
   140003ec9:	44 0f 29 40 c8       	movaps XMMWORD PTR [rax-0x38],xmm8
   140003ece:	45 0f 57 c0          	xorps  xmm8,xmm8
   140003ed2:	44 0f 29 48 b8       	movaps XMMWORD PTR [rax-0x48],xmm9
   140003ed7:	45 0f 57 c9          	xorps  xmm9,xmm9
   140003edb:	0f bf 41 10          	movsx  eax,WORD PTR [rcx+0x10]
   140003edf:	66 0f 6e c0          	movd   xmm0,eax
   140003ee3:	0f b7 41 0c          	movzx  eax,WORD PTR [rcx+0xc]
   140003ee7:	f3 0f e6 c0          	cvtdq2pd xmm0,xmm0
   140003eeb:	66 0f 6e e0          	movd   xmm4,eax
   140003eef:	0f b7 41 0e          	movzx  eax,WORD PTR [rcx+0xe]
   140003ef3:	f2 0f 59 05 9d 73 00 	mulsd  xmm0,QWORD PTR [rip+0x739d]        # 0x14000b298
   140003efa:	00 
   140003efb:	0f 5b e4             	cvtdq2ps xmm4,xmm4
   140003efe:	f2 0f 59 05 22 73 00 	mulsd  xmm0,QWORD PTR [rip+0x7322]        # 0x14000b228
   140003f05:	00 
   140003f06:	f3 0f 5e 25 d2 73 00 	divss  xmm4,DWORD PTR [rip+0x73d2]        # 0x14000b2e0
   140003f0d:	00 
   140003f0e:	66 0f 6e d8          	movd   xmm3,eax
   140003f12:	8b 02                	mov    eax,DWORD PTR [rdx]
   140003f14:	0f 5b db             	cvtdq2ps xmm3,xmm3
   140003f17:	66 0f 5a d0          	cvtpd2ps xmm2,xmm0
   140003f1b:	f3 0f 5e 1d bd 73 00 	divss  xmm3,DWORD PTR [rip+0x73bd]        # 0x14000b2e0
   140003f22:	00 
   140003f23:	83 f8 01             	cmp    eax,0x1
   140003f26:	75 08                	jne    0x140003f30
   140003f28:	f3 44 0f 10 4a 0c    	movss  xmm9,DWORD PTR [rdx+0xc]
   140003f2e:	eb 6f                	jmp    0x140003f9f
   140003f30:	83 f8 03             	cmp    eax,0x3
   140003f33:	75 29                	jne    0x140003f5e
   140003f35:	f2 0f 10 05 53 73 00 	movsd  xmm0,QWORD PTR [rip+0x7353]        # 0x14000b290
   140003f3c:	00 
   140003f3d:	0f 5a ca             	cvtps2pd xmm1,xmm2
   140003f40:	66 0f 2f c1          	comisd xmm0,xmm1
   140003f44:	76 08                	jbe    0x140003f4e
   140003f46:	f3 0f 58 15 5a 73 00 	addss  xmm2,DWORD PTR [rip+0x735a]        # 0x14000b2a8
   140003f4d:	00 
   140003f4e:	f3 44 0f 10 42 0c    	movss  xmm8,DWORD PTR [rdx+0xc]
   140003f54:	44 0f 57 05 b4 73 00 	xorps  xmm8,XMMWORD PTR [rip+0x73b4]        # 0x14000b310
   140003f5b:	00 
   140003f5c:	eb 41                	jmp    0x140003f9f
   140003f5e:	83 f8 02             	cmp    eax,0x2
   140003f61:	75 18                	jne    0x140003f7b
   140003f63:	f3 44 0f 10 4a 0c    	movss  xmm9,DWORD PTR [rdx+0xc]
   140003f69:	44 0f 57 0d 9f 73 00 	xorps  xmm9,XMMWORD PTR [rip+0x739f]        # 0x14000b310
   140003f70:	00 
   140003f71:	f3 0f 58 15 2f 73 00 	addss  xmm2,DWORD PTR [rip+0x732f]        # 0x14000b2a8
   140003f78:	00 
   140003f79:	eb 24                	jmp    0x140003f9f
   140003f7b:	83 f8 04             	cmp    eax,0x4
   140003f7e:	75 1b                	jne    0x140003f9b
   140003f80:	0f 5a c2             	cvtps2pd xmm0,xmm2
   140003f83:	66 0f 2f 05 05 73 00 	comisd xmm0,QWORD PTR [rip+0x7305]        # 0x14000b290
   140003f8a:	00 
   140003f8b:	76 08                	jbe    0x140003f95
   140003f8d:	f3 0f 58 15 13 73 00 	addss  xmm2,DWORD PTR [rip+0x7313]        # 0x14000b2a8
   140003f94:	00 
   140003f95:	f3 44 0f 10 42 0c    	movss  xmm8,DWORD PTR [rdx+0xc]
   140003f9b:	85 c0                	test   eax,eax
   140003f9d:	74 6e                	je     0x14000400d
   140003f9f:	f3 0f 5f 5a 18       	maxss  xmm3,DWORD PTR [rdx+0x18]
   140003fa4:	f3 44 0f 11 44 24 70 	movss  DWORD PTR [rsp+0x70],xmm8
   140003fab:	f3 44 0f 11 4c 24 74 	movss  DWORD PTR [rsp+0x74],xmm9
   140003fb2:	f3 0f 58 5a 10       	addss  xmm3,DWORD PTR [rdx+0x10]
   140003fb7:	0f 2f e3             	comiss xmm4,xmm3
   140003fba:	76 51                	jbe    0x14000400d
   140003fbc:	f3 0f 10 7a 14       	movss  xmm7,DWORD PTR [rdx+0x14]
   140003fc1:	f3 0f 5c e3          	subss  xmm4,xmm3
   140003fc5:	0f 5a f2             	cvtps2pd xmm6,xmm2
   140003fc8:	f3 0f 5d fc          	minss  xmm7,xmm4
   140003fcc:	0f 28 c6             	movaps xmm0,xmm6
   140003fcf:	f3 0f 59 7a 08       	mulss  xmm7,DWORD PTR [rdx+0x8]
   140003fd4:	e8 cf 0d 00 00       	call   0x140004da8
   140003fd9:	0f 57 c9             	xorps  xmm1,xmm1
   140003fdc:	f2 0f 5a c8          	cvtsd2ss xmm1,xmm0
   140003fe0:	0f 28 c6             	movaps xmm0,xmm6
   140003fe3:	f3 0f 59 cf          	mulss  xmm1,xmm7
   140003fe7:	f3 41 0f 58 c8       	addss  xmm1,xmm8
   140003fec:	f3 0f 11 4c 24 70    	movss  DWORD PTR [rsp+0x70],xmm1
   140003ff2:	e8 c5 11 00 00       	call   0x1400051bc
   140003ff7:	0f 57 c9             	xorps  xmm1,xmm1
   140003ffa:	f2 0f 5a c8          	cvtsd2ss xmm1,xmm0
   140003ffe:	f3 0f 59 cf          	mulss  xmm1,xmm7
   140004002:	f3 41 0f 58 c9       	addss  xmm1,xmm9
   140004007:	f3 0f 11 4c 24 74    	movss  DWORD PTR [rsp+0x74],xmm1
   14000400d:	48 8b 44 24 70       	mov    rax,QWORD PTR [rsp+0x70]
   140004012:	0f 28 74 24 50       	movaps xmm6,XMMWORD PTR [rsp+0x50]
   140004017:	0f 28 7c 24 40       	movaps xmm7,XMMWORD PTR [rsp+0x40]
   14000401c:	44 0f 28 44 24 30    	movaps xmm8,XMMWORD PTR [rsp+0x30]
   140004022:	44 0f 28 4c 24 20    	movaps xmm9,XMMWORD PTR [rsp+0x20]
   140004028:	48 83 c4 68          	add    rsp,0x68
   14000402c:	c3                   	ret
   14000402d:	cc                   	int3
   14000402e:	cc                   	int3
   14000402f:	cc                   	int3
   140004030:	48 8b c4             	mov    rax,rsp
   140004033:	48 89 58 08          	mov    QWORD PTR [rax+0x8],rbx
   140004037:	48 89 68 10          	mov    QWORD PTR [rax+0x10],rbp
   14000403b:	48 89 70 18          	mov    QWORD PTR [rax+0x18],rsi
   14000403f:	48 89 78 20          	mov    QWORD PTR [rax+0x20],rdi
   140004043:	41 56                	push   r14
   140004045:	41 57                	push   r15
   140004047:	45 0f b7 18          	movzx  r11d,WORD PTR [r8]
   14000404b:	41 8b e9             	mov    ebp,r9d
   14000404e:	66 44 2b 4c 24 38    	sub    r9w,WORD PTR [rsp+0x38]
   140004054:	0f b7 f2             	movzx  esi,dx
   140004057:	8b 44 24 38          	mov    eax,DWORD PTR [rsp+0x38]
   14000405b:	66 41 2b f3          	sub    si,r11w
   14000405f:	45 0f b7 50 02       	movzx  r10d,WORD PTR [r8+0x2]
   140004064:	4c 8b f1             	mov    r14,rcx
   140004067:	f2 0f 10 1d 91 72 00 	movsd  xmm3,QWORD PTR [rip+0x7291]        # 0x14000b300
   14000406e:	00 
   14000406f:	8b fa                	mov    edi,edx
   140004071:	c1 e8 10             	shr    eax,0x10
   140004074:	41 0f bf c9          	movsx  ecx,r9w
   140004078:	c1 ed 10             	shr    ebp,0x10
   14000407b:	66 2b e8             	sub    bp,ax
   14000407e:	c1 ef 10             	shr    edi,0x10
   140004081:	44 0f bf ce          	movsx  r9d,si
   140004085:	0f b7 df             	movzx  ebx,di
   140004088:	41 8b c1             	mov    eax,r9d
   14000408b:	66 41 2b da          	sub    bx,r10w
   14000408f:	0f af c1             	imul   eax,ecx
   140004092:	85 c0                	test   eax,eax
   140004094:	79 32                	jns    0x1400040c8
   140004096:	66 0f 6e c1          	movd   xmm0,ecx
   14000409a:	f3 0f e6 c0          	cvtdq2pd xmm0,xmm0
   14000409e:	0f 54 c3             	andps  xmm0,xmm3
   1400040a1:	f2 0f 2c c8          	cvttsd2si ecx,xmm0
   1400040a5:	66 3b f1             	cmp    si,cx
   1400040a8:	7e 06                	jle    0x1400040b0
   1400040aa:	66 44 03 d9          	add    r11w,cx
   1400040ae:	eb 0e                	jmp    0x1400040be
   1400040b0:	0f bf c1             	movsx  eax,cx
   1400040b3:	f7 d8                	neg    eax
   1400040b5:	44 3b c8             	cmp    r9d,eax
   1400040b8:	7d 0a                	jge    0x1400040c4
   1400040ba:	66 44 2b d9          	sub    r11w,cx
   1400040be:	66 45 89 18          	mov    WORD PTR [r8],r11w
   1400040c2:	eb 04                	jmp    0x1400040c8
   1400040c4:	66 41 89 10          	mov    WORD PTR [r8],dx
   1400040c8:	44 0f bf cb          	movsx  r9d,bx
   1400040cc:	41 8b c1             	mov    eax,r9d
   1400040cf:	0f bf cd             	movsx  ecx,bp
   1400040d2:	0f af c1             	imul   eax,ecx
   1400040d5:	85 c0                	test   eax,eax
   1400040d7:	79 11                	jns    0x1400040ea
   1400040d9:	66 0f 6e c1          	movd   xmm0,ecx
   1400040dd:	f3 0f e6 c0          	cvtdq2pd xmm0,xmm0
   1400040e1:	0f 54 c3             	andps  xmm0,xmm3
   1400040e4:	f2 0f 2c c8          	cvttsd2si ecx,xmm0
   1400040e8:	eb 50                	jmp    0x14000413a
   1400040ea:	66 85 db             	test   bx,bx
   1400040ed:	74 70                	je     0x14000415f
   1400040ef:	f3 41 0f 10 56 1c    	movss  xmm2,DWORD PTR [r14+0x1c]
   1400040f5:	0f 2f 15 0c 71 00 00 	comiss xmm2,DWORD PTR [rip+0x710c]        # 0x14000b208
   1400040fc:	76 27                	jbe    0x140004125
   1400040fe:	8b c1                	mov    eax,ecx
   140004100:	66 41 0f 6e c9       	movd   xmm1,r9d
   140004105:	99                   	cdq
   140004106:	41 f7 f9             	idiv   r9d
   140004109:	0f 5b c9             	cvtdq2ps xmm1,xmm1
   14000410c:	66 0f 6e c0          	movd   xmm0,eax
   140004110:	0f 5b c0             	cvtdq2ps xmm0,xmm0
   140004113:	f3 0f 5d d0          	minss  xmm2,xmm0
   140004117:	f3 0f 59 d1          	mulss  xmm2,xmm1
   14000411b:	f3 0f 2c c2          	cvttss2si eax,xmm2
   14000411f:	66 44 2b d0          	sub    r10w,ax
   140004123:	eb 2e                	jmp    0x140004153
   140004125:	66 0f 6e c1          	movd   xmm0,ecx
   140004129:	0f 5b c0             	cvtdq2ps xmm0,xmm0
   14000412c:	f3 0f 59 c2          	mulss  xmm0,xmm2
   140004130:	0f 5a c8             	cvtps2pd xmm1,xmm0
   140004133:	0f 54 cb             	andps  xmm1,xmm3
   140004136:	f2 0f 2c c9          	cvttsd2si ecx,xmm1
   14000413a:	66 3b d9             	cmp    bx,cx
   14000413d:	7e 06                	jle    0x140004145
   14000413f:	66 44 03 d1          	add    r10w,cx
   140004143:	eb 0e                	jmp    0x140004153
   140004145:	0f bf c1             	movsx  eax,cx
   140004148:	f7 d8                	neg    eax
   14000414a:	44 3b c8             	cmp    r9d,eax
   14000414d:	7d 0b                	jge    0x14000415a
   14000414f:	66 44 2b d1          	sub    r10w,cx
   140004153:	66 45 89 50 02       	mov    WORD PTR [r8+0x2],r10w
   140004158:	eb 05                	jmp    0x14000415f
   14000415a:	66 41 89 78 02       	mov    WORD PTR [r8+0x2],di
   14000415f:	48 8b 5c 24 18       	mov    rbx,QWORD PTR [rsp+0x18]
   140004164:	48 8b 6c 24 20       	mov    rbp,QWORD PTR [rsp+0x20]
   140004169:	48 8b 74 24 28       	mov    rsi,QWORD PTR [rsp+0x28]
   14000416e:	48 8b 7c 24 30       	mov    rdi,QWORD PTR [rsp+0x30]
   140004173:	41 5f                	pop    r15
   140004175:	41 5e                	pop    r14
   140004177:	c3                   	ret
   140004178:	48 83 ec 38          	sub    rsp,0x38
   14000417c:	f3 0f 10 4a 04       	movss  xmm1,DWORD PTR [rdx+0x4]
   140004181:	0f 29 74 24 20       	movaps XMMWORD PTR [rsp+0x20],xmm6
   140004186:	0f 28 f2             	movaps xmm6,xmm2
   140004189:	f3 0f 10 12          	movss  xmm2,DWORD PTR [rdx]
   14000418d:	45 85 c9             	test   r9d,r9d
   140004190:	75 16                	jne    0x1400041a8
   140004192:	f3 0f 59 0d 96 70 00 	mulss  xmm1,DWORD PTR [rip+0x7096]        # 0x14000b230
   140004199:	00 
   14000419a:	f3 0f 59 15 96 70 00 	mulss  xmm2,DWORD PTR [rip+0x7096]        # 0x14000b238
   1400041a1:	00 
   1400041a2:	f3 0f 58 ca          	addss  xmm1,xmm2
   1400041a6:	eb 3d                	jmp    0x1400041e5
   1400041a8:	0f 28 c1             	movaps xmm0,xmm1
   1400041ab:	0f 28 ca             	movaps xmm1,xmm2
   1400041ae:	41 83 f9 01          	cmp    r9d,0x1
   1400041b2:	75 16                	jne    0x1400041ca
   1400041b4:	f3 0f 59 0d 74 70 00 	mulss  xmm1,DWORD PTR [rip+0x7074]        # 0x14000b230
   1400041bb:	00 
   1400041bc:	f3 0f 59 05 74 70 00 	mulss  xmm0,DWORD PTR [rip+0x7074]        # 0x14000b238
   1400041c3:	00 
   1400041c4:	f3 0f 58 c8          	addss  xmm1,xmm0
   1400041c8:	eb 1b                	jmp    0x1400041e5
   1400041ca:	f3 0f 59 c9          	mulss  xmm1,xmm1
   1400041ce:	f3 0f 59 c0          	mulss  xmm0,xmm0
   1400041d2:	f3 0f 58 c8          	addss  xmm1,xmm0
   1400041d6:	0f 5a c1             	cvtps2pd xmm0,xmm1
   1400041d9:	e8 c2 0b 00 00       	call   0x140004da0
   1400041de:	0f 57 c9             	xorps  xmm1,xmm1
   1400041e1:	f2 0f 5a c8          	cvtsd2ss xmm1,xmm0
   1400041e5:	f3 0f 59 0d cb 70 00 	mulss  xmm1,DWORD PTR [rip+0x70cb]        # 0x14000b2b8
   1400041ec:	00 
   1400041ed:	0f 2f 0d 14 70 00 00 	comiss xmm1,DWORD PTR [rip+0x7014]        # 0x14000b208
   1400041f4:	76 23                	jbe    0x140004219
   1400041f6:	0f 2f f1             	comiss xmm6,xmm1
   1400041f9:	76 06                	jbe    0x140004201
   1400041fb:	f3 0f 5c f1          	subss  xmm6,xmm1
   1400041ff:	eb 18                	jmp    0x140004219
   140004201:	0f 28 c1             	movaps xmm0,xmm1
   140004204:	0f 57 05 05 71 00 00 	xorps  xmm0,XMMWORD PTR [rip+0x7105]        # 0x14000b310
   14000420b:	0f 2f c6             	comiss xmm0,xmm6
   14000420e:	76 06                	jbe    0x140004216
   140004210:	f3 0f 58 f1          	addss  xmm6,xmm1
   140004214:	eb 03                	jmp    0x140004219
   140004216:	0f 57 f6             	xorps  xmm6,xmm6
   140004219:	0f 28 c6             	movaps xmm0,xmm6
   14000421c:	0f 28 74 24 20       	movaps xmm6,XMMWORD PTR [rsp+0x20]
   140004221:	48 83 c4 38          	add    rsp,0x38
   140004225:	c3                   	ret
   140004226:	cc                   	int3
   140004227:	cc                   	int3
   140004228:	85 c9                	test   ecx,ecx
   14000422a:	0f 8e be 00 00 00    	jle    0x1400042ee
   140004230:	48 89 5c 24 08       	mov    QWORD PTR [rsp+0x8],rbx
   140004235:	48 89 74 24 10       	mov    QWORD PTR [rsp+0x10],rsi
   14000423a:	57                   	push   rdi
   14000423b:	48 83 ec 20          	sub    rsp,0x20
   14000423f:	48 8b 74 24 50       	mov    rsi,QWORD PTR [rsp+0x50]
   140004244:	49 8b d9             	mov    rbx,r9
   140004247:	4c 63 d9             	movsxd r11,ecx
   14000424a:	45 33 d2             	xor    r10d,r10d
   14000424d:	49 83 fa 20          	cmp    r10,0x20
   140004251:	0f 8d 88 00 00 00    	jge    0x1400042df
   140004257:	48 8b 02             	mov    rax,QWORD PTR [rdx]
   14000425a:	0f b6 3a             	movzx  edi,BYTE PTR [rdx]
   14000425d:	48 c1 e8 08          	shr    rax,0x8
   140004261:	fe c8                	dec    al
   140004263:	3c 05                	cmp    al,0x5
   140004265:	77 68                	ja     0x1400042cf
   140004267:	41 fe 40 5c          	inc    BYTE PTR [r8+0x5c]
   14000426b:	44 0f b6 4a 02       	movzx  r9d,BYTE PTR [rdx+0x2]
   140004270:	41 83 f9 10          	cmp    r9d,0x10
   140004274:	73 07                	jae    0x14000427d
   140004276:	0f b6 0a             	movzx  ecx,BYTE PTR [rdx]
   140004279:	43 89 0c 88          	mov    DWORD PTR [r8+r9*4],ecx
   14000427d:	41 8d 41 ff          	lea    eax,[r9-0x1]
   140004281:	83 f8 04             	cmp    eax,0x4
   140004284:	76 10                	jbe    0x140004296
   140004286:	41 8d 41 f4          	lea    eax,[r9-0xc]
   14000428a:	83 f8 02             	cmp    eax,0x2
   14000428d:	77 40                	ja     0x1400042cf
   14000428f:	41 80 78 66 00       	cmp    BYTE PTR [r8+0x66],0x0
   140004294:	74 39                	je     0x1400042cf
   140004296:	41 fe 40 5e          	inc    BYTE PTR [r8+0x5e]
   14000429a:	41 8b 48 50          	mov    ecx,DWORD PTR [r8+0x50]
   14000429e:	85 c9                	test   ecx,ecx
   1400042a0:	74 09                	je     0x1400042ab
   1400042a2:	39 8c bb 08 0a 00 00 	cmp    DWORD PTR [rbx+rdi*4+0xa08],ecx
   1400042a9:	7d 0b                	jge    0x1400042b6
   1400042ab:	8b 84 bb 08 0a 00 00 	mov    eax,DWORD PTR [rbx+rdi*4+0xa08]
   1400042b2:	41 89 40 50          	mov    DWORD PTR [r8+0x50],eax
   1400042b6:	48 8b 02             	mov    rax,QWORD PTR [rdx]
   1400042b9:	48 c1 e8 08          	shr    rax,0x8
   1400042bd:	fe c8                	dec    al
   1400042bf:	3c 05                	cmp    al,0x5
   1400042c1:	77 0c                	ja     0x1400042cf
   1400042c3:	41 0f b6 40 60       	movzx  eax,BYTE PTR [r8+0x60]
   1400042c8:	89 3c 86             	mov    DWORD PTR [rsi+rax*4],edi
   1400042cb:	41 fe 40 60          	inc    BYTE PTR [r8+0x60]
   1400042cf:	49 ff c2             	inc    r10
   1400042d2:	48 83 c2 1c          	add    rdx,0x1c
   1400042d6:	4d 3b d3             	cmp    r10,r11
   1400042d9:	0f 8c 6e ff ff ff    	jl     0x14000424d
   1400042df:	48 8b 5c 24 30       	mov    rbx,QWORD PTR [rsp+0x30]
   1400042e4:	48 8b 74 24 38       	mov    rsi,QWORD PTR [rsp+0x38]
   1400042e9:	48 83 c4 20          	add    rsp,0x20
   1400042ed:	5f                   	pop    rdi
   1400042ee:	c3                   	ret
   1400042ef:	cc                   	int3
   1400042f0:	0f b7 d1             	movzx  edx,cx
   1400042f3:	b8 1f 85 eb 51       	mov    eax,0x51eb851f
   1400042f8:	f7 e2                	mul    edx
   1400042fa:	66 83 f9 32          	cmp    cx,0x32
   1400042fe:	77 05                	ja     0x140004305
   140004300:	c1 ea 03             	shr    edx,0x3
   140004303:	eb 03                	jmp    0x140004308
   140004305:	c1 ea 05             	shr    edx,0x5
   140004308:	8d 42 0a             	lea    eax,[rdx+0xa]
   14000430b:	c3                   	ret
   14000430c:	48 89 5c 24 08       	mov    QWORD PTR [rsp+0x8],rbx
   140004311:	48 89 74 24 10       	mov    QWORD PTR [rsp+0x10],rsi
   140004316:	48 89 7c 24 18       	mov    QWORD PTR [rsp+0x18],rdi
   14000431b:	45 33 d2             	xor    r10d,r10d
   14000431e:	48 8b fa             	mov    rdi,rdx
   140004321:	4c 8b d9             	mov    r11,rcx
   140004324:	48 85 c9             	test   rcx,rcx
   140004327:	0f 84 13 02 00 00    	je     0x140004540
   14000432d:	48 85 d2             	test   rdx,rdx
   140004330:	0f 84 0a 02 00 00    	je     0x140004540
   140004336:	41 83 f8 08          	cmp    r8d,0x8
   14000433a:	0f 85 00 02 00 00    	jne    0x140004540
   140004340:	8a 42 01             	mov    al,BYTE PTR [rdx+0x1]
   140004343:	24 0f                	and    al,0xf
   140004345:	0f b6 d0             	movzx  edx,al
   140004348:	0f b6 07             	movzx  eax,BYTE PTR [rdi]
   14000434b:	66 c1 e2 08          	shl    dx,0x8
   14000434f:	66 0b d0             	or     dx,ax
   140004352:	66 89 11             	mov    WORD PTR [rcx],dx
   140004355:	8a 47 01             	mov    al,BYTE PTR [rdi+0x1]
   140004358:	44 0f b6 4f 02       	movzx  r9d,BYTE PTR [rdi+0x2]
   14000435d:	c0 e8 04             	shr    al,0x4
   140004360:	0f b6 c8             	movzx  ecx,al
   140004363:	66 c1 e2 04          	shl    dx,0x4
   140004367:	66 41 c1 e1 04       	shl    r9w,0x4
   14000436c:	66 44 0b c9          	or     r9w,cx
   140004370:	66 45 89 4b 02       	mov    WORD PTR [r11+0x2],r9w
   140004375:	8a 47 05             	mov    al,BYTE PTR [rdi+0x5]
   140004378:	40 8a 77 03          	mov    sil,BYTE PTR [rdi+0x3]
   14000437c:	24 3f                	and    al,0x3f
   14000437e:	8a 5f 04             	mov    bl,BYTE PTR [rdi+0x4]
   140004381:	44 0f b6 c0          	movzx  r8d,al
   140004385:	66 45 89 43 08       	mov    WORD PTR [r11+0x8],r8w
   14000438a:	8a 4f 06             	mov    cl,BYTE PTR [rdi+0x6]
   14000438d:	8a 47 05             	mov    al,BYTE PTR [rdi+0x5]
   140004390:	80 e1 03             	and    cl,0x3
   140004393:	c0 e8 06             	shr    al,0x6
   140004396:	c0 e1 02             	shl    cl,0x2
   140004399:	0a c8                	or     cl,al
   14000439b:	66 41 c1 e0 05       	shl    r8w,0x5
   1400043a0:	41 88 4b 0a          	mov    BYTE PTR [r11+0xa],cl
   1400043a4:	8a 47 06             	mov    al,BYTE PTR [rdi+0x6]
   1400043a7:	24 fc                	and    al,0xfc
   1400043a9:	66 41 c1 e1 04       	shl    r9w,0x4
   1400043ae:	0f b6 c8             	movzx  ecx,al
   1400043b1:	66 c1 e1 07          	shl    cx,0x7
   1400043b5:	66 41 89 4b 0c       	mov    WORD PTR [r11+0xc],cx
   1400043ba:	b9 ff 0f 00 00       	mov    ecx,0xfff
   1400043bf:	8a 47 07             	mov    al,BYTE PTR [rdi+0x7]
   1400043c2:	c0 e8 04             	shr    al,0x4
   1400043c5:	24 07                	and    al,0x7
   1400043c7:	41 88 43 0f          	mov    BYTE PTR [r11+0xf],al
   1400043cb:	8a 47 07             	mov    al,BYTE PTR [rdi+0x7]
   1400043ce:	24 0f                	and    al,0xf
   1400043d0:	41 88 43 0e          	mov    BYTE PTR [r11+0xe],al
   1400043d4:	8a 47 07             	mov    al,BYTE PTR [rdi+0x7]
   1400043d7:	c0 e8 07             	shr    al,0x7
   1400043da:	41 88 43 10          	mov    BYTE PTR [r11+0x10],al
   1400043de:	0f bf c2             	movsx  eax,dx
   1400043e1:	99                   	cdq
   1400043e2:	66 45 89 43 08       	mov    WORD PTR [r11+0x8],r8w
   1400043e7:	83 e2 07             	and    edx,0x7
   1400043ea:	41 b8 ff 03 00 00    	mov    r8d,0x3ff
   1400043f0:	03 c2                	add    eax,edx
   1400043f2:	c1 f8 03             	sar    eax,0x3
   1400043f5:	66 41 89 03          	mov    WORD PTR [r11],ax
   1400043f9:	41 0f bf c1          	movsx  eax,r9w
   1400043fd:	99                   	cdq
   1400043fe:	83 e2 07             	and    edx,0x7
   140004401:	03 c2                	add    eax,edx
   140004403:	c1 f8 03             	sar    eax,0x3
   140004406:	66 03 c1             	add    ax,cx
   140004409:	66 41 89 43 02       	mov    WORD PTR [r11+0x2],ax
   14000440e:	40 84 f6             	test   sil,sil
   140004411:	75 07                	jne    0x14000441a
   140004413:	66 45 89 53 04       	mov    WORD PTR [r11+0x4],r10w
   140004418:	eb 7e                	jmp    0x140004498
   14000441a:	40 0f b6 c6          	movzx  eax,sil
   14000441e:	40 80 fe 32          	cmp    sil,0x32
   140004422:	73 39                	jae    0x14000445d
   140004424:	48 83 c0 b5          	add    rax,0xffffffffffffffb5
   140004428:	b9 00 54 0b 00       	mov    ecx,0xb5400
   14000442d:	48 c1 e0 0a          	shl    rax,0xa
   140004431:	48 0f af c0          	imul   rax,rax
   140004435:	48 99                	cqo
   140004437:	49 23 d0             	and    rdx,r8
   14000443a:	48 03 c2             	add    rax,rdx
   14000443d:	48 c1 f8 0a          	sar    rax,0xa
   140004441:	48 8d 04 80          	lea    rax,[rax+rax*4]
   140004445:	48 c1 e0 03          	shl    rax,0x3
   140004449:	48 99                	cqo
   14000444b:	49 23 d0             	and    rdx,r8
   14000444e:	48 03 c2             	add    rax,rdx
   140004451:	48 c1 f8 0a          	sar    rax,0xa
   140004455:	48 2b c8             	sub    rcx,rax
   140004458:	48 8b c1             	mov    rax,rcx
   14000445b:	eb 2a                	jmp    0x140004487
   14000445d:	40 80 fe aa          	cmp    sil,0xaa
   140004461:	73 10                	jae    0x140004473
   140004463:	48 05 2c 01 00 00    	add    rax,0x12c
   140004469:	48 c1 e0 15          	shl    rax,0x15
   14000446d:	48 c1 e8 14          	shr    rax,0x14
   140004471:	eb 20                	jmp    0x140004493
   140004473:	48 05 5a ff ff ff    	add    rax,0xffffffffffffff5a
   140004479:	48 0f af c0          	imul   rax,rax
   14000447d:	48 05 a0 0e 00 00    	add    rax,0xea0
   140004483:	48 c1 e0 08          	shl    rax,0x8
   140004487:	48 99                	cqo
   140004489:	49 23 d0             	and    rdx,r8
   14000448c:	48 03 c2             	add    rax,rdx
   14000448f:	48 c1 f8 0a          	sar    rax,0xa
   140004493:	66 41 89 43 04       	mov    WORD PTR [r11+0x4],ax
   140004498:	84 db                	test   bl,bl
   14000449a:	0f 84 94 00 00 00    	je     0x140004534
   1400044a0:	0f b6 c3             	movzx  eax,bl
   1400044a3:	80 fb 32             	cmp    bl,0x32
   1400044a6:	73 39                	jae    0x1400044e1
   1400044a8:	48 83 c0 b5          	add    rax,0xffffffffffffffb5
   1400044ac:	b9 00 c4 09 00       	mov    ecx,0x9c400
   1400044b1:	48 c1 e0 0a          	shl    rax,0xa
   1400044b5:	48 0f af c0          	imul   rax,rax
   1400044b9:	48 99                	cqo
   1400044bb:	49 23 d0             	and    rdx,r8
   1400044be:	48 03 c2             	add    rax,rdx
   1400044c1:	48 c1 f8 0a          	sar    rax,0xa
   1400044c5:	48 8d 04 80          	lea    rax,[rax+rax*4]
   1400044c9:	48 c1 e0 03          	shl    rax,0x3
   1400044cd:	48 99                	cqo
   1400044cf:	49 23 d0             	and    rdx,r8
   1400044d2:	48 03 c2             	add    rax,rdx
   1400044d5:	48 c1 f8 0a          	sar    rax,0xa
   1400044d9:	48 2b c8             	sub    rcx,rax
   1400044dc:	48 8b c1             	mov    rax,rcx
   1400044df:	eb 46                	jmp    0x140004527
   1400044e1:	80 fb 96             	cmp    bl,0x96
   1400044e4:	73 11                	jae    0x1400044f7
   1400044e6:	4c 8d 90 fa 00 00 00 	lea    r10,[rax+0xfa]
   1400044ed:	49 c1 e2 15          	shl    r10,0x15
   1400044f1:	49 c1 ea 14          	shr    r10,0x14
   1400044f5:	eb 3d                	jmp    0x140004534
   1400044f7:	48 c1 e0 0a          	shl    rax,0xa
   1400044fb:	48 05 10 d7 fd ff    	add    rax,0xfffffffffffdd710
   140004501:	48 0f af c0          	imul   rax,rax
   140004505:	48 99                	cqo
   140004507:	49 23 d0             	and    rdx,r8
   14000450a:	48 03 c2             	add    rax,rdx
   14000450d:	48 c1 f8 0a          	sar    rax,0xa
   140004511:	48 6b c0 57          	imul   rax,rax,0x57
   140004515:	48 99                	cqo
   140004517:	49 23 d0             	and    rdx,r8
   14000451a:	48 03 c2             	add    rax,rdx
   14000451d:	48 c1 f8 0a          	sar    rax,0xa
   140004521:	48 05 f0 50 0c 00    	add    rax,0xc50f0
   140004527:	48 99                	cqo
   140004529:	49 23 d0             	and    rdx,r8
   14000452c:	4c 8d 14 02          	lea    r10,[rdx+rax*1]
   140004530:	49 c1 fa 0a          	sar    r10,0xa
   140004534:	66 45 89 53 06       	mov    WORD PTR [r11+0x6],r10w
   140004539:	b8 08 00 00 00       	mov    eax,0x8
   14000453e:	eb 02                	jmp    0x140004542
   140004540:	33 c0                	xor    eax,eax
   140004542:	48 8b 5c 24 08       	mov    rbx,QWORD PTR [rsp+0x8]
   140004547:	48 8b 74 24 10       	mov    rsi,QWORD PTR [rsp+0x10]
   14000454c:	48 8b 7c 24 18       	mov    rdi,QWORD PTR [rsp+0x18]
   140004551:	c3                   	ret
   140004552:	cc                   	int3
   140004553:	cc                   	int3
   140004554:	4c 8b c9             	mov    r9,rcx
   140004557:	48 85 c9             	test   rcx,rcx
   14000455a:	74 46                	je     0x1400045a2
   14000455c:	48 85 d2             	test   rdx,rdx
   14000455f:	74 41                	je     0x1400045a2
   140004561:	41 83 f8 06          	cmp    r8d,0x6
   140004565:	72 3b                	jb     0x1400045a2
   140004567:	8a 02                	mov    al,BYTE PTR [rdx]
   140004569:	88 01                	mov    BYTE PTR [rcx],al
   14000456b:	8a 42 01             	mov    al,BYTE PTR [rdx+0x1]
   14000456e:	88 41 01             	mov    BYTE PTR [rcx+0x1],al
   140004571:	8a 42 02             	mov    al,BYTE PTR [rdx+0x2]
   140004574:	88 41 02             	mov    BYTE PTR [rcx+0x2],al
   140004577:	8a 42 03             	mov    al,BYTE PTR [rdx+0x3]
   14000457a:	24 03                	and    al,0x3
   14000457c:	88 41 03             	mov    BYTE PTR [rcx+0x3],al
   14000457f:	0f b6 42 04          	movzx  eax,BYTE PTR [rdx+0x4]
   140004583:	0f b6 4a 05          	movzx  ecx,BYTE PTR [rdx+0x5]
   140004587:	c1 e1 08             	shl    ecx,0x8
   14000458a:	0b c8                	or     ecx,eax
   14000458c:	0f b6 42 03          	movzx  eax,BYTE PTR [rdx+0x3]
   140004590:	c1 e8 02             	shr    eax,0x2
   140004593:	c1 e1 06             	shl    ecx,0x6
   140004596:	0b c8                	or     ecx,eax
   140004598:	b8 08 00 00 00       	mov    eax,0x8
   14000459d:	41 89 49 04          	mov    DWORD PTR [r9+0x4],ecx
   1400045a1:	c3                   	ret
   1400045a2:	33 c0                	xor    eax,eax
   1400045a4:	c3                   	ret
   1400045a5:	cc                   	int3
   1400045a6:	cc                   	int3
   1400045a7:	cc                   	int3
   1400045a8:	4c 8b ca             	mov    r9,rdx
   1400045ab:	4c 8b d1             	mov    r10,rcx
   1400045ae:	48 85 c9             	test   rcx,rcx
   1400045b1:	0f 84 a1 00 00 00    	je     0x140004658
   1400045b7:	48 85 d2             	test   rdx,rdx
   1400045ba:	0f 84 98 00 00 00    	je     0x140004658
   1400045c0:	41 83 f8 06          	cmp    r8d,0x6
   1400045c4:	0f 82 8e 00 00 00    	jb     0x140004658
   1400045ca:	8a 02                	mov    al,BYTE PTR [rdx]
   1400045cc:	41 b8 00 02 00 00    	mov    r8d,0x200
   1400045d2:	88 01                	mov    BYTE PTR [rcx],al
   1400045d4:	8a 42 03             	mov    al,BYTE PTR [rdx+0x3]
   1400045d7:	24 0c                	and    al,0xc
   1400045d9:	0f b6 d0             	movzx  edx,al
   1400045dc:	41 0f b6 41 01       	movzx  eax,BYTE PTR [r9+0x1]
   1400045e1:	66 c1 e2 06          	shl    dx,0x6
   1400045e5:	66 0b d0             	or     dx,ax
   1400045e8:	66 89 51 02          	mov    WORD PTR [rcx+0x2],dx
   1400045ec:	41 8a 41 03          	mov    al,BYTE PTR [r9+0x3]
   1400045f0:	24 30                	and    al,0x30
   1400045f2:	0f b6 c8             	movzx  ecx,al
   1400045f5:	41 0f b6 41 02       	movzx  eax,BYTE PTR [r9+0x2]
   1400045fa:	66 c1 e1 04          	shl    cx,0x4
   1400045fe:	66 0b c8             	or     cx,ax
   140004601:	b8 00 fc ff ff       	mov    eax,0xfffffc00
   140004606:	66 41 89 4a 04       	mov    WORD PTR [r10+0x4],cx
   14000460b:	66 41 85 d0          	test   r8w,dx
   14000460f:	74 08                	je     0x140004619
   140004611:	66 0b d0             	or     dx,ax
   140004614:	66 41 89 52 02       	mov    WORD PTR [r10+0x2],dx
   140004619:	66 41 85 c8          	test   r8w,cx
   14000461d:	74 08                	je     0x140004627
   14000461f:	66 0b c8             	or     cx,ax
   140004622:	66 41 89 4a 04       	mov    WORD PTR [r10+0x4],cx
   140004627:	41 8a 49 03          	mov    cl,BYTE PTR [r9+0x3]
   14000462b:	b8 0c 00 00 00       	mov    eax,0xc
   140004630:	80 e1 03             	and    cl,0x3
   140004633:	41 88 4a 06          	mov    BYTE PTR [r10+0x6],cl
   140004637:	41 0f b6 49 04       	movzx  ecx,BYTE PTR [r9+0x4]
   14000463c:	41 0f b6 51 05       	movzx  edx,BYTE PTR [r9+0x5]
   140004641:	c1 e2 08             	shl    edx,0x8
   140004644:	0b d1                	or     edx,ecx
   140004646:	41 0f b6 49 03       	movzx  ecx,BYTE PTR [r9+0x3]
   14000464b:	c1 e9 06             	shr    ecx,0x6
   14000464e:	c1 e2 02             	shl    edx,0x2
   140004651:	0b d1                	or     edx,ecx
   140004653:	41 89 52 08          	mov    DWORD PTR [r10+0x8],edx
   140004657:	c3                   	ret
   140004658:	33 c0                	xor    eax,eax
   14000465a:	c3                   	ret
   14000465b:	cc                   	int3
   14000465c:	48 89 5c 24 08       	mov    QWORD PTR [rsp+0x8],rbx
   140004661:	48 89 74 24 10       	mov    QWORD PTR [rsp+0x10],rsi
   140004666:	48 89 7c 24 18       	mov    QWORD PTR [rsp+0x18],rdi
   14000466b:	55                   	push   rbp
   14000466c:	41 54                	push   r12
   14000466e:	41 55                	push   r13
   140004670:	41 56                	push   r14
   140004672:	41 57                	push   r15
   140004674:	48 8b ec             	mov    rbp,rsp
   140004677:	48 83 ec 40          	sub    rsp,0x40
   14000467b:	49 8d 58 3c          	lea    rbx,[r8+0x3c]
   14000467f:	49 8b f0             	mov    rsi,r8
   140004682:	44 8b c2             	mov    r8d,edx
   140004685:	8b fa                	mov    edi,edx
   140004687:	48 8b d1             	mov    rdx,rcx
   14000468a:	4c 8b e1             	mov    r12,rcx
   14000468d:	48 8b cb             	mov    rcx,rbx
   140004690:	e8 bf fe ff ff       	call   0x140004554
   140004695:	45 33 ed             	xor    r13d,r13d
   140004698:	85 c0                	test   eax,eax
   14000469a:	0f 84 3e 01 00 00    	je     0x1400047de
   1400046a0:	8a 03                	mov    al,BYTE PTR [rbx]
   1400046a2:	45 8d 75 06          	lea    r14d,[r13+0x6]
   1400046a6:	88 03                	mov    BYTE PTR [rbx],al
   1400046a8:	41 2a fe             	sub    dil,r14b
   1400046ab:	8a 43 01             	mov    al,BYTE PTR [rbx+0x1]
   1400046ae:	88 43 01             	mov    BYTE PTR [rbx+0x1],al
   1400046b1:	8a 43 02             	mov    al,BYTE PTR [rbx+0x2]
   1400046b4:	88 43 02             	mov    BYTE PTR [rbx+0x2],al
   1400046b7:	8a 43 03             	mov    al,BYTE PTR [rbx+0x3]
   1400046ba:	88 43 03             	mov    BYTE PTR [rbx+0x3],al
   1400046bd:	8b 43 04             	mov    eax,DWORD PTR [rbx+0x4]
   1400046c0:	40 c0 ef 03          	shr    dil,0x3
   1400046c4:	89 43 04             	mov    DWORD PTR [rbx+0x4],eax
   1400046c7:	40 88 7e 34          	mov    BYTE PTR [rsi+0x34],dil
   1400046cb:	c6 46 0a 01          	mov    BYTE PTR [rsi+0xa],0x1
   1400046cf:	40 84 ff             	test   dil,dil
   1400046d2:	0f 84 02 01 00 00    	je     0x1400047da
   1400046d8:	45 8b fd             	mov    r15d,r13d
   1400046db:	48 8d 7e 5e          	lea    rdi,[rsi+0x5e]
   1400046df:	83 cb ff             	or     ebx,0xffffffff
   1400046e2:	49 63 d6             	movsxd rdx,r14d
   1400046e5:	48 8d 4d e0          	lea    rcx,[rbp-0x20]
   1400046e9:	49 03 d4             	add    rdx,r12
   1400046ec:	41 b8 08 00 00 00    	mov    r8d,0x8
   1400046f2:	e8 15 fc ff ff       	call   0x14000430c
   1400046f7:	85 c0                	test   eax,eax
   1400046f9:	0f 84 c3 00 00 00    	je     0x1400047c2
   1400046ff:	80 7d f0 00          	cmp    BYTE PTR [rbp-0x10],0x0
   140004703:	8a 45 ea             	mov    al,BYTE PTR [rbp-0x16]
   140004706:	88 47 fe             	mov    BYTE PTR [rdi-0x2],al
   140004709:	8a 45 ef             	mov    al,BYTE PTR [rbp-0x11]
   14000470c:	88 47 ff             	mov    BYTE PTR [rdi-0x1],al
   14000470f:	8a 45 ee             	mov    al,BYTE PTR [rbp-0x12]
   140004712:	88 07                	mov    BYTE PTR [rdi],al
   140004714:	0f b7 45 e0          	movzx  eax,WORD PTR [rbp-0x20]
   140004718:	66 89 47 02          	mov    WORD PTR [rdi+0x2],ax
   14000471c:	0f b7 45 e2          	movzx  eax,WORD PTR [rbp-0x1e]
   140004720:	66 89 47 04          	mov    WORD PTR [rdi+0x4],ax
   140004724:	c6 47 01 01          	mov    BYTE PTR [rdi+0x1],0x1
   140004728:	74 08                	je     0x140004732
   14000472a:	66 89 5f 06          	mov    WORD PTR [rdi+0x6],bx
   14000472e:	66 89 5f 08          	mov    WORD PTR [rdi+0x8],bx
   140004732:	0f bf 4d e6          	movsx  ecx,WORD PTR [rbp-0x1a]
   140004736:	0f bf 55 e4          	movsx  edx,WORD PTR [rbp-0x1c]
   14000473a:	0f b7 45 ec          	movzx  eax,WORD PTR [rbp-0x14]
   14000473e:	0f bf 5d e8          	movsx  ebx,WORD PTR [rbp-0x18]
   140004742:	66 89 4f 0c          	mov    WORD PTR [rdi+0xc],cx
   140004746:	0f af ca             	imul   ecx,edx
   140004749:	66 89 57 0a          	mov    WORD PTR [rdi+0xa],dx
   14000474d:	66 89 47 0e          	mov    WORD PTR [rdi+0xe],ax
   140004751:	66 89 5f 10          	mov    WORD PTR [rdi+0x10],bx
   140004755:	66 0f 6e c1          	movd   xmm0,ecx
   140004759:	f3 0f e6 c0          	cvtdq2pd xmm0,xmm0
   14000475d:	e8 3e 06 00 00       	call   0x140004da0
   140004762:	f2 0f 2c c8          	cvttsd2si ecx,xmm0
   140004766:	ba 58 02 00 00       	mov    edx,0x258
   14000476b:	4c 8d 47 fe          	lea    r8,[rdi-0x2]
   14000476f:	8b c2                	mov    eax,edx
   140004771:	66 3b ca             	cmp    cx,dx
   140004774:	66 0f 4f c1          	cmovg  ax,cx
   140004778:	0f bf c8             	movsx  ecx,ax
   14000477b:	81 e9 ae 01 00 00    	sub    ecx,0x1ae
   140004781:	69 c3 90 01 00 00    	imul   eax,ebx,0x190
   140004787:	99                   	cdq
   140004788:	f7 f9                	idiv   ecx
   14000478a:	66 89 47 12          	mov    WORD PTR [rdi+0x12],ax
   14000478e:	66 89 47 14          	mov    WORD PTR [rdi+0x14],ax
   140004792:	33 c0                	xor    eax,eax
   140004794:	89 47 16             	mov    DWORD PTR [rdi+0x16],eax
   140004797:	0f b6 45 ea          	movzx  eax,BYTE PTR [rbp-0x16]
   14000479b:	44 8b 4e 40          	mov    r9d,DWORD PTR [rsi+0x40]
   14000479f:	48 6b c8 1c          	imul   rcx,rax,0x1c
   1400047a3:	48 8b 45 50          	mov    rax,QWORD PTR [rbp+0x50]
   1400047a7:	48 81 c1 13 09 00 00 	add    rcx,0x913
   1400047ae:	48 03 c8             	add    rcx,rax
   1400047b1:	8b 90 0b 09 00 00    	mov    edx,DWORD PTR [rax+0x90b]
   1400047b7:	e8 9c 04 00 00       	call   0x140004c58
   1400047bc:	45 33 ed             	xor    r13d,r13d
   1400047bf:	83 cb ff             	or     ebx,0xffffffff
   1400047c2:	0f b6 4e 34          	movzx  ecx,BYTE PTR [rsi+0x34]
   1400047c6:	41 ff c7             	inc    r15d
   1400047c9:	41 83 c6 08          	add    r14d,0x8
   1400047cd:	48 83 c7 1c          	add    rdi,0x1c
   1400047d1:	44 3b f9             	cmp    r15d,ecx
   1400047d4:	0f 8c 08 ff ff ff    	jl     0x1400046e2
   1400047da:	b0 01                	mov    al,0x1
   1400047dc:	eb 02                	jmp    0x1400047e0
   1400047de:	32 c0                	xor    al,al
   1400047e0:	4c 8d 5c 24 40       	lea    r11,[rsp+0x40]
   1400047e5:	49 8b 5b 30          	mov    rbx,QWORD PTR [r11+0x30]
   1400047e9:	49 8b 73 38          	mov    rsi,QWORD PTR [r11+0x38]
   1400047ed:	49 8b 7b 40          	mov    rdi,QWORD PTR [r11+0x40]
   1400047f1:	49 8b e3             	mov    rsp,r11
   1400047f4:	41 5f                	pop    r15
   1400047f6:	41 5e                	pop    r14
   1400047f8:	41 5d                	pop    r13
   1400047fa:	41 5c                	pop    r12
   1400047fc:	5d                   	pop    rbp
   1400047fd:	c3                   	ret
   1400047fe:	cc                   	int3
   1400047ff:	cc                   	int3
   140004800:	48 89 7c 24 08       	mov    QWORD PTR [rsp+0x8],rdi
   140004805:	8a 01                	mov    al,BYTE PTR [rcx]
   140004807:	33 ff                	xor    edi,edi
   140004809:	88 42 08             	mov    BYTE PTR [rdx+0x8],al
   14000480c:	4d 8b d8             	mov    r11,r8
   14000480f:	8a 41 06             	mov    al,BYTE PTR [rcx+0x6]
   140004812:	88 42 20             	mov    BYTE PTR [rdx+0x20],al
   140004815:	b8 00 00 fc ff       	mov    eax,0xfffc0000
   14000481a:	40 88 7a 22          	mov    BYTE PTR [rdx+0x22],dil
   14000481e:	45 8b 40 08          	mov    r8d,DWORD PTR [r8+0x8]
   140004822:	45 8b d0             	mov    r10d,r8d
   140004825:	44 8b 49 08          	mov    r9d,DWORD PTR [rcx+0x8]
   140004829:	4c 23 d0             	and    r10,rax
   14000482c:	41 81 e1 ff ff 03 00 	and    r9d,0x3ffff
   140004833:	41 81 e0 ff ff 03 00 	and    r8d,0x3ffff
   14000483a:	41 8b c1             	mov    eax,r9d
   14000483d:	4c 0b d0             	or     r10,rax
   140004840:	4c 89 12             	mov    QWORD PTR [rdx],r10
   140004843:	45 3b c8             	cmp    r9d,r8d
   140004846:	73 0a                	jae    0x140004852
   140004848:	49 8d 82 00 00 04 00 	lea    rax,[r10+0x40000]
   14000484f:	48 89 02             	mov    QWORD PTR [rdx],rax
   140004852:	8b 02                	mov    eax,DWORD PTR [rdx]
   140004854:	89 41 08             	mov    DWORD PTR [rcx+0x8],eax
   140004857:	c6 42 09 01          	mov    BYTE PTR [rdx+0x9],0x1
   14000485b:	c6 42 0e 03          	mov    BYTE PTR [rdx+0xe],0x3
   14000485f:	41 8a 43 0c          	mov    al,BYTE PTR [r11+0xc]
   140004863:	fe c0                	inc    al
   140004865:	40 88 7a 13          	mov    BYTE PTR [rdx+0x13],dil
   140004869:	89 7a 2a             	mov    DWORD PTR [rdx+0x2a],edi
   14000486c:	89 7a 30             	mov    DWORD PTR [rdx+0x30],edi
   14000486f:	48 8b 7c 24 08       	mov    rdi,QWORD PTR [rsp+0x8]
   140004874:	88 42 0f             	mov    BYTE PTR [rdx+0xf],al
   140004877:	66 c7 42 11 01 00    	mov    WORD PTR [rdx+0x11],0x1
   14000487d:	c7 42 35 00 00 00 95 	mov    DWORD PTR [rdx+0x35],0x95000000
   140004884:	c3                   	ret
   140004885:	cc                   	int3
   140004886:	cc                   	int3
   140004887:	cc                   	int3
   140004888:	48 89 5c 24 08       	mov    QWORD PTR [rsp+0x8],rbx
   14000488d:	48 89 74 24 10       	mov    QWORD PTR [rsp+0x10],rsi
   140004892:	48 89 7c 24 18       	mov    QWORD PTR [rsp+0x18],rdi
   140004897:	55                   	push   rbp
   140004898:	41 54                	push   r12
   14000489a:	41 55                	push   r13
   14000489c:	41 56                	push   r14
   14000489e:	41 57                	push   r15
   1400048a0:	48 8b ec             	mov    rbp,rsp
   1400048a3:	48 83 ec 40          	sub    rsp,0x40
   1400048a7:	49 8b f0             	mov    rsi,r8
   1400048aa:	8b da                	mov    ebx,edx
   1400048ac:	44 8b c2             	mov    r8d,edx
   1400048af:	4c 8b e1             	mov    r12,rcx
   1400048b2:	48 8b d1             	mov    rdx,rcx
   1400048b5:	4d 8b f1             	mov    r14,r9
   1400048b8:	48 8d 4e 3c          	lea    rcx,[rsi+0x3c]
   1400048bc:	e8 e7 fc ff ff       	call   0x1400045a8
   1400048c1:	45 33 ed             	xor    r13d,r13d
   1400048c4:	85 c0                	test   eax,eax
   1400048c6:	0f 84 2e 01 00 00    	je     0x1400049fa
   1400048cc:	4d 8b c6             	mov    r8,r14
   1400048cf:	48 8d 4e 3c          	lea    rcx,[rsi+0x3c]
   1400048d3:	48 8b d6             	mov    rdx,rsi
   1400048d6:	e8 25 ff ff ff       	call   0x140004800
   1400048db:	45 8d 75 06          	lea    r14d,[r13+0x6]
   1400048df:	c6 46 0a 01          	mov    BYTE PTR [rsi+0xa],0x1
   1400048e3:	41 2a de             	sub    bl,r14b
   1400048e6:	c0 eb 03             	shr    bl,0x3
   1400048e9:	88 5e 34             	mov    BYTE PTR [rsi+0x34],bl
   1400048ec:	84 db                	test   bl,bl
   1400048ee:	0f 84 02 01 00 00    	je     0x1400049f6
   1400048f4:	45 8b fd             	mov    r15d,r13d
   1400048f7:	48 8d 7e 5e          	lea    rdi,[rsi+0x5e]
   1400048fb:	83 cb ff             	or     ebx,0xffffffff
   1400048fe:	49 63 d6             	movsxd rdx,r14d
   140004901:	48 8d 4d e0          	lea    rcx,[rbp-0x20]
   140004905:	49 03 d4             	add    rdx,r12
   140004908:	41 b8 08 00 00 00    	mov    r8d,0x8
   14000490e:	e8 f9 f9 ff ff       	call   0x14000430c
   140004913:	85 c0                	test   eax,eax
   140004915:	0f 84 c3 00 00 00    	je     0x1400049de
   14000491b:	80 7d f0 00          	cmp    BYTE PTR [rbp-0x10],0x0
   14000491f:	8a 45 ea             	mov    al,BYTE PTR [rbp-0x16]
   140004922:	88 47 fe             	mov    BYTE PTR [rdi-0x2],al
   140004925:	8a 45 ef             	mov    al,BYTE PTR [rbp-0x11]
   140004928:	88 47 ff             	mov    BYTE PTR [rdi-0x1],al
   14000492b:	8a 45 ee             	mov    al,BYTE PTR [rbp-0x12]
   14000492e:	88 07                	mov    BYTE PTR [rdi],al
   140004930:	0f b7 45 e0          	movzx  eax,WORD PTR [rbp-0x20]
   140004934:	66 89 47 02          	mov    WORD PTR [rdi+0x2],ax
   140004938:	0f b7 45 e2          	movzx  eax,WORD PTR [rbp-0x1e]
   14000493c:	66 89 47 04          	mov    WORD PTR [rdi+0x4],ax
   140004940:	c6 47 01 01          	mov    BYTE PTR [rdi+0x1],0x1
   140004944:	74 08                	je     0x14000494e
   140004946:	66 89 5f 06          	mov    WORD PTR [rdi+0x6],bx
   14000494a:	66 89 5f 08          	mov    WORD PTR [rdi+0x8],bx
   14000494e:	0f bf 4d e6          	movsx  ecx,WORD PTR [rbp-0x1a]
   140004952:	0f bf 55 e4          	movsx  edx,WORD PTR [rbp-0x1c]
   140004956:	0f b7 45 ec          	movzx  eax,WORD PTR [rbp-0x14]
   14000495a:	0f bf 5d e8          	movsx  ebx,WORD PTR [rbp-0x18]
   14000495e:	66 89 4f 0c          	mov    WORD PTR [rdi+0xc],cx
   140004962:	0f af ca             	imul   ecx,edx
   140004965:	66 89 57 0a          	mov    WORD PTR [rdi+0xa],dx
   140004969:	66 89 47 0e          	mov    WORD PTR [rdi+0xe],ax
   14000496d:	66 89 5f 10          	mov    WORD PTR [rdi+0x10],bx
   140004971:	66 0f 6e c1          	movd   xmm0,ecx
   140004975:	f3 0f e6 c0          	cvtdq2pd xmm0,xmm0
   140004979:	e8 22 04 00 00       	call   0x140004da0
   14000497e:	f2 0f 2c c8          	cvttsd2si ecx,xmm0
   140004982:	ba 58 02 00 00       	mov    edx,0x258
   140004987:	4c 8d 47 fe          	lea    r8,[rdi-0x2]
   14000498b:	8b c2                	mov    eax,edx
   14000498d:	66 3b ca             	cmp    cx,dx
   140004990:	66 0f 4f c1          	cmovg  ax,cx
   140004994:	0f bf c8             	movsx  ecx,ax
   140004997:	81 e9 ae 01 00 00    	sub    ecx,0x1ae
   14000499d:	69 c3 90 01 00 00    	imul   eax,ebx,0x190
   1400049a3:	99                   	cdq
   1400049a4:	f7 f9                	idiv   ecx
   1400049a6:	66 89 47 12          	mov    WORD PTR [rdi+0x12],ax
   1400049aa:	66 89 47 14          	mov    WORD PTR [rdi+0x14],ax
   1400049ae:	33 c0                	xor    eax,eax
   1400049b0:	89 47 16             	mov    DWORD PTR [rdi+0x16],eax
   1400049b3:	0f b6 45 ea          	movzx  eax,BYTE PTR [rbp-0x16]
   1400049b7:	44 8b 4e 44          	mov    r9d,DWORD PTR [rsi+0x44]
   1400049bb:	48 6b c8 1c          	imul   rcx,rax,0x1c
   1400049bf:	48 8b 45 50          	mov    rax,QWORD PTR [rbp+0x50]
   1400049c3:	48 81 c1 13 09 00 00 	add    rcx,0x913
   1400049ca:	48 03 c8             	add    rcx,rax
   1400049cd:	8b 90 0b 09 00 00    	mov    edx,DWORD PTR [rax+0x90b]
   1400049d3:	e8 80 02 00 00       	call   0x140004c58
   1400049d8:	45 33 ed             	xor    r13d,r13d
   1400049db:	83 cb ff             	or     ebx,0xffffffff
   1400049de:	0f b6 4e 34          	movzx  ecx,BYTE PTR [rsi+0x34]
   1400049e2:	41 ff c7             	inc    r15d
   1400049e5:	41 83 c6 08          	add    r14d,0x8
   1400049e9:	48 83 c7 1c          	add    rdi,0x1c
   1400049ed:	44 3b f9             	cmp    r15d,ecx
   1400049f0:	0f 8c 08 ff ff ff    	jl     0x1400048fe
   1400049f6:	b0 01                	mov    al,0x1
   1400049f8:	eb 02                	jmp    0x1400049fc
   1400049fa:	32 c0                	xor    al,al
   1400049fc:	4c 8d 5c 24 40       	lea    r11,[rsp+0x40]
   140004a01:	49 8b 5b 30          	mov    rbx,QWORD PTR [r11+0x30]
   140004a05:	49 8b 73 38          	mov    rsi,QWORD PTR [r11+0x38]
   140004a09:	49 8b 7b 40          	mov    rdi,QWORD PTR [r11+0x40]
   140004a0d:	49 8b e3             	mov    rsp,r11
   140004a10:	41 5f                	pop    r15
   140004a12:	41 5e                	pop    r14
   140004a14:	41 5d                	pop    r13
   140004a16:	41 5c                	pop    r12
   140004a18:	5d                   	pop    rbp
   140004a19:	c3                   	ret
   140004a1a:	cc                   	int3
   140004a1b:	cc                   	int3
   140004a1c:	48 89 5c 24 08       	mov    QWORD PTR [rsp+0x8],rbx
   140004a21:	57                   	push   rdi
   140004a22:	48 83 ec 70          	sub    rsp,0x70
   140004a26:	41 8b 80 13 01 00 00 	mov    eax,DWORD PTR [r8+0x113]
   140004a2d:	49 8b d8             	mov    rbx,r8
   140004a30:	8b fa                	mov    edi,edx
   140004a32:	48 8b d1             	mov    rdx,rcx
   140004a35:	85 c0                	test   eax,eax
   140004a37:	75 05                	jne    0x140004a3e
   140004a39:	83 ff 08             	cmp    edi,0x8
   140004a3c:	72 3f                	jb     0x140004a7d
   140004a3e:	48 8d 88 17 01 00 00 	lea    rcx,[rax+0x117]
   140004a45:	4c 8b c7             	mov    r8,rdi
   140004a48:	48 03 cb             	add    rcx,rbx
   140004a4b:	e8 f0 33 00 00       	call   0x140007e40
   140004a50:	01 bb 13 01 00 00    	add    DWORD PTR [rbx+0x113],edi
   140004a56:	4c 8d 83 2b 05 00 00 	lea    r8,[rbx+0x52b]
   140004a5d:	8b 93 13 01 00 00    	mov    edx,DWORD PTR [rbx+0x113]
   140004a63:	48 8d 8b 17 01 00 00 	lea    rcx,[rbx+0x117]
   140004a6a:	4c 8d 4c 24 30       	lea    r9,[rsp+0x30]
   140004a6f:	48 89 5c 24 20       	mov    QWORD PTR [rsp+0x20],rbx
   140004a74:	e8 e3 fb ff ff       	call   0x14000465c
   140004a79:	84 c0                	test   al,al
   140004a7b:	75 04                	jne    0x140004a81
   140004a7d:	32 c0                	xor    al,al
   140004a7f:	eb 74                	jmp    0x140004af5
   140004a81:	0f be 8b 68 05 00 00 	movsx  ecx,BYTE PTR [rbx+0x568]
   140004a88:	45 33 c9             	xor    r9d,r9d
   140004a8b:	8a 83 6a 05 00 00    	mov    al,BYTE PTR [rbx+0x56a]
   140004a91:	88 83 dd 17 00 00    	mov    BYTE PTR [rbx+0x17dd],al
   140004a97:	0f be 83 69 05 00 00 	movsx  eax,BYTE PTR [rbx+0x569]
   140004a9e:	66 0f 6e c9          	movd   xmm1,ecx
   140004aa2:	88 8b de 17 00 00    	mov    BYTE PTR [rbx+0x17de],cl
   140004aa8:	48 8d 8b bb 17 00 00 	lea    rcx,[rbx+0x17bb]
   140004aaf:	0f 5b c9             	cvtdq2ps xmm1,xmm1
   140004ab2:	88 83 df 17 00 00    	mov    BYTE PTR [rbx+0x17df],al
   140004ab8:	66 0f 6e d0          	movd   xmm2,eax
   140004abc:	0f 5b d2             	cvtdq2ps xmm2,xmm2
   140004abf:	e8 a0 ea ff ff       	call   0x140003564
   140004ac4:	8b 83 6b 05 00 00    	mov    eax,DWORD PTR [rbx+0x56b]
   140004aca:	48 8d 93 87 05 00 00 	lea    rdx,[rbx+0x587]
   140004ad1:	44 0f b6 83 5f 05 00 	movzx  r8d,BYTE PTR [rbx+0x55f]
   140004ad8:	00 
   140004ad9:	48 8b cb             	mov    rcx,rbx
   140004adc:	44 8a 8b 6a 05 00 00 	mov    r9b,BYTE PTR [rbx+0x56a]
   140004ae3:	89 44 24 20          	mov    DWORD PTR [rsp+0x20],eax
   140004ae7:	e8 54 e7 ff ff       	call   0x140003240
   140004aec:	83 a3 13 01 00 00 00 	and    DWORD PTR [rbx+0x113],0x0
   140004af3:	b0 01                	mov    al,0x1
   140004af5:	48 8b 9c 24 80 00 00 	mov    rbx,QWORD PTR [rsp+0x80]
   140004afc:	00 
   140004afd:	48 83 c4 70          	add    rsp,0x70
   140004b01:	5f                   	pop    rdi
   140004b02:	c3                   	ret
   140004b03:	cc                   	int3
   140004b04:	48 89 5c 24 08       	mov    QWORD PTR [rsp+0x8],rbx
   140004b09:	48 89 74 24 10       	mov    QWORD PTR [rsp+0x10],rsi
   140004b0e:	57                   	push   rdi
   140004b0f:	48 83 ec 70          	sub    rsp,0x70
   140004b13:	41 8b 80 0c 18 00 00 	mov    eax,DWORD PTR [r8+0x180c]
   140004b1a:	33 f6                	xor    esi,esi
   140004b1c:	89 44 24 38          	mov    DWORD PTR [rsp+0x38],eax
   140004b20:	49 8b d8             	mov    rbx,r8
   140004b23:	41 8a 80 12 01 00 00 	mov    al,BYTE PTR [r8+0x112]
   140004b2a:	88 44 24 3c          	mov    BYTE PTR [rsp+0x3c],al
   140004b2e:	41 8b 80 13 01 00 00 	mov    eax,DWORD PTR [r8+0x113]
   140004b35:	8b fa                	mov    edi,edx
   140004b37:	48 8b d1             	mov    rdx,rcx
   140004b3a:	c6 44 24 30 01       	mov    BYTE PTR [rsp+0x30],0x1
   140004b3f:	85 c0                	test   eax,eax
   140004b41:	75 05                	jne    0x140004b48
   140004b43:	83 ff 0c             	cmp    edi,0xc
   140004b46:	72 3f                	jb     0x140004b87
   140004b48:	48 8d 88 1f 03 00 00 	lea    rcx,[rax+0x31f]
   140004b4f:	4c 8b c7             	mov    r8,rdi
   140004b52:	48 03 cb             	add    rcx,rbx
   140004b55:	e8 e6 32 00 00       	call   0x140007e40
   140004b5a:	01 bb 13 01 00 00    	add    DWORD PTR [rbx+0x113],edi
   140004b60:	4c 8d 83 2b 05 00 00 	lea    r8,[rbx+0x52b]
   140004b67:	8b 93 13 01 00 00    	mov    edx,DWORD PTR [rbx+0x113]
   140004b6d:	48 8d 8b 1f 03 00 00 	lea    rcx,[rbx+0x31f]
   140004b74:	4c 8d 4c 24 30       	lea    r9,[rsp+0x30]
   140004b79:	48 89 5c 24 20       	mov    QWORD PTR [rsp+0x20],rbx
   140004b7e:	e8 05 fd ff ff       	call   0x140004888
   140004b83:	84 c0                	test   al,al
   140004b85:	75 07                	jne    0x140004b8e
   140004b87:	32 c0                	xor    al,al
   140004b89:	e9 b5 00 00 00       	jmp    0x140004c43
   140004b8e:	8a 83 6d 05 00 00    	mov    al,BYTE PTR [rbx+0x56d]
   140004b94:	88 83 dd 17 00 00    	mov    BYTE PTR [rbx+0x17dd],al
   140004b9a:	0f bf 83 69 05 00 00 	movsx  eax,WORD PTR [rbx+0x569]
   140004ba1:	66 85 c0             	test   ax,ax
   140004ba4:	78 05                	js     0x140004bab
   140004ba6:	83 c0 03             	add    eax,0x3
   140004ba9:	eb 03                	jmp    0x140004bae
   140004bab:	83 c0 fd             	add    eax,0xfffffffd
   140004bae:	99                   	cdq
   140004baf:	83 e2 03             	and    edx,0x3
   140004bb2:	03 c2                	add    eax,edx
   140004bb4:	c1 f8 02             	sar    eax,0x2
   140004bb7:	88 83 de 17 00 00    	mov    BYTE PTR [rbx+0x17de],al
   140004bbd:	0f bf 83 6b 05 00 00 	movsx  eax,WORD PTR [rbx+0x56b]
   140004bc4:	66 85 c0             	test   ax,ax
   140004bc7:	78 05                	js     0x140004bce
   140004bc9:	83 c0 03             	add    eax,0x3
   140004bcc:	eb 03                	jmp    0x140004bd1
   140004bce:	83 c0 fd             	add    eax,0xfffffffd
   140004bd1:	99                   	cdq
   140004bd2:	48 8d 8b bb 17 00 00 	lea    rcx,[rbx+0x17bb]
   140004bd9:	83 e2 03             	and    edx,0x3
   140004bdc:	45 33 c9             	xor    r9d,r9d
   140004bdf:	03 c2                	add    eax,edx
   140004be1:	c1 f8 02             	sar    eax,0x2
   140004be4:	88 83 df 17 00 00    	mov    BYTE PTR [rbx+0x17df],al
   140004bea:	0f be c0             	movsx  eax,al
   140004bed:	66 0f 6e d0          	movd   xmm2,eax
   140004bf1:	0f be 83 de 17 00 00 	movsx  eax,BYTE PTR [rbx+0x17de]
   140004bf8:	0f 5b d2             	cvtdq2ps xmm2,xmm2
   140004bfb:	66 0f 6e c8          	movd   xmm1,eax
   140004bff:	0f 5b c9             	cvtdq2ps xmm1,xmm1
   140004c02:	e8 5d e9 ff ff       	call   0x140003564
   140004c07:	8b 8b 6f 05 00 00    	mov    ecx,DWORD PTR [rbx+0x56f]
   140004c0d:	48 8d 93 87 05 00 00 	lea    rdx,[rbx+0x587]
   140004c14:	44 0f b6 83 5f 05 00 	movzx  r8d,BYTE PTR [rbx+0x55f]
   140004c1b:	00 
   140004c1c:	44 8a 8b 6d 05 00 00 	mov    r9b,BYTE PTR [rbx+0x56d]
   140004c23:	89 4c 24 20          	mov    DWORD PTR [rsp+0x20],ecx
   140004c27:	48 8b cb             	mov    rcx,rbx
   140004c2a:	e8 11 e6 ff ff       	call   0x140003240
   140004c2f:	8a 8b 5f 05 00 00    	mov    cl,BYTE PTR [rbx+0x55f]
   140004c35:	b0 01                	mov    al,0x1
   140004c37:	88 8b 10 18 00 00    	mov    BYTE PTR [rbx+0x1810],cl
   140004c3d:	89 b3 13 01 00 00    	mov    DWORD PTR [rbx+0x113],esi
   140004c43:	4c 8d 5c 24 70       	lea    r11,[rsp+0x70]
   140004c48:	49 8b 5b 10          	mov    rbx,QWORD PTR [r11+0x10]
   140004c4c:	49 8b 73 18          	mov    rsi,QWORD PTR [r11+0x18]
   140004c50:	49 8b e3             	mov    rsp,r11
   140004c53:	5f                   	pop    rdi
   140004c54:	c3                   	ret
   140004c55:	cc                   	int3
   140004c56:	cc                   	int3
   140004c57:	cc                   	int3
   140004c58:	41 8a 40 01          	mov    al,BYTE PTR [r8+0x1]
   140004c5c:	4c 8b d1             	mov    r10,rcx
   140004c5f:	2c 04                	sub    al,0x4
   140004c61:	3c 02                	cmp    al,0x2
   140004c63:	0f 87 98 00 00 00    	ja     0x140004d01
   140004c69:	f3 0f 10 1d 6f 66 00 	movss  xmm3,DWORD PTR [rip+0x666f]        # 0x14000b2e0
   140004c70:	00 
   140004c71:	0f 57 c0             	xorps  xmm0,xmm0
   140004c74:	0f 57 c9             	xorps  xmm1,xmm1
   140004c77:	41 8b c1             	mov    eax,r9d
   140004c7a:	0f 57 e4             	xorps  xmm4,xmm4
   140004c7d:	f2 48 0f 2a e0       	cvtsi2sd xmm4,rax
   140004c82:	8b c2                	mov    eax,edx
   140004c84:	f2 48 0f 2a c0       	cvtsi2sd xmm0,rax
   140004c89:	41 0f bf 40 06       	movsx  eax,WORD PTR [r8+0x6]
   140004c8e:	f3 0f 2a c8          	cvtsi2ss xmm1,eax
   140004c92:	0f bf 41 06          	movsx  eax,WORD PTR [rcx+0x6]
   140004c96:	f2 0f 5c e0          	subsd  xmm4,xmm0
   140004c9a:	0f 57 c0             	xorps  xmm0,xmm0
   140004c9d:	f3 0f 2a c0          	cvtsi2ss xmm0,eax
   140004ca1:	41 0f bf 40 04       	movsx  eax,WORD PTR [r8+0x4]
   140004ca6:	f2 0f 5e 25 72 66 00 	divsd  xmm4,QWORD PTR [rip+0x6672]        # 0x14000b320
   140004cad:	00 
   140004cae:	f3 0f 5e cb          	divss  xmm1,xmm3
   140004cb2:	f3 0f 5e c3          	divss  xmm0,xmm3
   140004cb6:	f3 0f 5c c8          	subss  xmm1,xmm0
   140004cba:	f3 0f 59 0d 66 66 00 	mulss  xmm1,DWORD PTR [rip+0x6666]        # 0x14000b328
   140004cc1:	00 
   140004cc2:	0f 5a c1             	cvtps2pd xmm0,xmm1
   140004cc5:	0f 57 c9             	xorps  xmm1,xmm1
   140004cc8:	f2 0f 5e c4          	divsd  xmm0,xmm4
   140004ccc:	f3 0f 2a c8          	cvtsi2ss xmm1,eax
   140004cd0:	41 0f bf 42 04       	movsx  eax,WORD PTR [r10+0x4]
   140004cd5:	f2 0f 2c c8          	cvttsd2si ecx,xmm0
   140004cd9:	0f 57 c0             	xorps  xmm0,xmm0
   140004cdc:	f3 0f 2a c0          	cvtsi2ss xmm0,eax
   140004ce0:	f3 0f 5e cb          	divss  xmm1,xmm3
   140004ce4:	f3 0f 5e c3          	divss  xmm0,xmm3
   140004ce8:	f3 0f 5c c8          	subss  xmm1,xmm0
   140004cec:	f3 0f 59 0d 34 66 00 	mulss  xmm1,DWORD PTR [rip+0x6634]        # 0x14000b328
   140004cf3:	00 
   140004cf4:	0f 5a c1             	cvtps2pd xmm0,xmm1
   140004cf7:	f2 0f 5e c4          	divsd  xmm0,xmm4
   140004cfb:	f2 0f 2c c0          	cvttsd2si eax,xmm0
   140004cff:	eb 05                	jmp    0x140004d06
   140004d01:	33 c0                	xor    eax,eax
   140004d03:	0f b7 c8             	movzx  ecx,ax
   140004d06:	66 41 89 40 08       	mov    WORD PTR [r8+0x8],ax
   140004d0b:	66 41 89 48 0a       	mov    WORD PTR [r8+0xa],cx
   140004d10:	c3                   	ret
   140004d11:	ff 25 11 64 00 00    	jmp    QWORD PTR [rip+0x6411]        # 0x14000b128
   140004d17:	cc                   	int3
   140004d18:	48 83 ec 28          	sub    rsp,0x28
   140004d1c:	4d 8b 41 38          	mov    r8,QWORD PTR [r9+0x38]
   140004d20:	48 8b ca             	mov    rcx,rdx
   140004d23:	49 8b d1             	mov    rdx,r9
   140004d26:	e8 0d 00 00 00       	call   0x140004d38
   140004d2b:	b8 01 00 00 00       	mov    eax,0x1
   140004d30:	48 83 c4 28          	add    rsp,0x28
   140004d34:	c3                   	ret
   140004d35:	cc                   	int3
   140004d36:	cc                   	int3
   140004d37:	cc                   	int3
   140004d38:	48 83 ec 28          	sub    rsp,0x28
   140004d3c:	41 8b 00             	mov    eax,DWORD PTR [r8]
   140004d3f:	4c 8b c9             	mov    r9,rcx
   140004d42:	44 8b d8             	mov    r11d,eax
   140004d45:	4c 8b d1             	mov    r10,rcx
   140004d48:	41 83 e3 f8          	and    r11d,0xfffffff8
   140004d4c:	a8 04                	test   al,0x4
   140004d4e:	74 13                	je     0x140004d63
   140004d50:	41 8b 40 08          	mov    eax,DWORD PTR [r8+0x8]
   140004d54:	4d 63 50 04          	movsxd r10,DWORD PTR [r8+0x4]
   140004d58:	f7 d8                	neg    eax
   140004d5a:	4c 03 d1             	add    r10,rcx
   140004d5d:	48 63 c8             	movsxd rcx,eax
   140004d60:	4c 23 d1             	and    r10,rcx
   140004d63:	49 63 c3             	movsxd rax,r11d
   140004d66:	4e 8b 04 10          	mov    r8,QWORD PTR [rax+r10*1]
   140004d6a:	48 8b 42 10          	mov    rax,QWORD PTR [rdx+0x10]
   140004d6e:	8b 48 08             	mov    ecx,DWORD PTR [rax+0x8]
   140004d71:	48 8b 42 08          	mov    rax,QWORD PTR [rdx+0x8]
   140004d75:	8a 54 01 03          	mov    dl,BYTE PTR [rcx+rax*1+0x3]
   140004d79:	f6 c2 0f             	test   dl,0xf
   140004d7c:	74 09                	je     0x140004d87
   140004d7e:	0f b6 c2             	movzx  eax,dl
   140004d81:	83 e0 f0             	and    eax,0xfffffff0
   140004d84:	4c 03 c8             	add    r9,rax
   140004d87:	4d 33 c8             	xor    r9,r8
   140004d8a:	49 8b c9             	mov    rcx,r9
   140004d8d:	e8 8e 1f 00 00       	call   0x140006d20
   140004d92:	48 83 c4 28          	add    rsp,0x28
   140004d96:	c3                   	ret
   140004d97:	cc                   	int3
   140004d98:	cc                   	int3
   140004d99:	cc                   	int3
   140004d9a:	cc                   	int3
   140004d9b:	cc                   	int3
   140004d9c:	cc                   	int3
   140004d9d:	cc                   	int3
   140004d9e:	cc                   	int3
   140004d9f:	cc                   	int3
   140004da0:	ff 25 42 63 00 00    	jmp    QWORD PTR [rip+0x6342]        # 0x14000b0e8
   140004da6:	cc                   	int3
   140004da7:	cc                   	int3
   140004da8:	48 83 ec 78          	sub    rsp,0x78
   140004dac:	48 b8 ff ff ff ff ff 	movabs rax,0x7fffffffffffffff
   140004db3:	ff ff 7f 
   140004db6:	0f 29 74 24 60       	movaps XMMWORD PTR [rsp+0x60],xmm6
   140004dbb:	f2 0f 11 84 24 88 00 	movsd  QWORD PTR [rsp+0x88],xmm0
   140004dc2:	00 00 
   140004dc4:	0f 28 f0             	movaps xmm6,xmm0
   140004dc7:	4c 8b 84 24 88 00 00 	mov    r8,QWORD PTR [rsp+0x88]
   140004dce:	00 
   140004dcf:	49 8b d0             	mov    rdx,r8
   140004dd2:	0f 29 7c 24 50       	movaps XMMWORD PTR [rsp+0x50],xmm7
   140004dd7:	48 23 d0             	and    rdx,rax
   140004dda:	48 b8 18 2d 44 54 fb 	movabs rax,0x3fe921fb54442d18
   140004de1:	21 e9 3f 
   140004de4:	48 3b d0             	cmp    rdx,rax
   140004de7:	0f 87 ef 00 00 00    	ja     0x140004edc
   140004ded:	48 b8 00 00 00 00 00 	movabs rax,0x3f20000000000000
   140004df4:	00 20 3f 
   140004df7:	48 3b d0             	cmp    rdx,rax
   140004dfa:	73 4c                	jae    0x140004e48
   140004dfc:	48 b8 00 00 00 00 00 	movabs rax,0x3e40000000000000
   140004e03:	00 40 3e 
   140004e06:	48 3b d0             	cmp    rdx,rax
   140004e09:	73 20                	jae    0x140004e2b
   140004e0b:	48 85 d2             	test   rdx,rdx
   140004e0e:	75 0d                	jne    0x140004e1d
   140004e10:	f2 0f 10 05 68 64 00 	movsd  xmm0,QWORD PTR [rip+0x6468]        # 0x14000b280
   140004e17:	00 
   140004e18:	e9 8d 03 00 00       	jmp    0x1400051aa
   140004e1d:	b9 10 00 00 00       	mov    ecx,0x10
   140004e22:	8b d1                	mov    edx,ecx
   140004e24:	e8 c7 15 00 00       	call   0x1400063f0
   140004e29:	eb e5                	jmp    0x140004e10
   140004e2b:	f2 0f 10 05 4d 64 00 	movsd  xmm0,QWORD PTR [rip+0x644d]        # 0x14000b280
   140004e32:	00 
   140004e33:	f2 0f 59 f6          	mulsd  xmm6,xmm6
   140004e37:	f2 0f 59 35 29 64 00 	mulsd  xmm6,QWORD PTR [rip+0x6429]        # 0x14000b268
   140004e3e:	00 
   140004e3f:	f2 0f 5c c6          	subsd  xmm0,xmm6
   140004e43:	e9 62 03 00 00       	jmp    0x1400051aa
   140004e48:	0f 28 ce             	movaps xmm1,xmm6
   140004e4b:	f2 0f 59 ce          	mulsd  xmm1,xmm6
   140004e4f:	f2 0f 59 35 69 65 00 	mulsd  xmm6,QWORD PTR [rip+0x6569]        # 0x14000b3c0
   140004e56:	00 
   140004e57:	f2 0f 10 1d a1 65 00 	movsd  xmm3,QWORD PTR [rip+0x65a1]        # 0x14000b400
   140004e5e:	00 
   140004e5f:	0f 28 c1             	movaps xmm0,xmm1
   140004e62:	f2 0f 59 05 76 65 00 	mulsd  xmm0,QWORD PTR [rip+0x6576]        # 0x14000b3e0
   140004e69:	00 
   140004e6a:	0f 28 d1             	movaps xmm2,xmm1
   140004e6d:	f2 0f 59 15 f3 63 00 	mulsd  xmm2,QWORD PTR [rip+0x63f3]        # 0x14000b268
   140004e74:	00 
   140004e75:	f2 0f 10 25 03 64 00 	movsd  xmm4,QWORD PTR [rip+0x6403]        # 0x14000b280
   140004e7c:	00 
   140004e7d:	f2 0f 5c d8          	subsd  xmm3,xmm0
   140004e81:	0f 28 ec             	movaps xmm5,xmm4
   140004e84:	f2 0f 5c ea          	subsd  xmm5,xmm2
   140004e88:	f2 0f 59 d9          	mulsd  xmm3,xmm1
   140004e8c:	f2 0f 5c e5          	subsd  xmm4,xmm5
   140004e90:	f2 0f 5c 1d 78 65 00 	subsd  xmm3,QWORD PTR [rip+0x6578]        # 0x14000b410
   140004e97:	00 
   140004e98:	f2 0f 5c e2          	subsd  xmm4,xmm2
   140004e9c:	f2 0f 59 d9          	mulsd  xmm3,xmm1
   140004ea0:	f2 0f 5c e6          	subsd  xmm4,xmm6
   140004ea4:	f2 0f 58 1d 74 65 00 	addsd  xmm3,QWORD PTR [rip+0x6574]        # 0x14000b420
   140004eab:	00 
   140004eac:	f2 0f 59 d9          	mulsd  xmm3,xmm1
   140004eb0:	f2 0f 5c 1d 78 65 00 	subsd  xmm3,QWORD PTR [rip+0x6578]        # 0x14000b430
   140004eb7:	00 
   140004eb8:	f2 0f 59 d9          	mulsd  xmm3,xmm1
   140004ebc:	f2 0f 59 c9          	mulsd  xmm1,xmm1
   140004ec0:	f2 0f 58 1d 78 65 00 	addsd  xmm3,QWORD PTR [rip+0x6578]        # 0x14000b440
   140004ec7:	00 
   140004ec8:	f2 0f 59 d9          	mulsd  xmm3,xmm1
   140004ecc:	f2 0f 58 dc          	addsd  xmm3,xmm4
   140004ed0:	f2 0f 58 dd          	addsd  xmm3,xmm5
   140004ed4:	0f 28 c3             	movaps xmm0,xmm3
   140004ed7:	e9 ce 02 00 00       	jmp    0x1400051aa
   140004edc:	48 b9 00 00 00 00 00 	movabs rcx,0x7ff0000000000000
   140004ee3:	00 f0 7f 
   140004ee6:	49 8b c0             	mov    rax,r8
   140004ee9:	48 23 c1             	and    rax,rcx
   140004eec:	48 3b c1             	cmp    rax,rcx
   140004eef:	75 6f                	jne    0x140004f60
   140004ef1:	c7 44 24 40 01 00 00 	mov    DWORD PTR [rsp+0x40],0x1
   140004ef8:	00 
   140004ef9:	ba 12 00 00 00       	mov    edx,0x12
   140004efe:	0f 57 c0             	xorps  xmm0,xmm0
   140004f01:	48 b8 ff ff ff ff ff 	movabs rax,0xfffffffffffff
   140004f08:	ff 0f 00 
   140004f0b:	f2 0f 11 44 24 38    	movsd  QWORD PTR [rsp+0x38],xmm0
   140004f11:	f2 0f 11 74 24 30    	movsd  QWORD PTR [rsp+0x30],xmm6
   140004f17:	c7 44 24 28 21 00 00 	mov    DWORD PTR [rsp+0x28],0x21
   140004f1e:	00 
   140004f1f:	44 8d 4a ef          	lea    r9d,[rdx-0x11]
   140004f23:	4c 85 c0             	test   rax,r8
   140004f26:	74 24                	je     0x140004f4c
   140004f28:	48 b8 00 00 00 00 00 	movabs rax,0x8000000000000
   140004f2f:	00 08 00 
   140004f32:	4c 0b c0             	or     r8,rax
   140004f35:	33 c9                	xor    ecx,ecx
   140004f37:	89 4c 24 20          	mov    DWORD PTR [rsp+0x20],ecx
   140004f3b:	48 8d 0d 7a 64 00 00 	lea    rcx,[rip+0x647a]        # 0x14000b3bc
   140004f42:	e8 e1 15 00 00       	call   0x140006528
   140004f47:	e9 5e 02 00 00       	jmp    0x1400051aa
   140004f4c:	c7 44 24 20 08 00 00 	mov    DWORD PTR [rsp+0x20],0x8
   140004f53:	00 
   140004f54:	49 b8 00 00 00 00 00 	movabs r8,0xfff8000000000000
   140004f5b:	00 f8 ff 
   140004f5e:	eb db                	jmp    0x140004f3b
   140004f60:	49 3b d0             	cmp    rdx,r8
   140004f63:	74 07                	je     0x140004f6c
   140004f65:	0f 57 35 04 65 00 00 	xorps  xmm6,XMMWORD PTR [rip+0x6504]        # 0x14000b470
   140004f6c:	f2 0f 10 05 ec 64 00 	movsd  xmm0,QWORD PTR [rip+0x64ec]        # 0x14000b460
   140004f73:	00 
   140004f74:	66 0f 2f c6          	comisd xmm0,xmm6
   140004f78:	0f 86 1a 01 00 00    	jbe    0x140005098
   140004f7e:	4c 8b c2             	mov    r8,rdx
   140004f81:	48 b8 5e 38 55 29 7a 	movabs rax,0x400f6a7a2955385e
   140004f88:	6a 0f 40 
   140004f8b:	49 c1 e8 34          	shr    r8,0x34
   140004f8f:	48 3b d0             	cmp    rdx,rax
   140004f92:	77 16                	ja     0x140004faa
   140004f94:	33 c9                	xor    ecx,ecx
   140004f96:	48 b8 d2 21 33 7f 7c 	movabs rax,0x4002d97c7f3321d2
   140004f9d:	d9 02 40 
   140004fa0:	48 3b d0             	cmp    rdx,rax
   140004fa3:	0f 97 c1             	seta   cl
   140004fa6:	ff c1                	inc    ecx
   140004fa8:	eb 3d                	jmp    0x140004fe7
   140004faa:	48 b8 bb b2 cc be 3a 	movabs rax,0x401c463abeccb2bb
   140004fb1:	46 1c 40 
   140004fb4:	48 3b d0             	cmp    rdx,rax
   140004fb7:	77 17                	ja     0x140004fd0
   140004fb9:	33 c9                	xor    ecx,ecx
   140004fbb:	48 b8 75 a7 bb e9 bb 	movabs rax,0x4015fdbbe9bba775
   140004fc2:	fd 15 40 
   140004fc5:	48 3b d0             	cmp    rdx,rax
   140004fc8:	0f 97 c1             	seta   cl
   140004fcb:	83 c1 03             	add    ecx,0x3
   140004fce:	eb 17                	jmp    0x140004fe7
   140004fd0:	0f 28 c6             	movaps xmm0,xmm6
   140004fd3:	f2 0f 59 05 75 64 00 	mulsd  xmm0,QWORD PTR [rip+0x6475]        # 0x14000b450
   140004fda:	00 
   140004fdb:	f2 0f 58 05 85 62 00 	addsd  xmm0,QWORD PTR [rip+0x6285]        # 0x14000b268
   140004fe2:	00 
   140004fe3:	f2 0f 2c c8          	cvttsd2si ecx,xmm0
   140004fe7:	66 0f 6e d9          	movd   xmm3,ecx
   140004feb:	f3 0f e6 db          	cvtdq2pd xmm3,xmm3
   140004fef:	0f 28 c3             	movaps xmm0,xmm3
   140004ff2:	0f 28 d3             	movaps xmm2,xmm3
   140004ff5:	f2 0f 59 05 5b 64 00 	mulsd  xmm0,QWORD PTR [rip+0x645b]        # 0x14000b458
   140004ffc:	00 
   140004ffd:	f2 0f 59 15 eb 63 00 	mulsd  xmm2,QWORD PTR [rip+0x63eb]        # 0x14000b3f0
   140005004:	00 
   140005005:	f2 0f 5c f0          	subsd  xmm6,xmm0
   140005009:	f2 0f 11 b4 24 88 00 	movsd  QWORD PTR [rsp+0x88],xmm6
   140005010:	00 00 
   140005012:	48 8b 84 24 88 00 00 	mov    rax,QWORD PTR [rsp+0x88]
   140005019:	00 
   14000501a:	48 c1 e8 34          	shr    rax,0x34
   14000501e:	25 ff 07 00 00       	and    eax,0x7ff
   140005023:	4c 2b c0             	sub    r8,rax
   140005026:	49 83 f8 0f          	cmp    r8,0xf
   14000502a:	76 58                	jbe    0x140005084
   14000502c:	0f 28 ce             	movaps xmm1,xmm6
   14000502f:	0f 28 c3             	movaps xmm0,xmm3
   140005032:	f2 0f 59 05 ae 63 00 	mulsd  xmm0,QWORD PTR [rip+0x63ae]        # 0x14000b3e8
   140005039:	00 
   14000503a:	0f 28 d3             	movaps xmm2,xmm3
   14000503d:	f2 0f 59 15 93 63 00 	mulsd  xmm2,QWORD PTR [rip+0x6393]        # 0x14000b3d8
   140005044:	00 
   140005045:	f2 0f 5c f0          	subsd  xmm6,xmm0
   140005049:	f2 0f 5c ce          	subsd  xmm1,xmm6
   14000504d:	f2 0f 5c c8          	subsd  xmm1,xmm0
   140005051:	f2 0f 5c d1          	subsd  xmm2,xmm1
   140005055:	49 83 f8 30          	cmp    r8,0x30
   140005059:	76 29                	jbe    0x140005084
   14000505b:	0f 28 ce             	movaps xmm1,xmm6
   14000505e:	0f 28 c3             	movaps xmm0,xmm3
   140005061:	f2 0f 59 05 67 63 00 	mulsd  xmm0,QWORD PTR [rip+0x6367]        # 0x14000b3d0
   140005068:	00 
   140005069:	0f 28 d3             	movaps xmm2,xmm3
   14000506c:	f2 0f 59 15 54 63 00 	mulsd  xmm2,QWORD PTR [rip+0x6354]        # 0x14000b3c8
   140005073:	00 
   140005074:	f2 0f 5c f0          	subsd  xmm6,xmm0
   140005078:	f2 0f 5c ce          	subsd  xmm1,xmm6
   14000507c:	f2 0f 5c c8          	subsd  xmm1,xmm0
   140005080:	f2 0f 5c d1          	subsd  xmm2,xmm1
   140005084:	0f 28 fe             	movaps xmm7,xmm6
   140005087:	83 e1 03             	and    ecx,0x3
   14000508a:	f2 0f 5c fa          	subsd  xmm7,xmm2
   14000508e:	f2 0f 5c f7          	subsd  xmm6,xmm7
   140005092:	f2 0f 5c f2          	subsd  xmm6,xmm2
   140005096:	eb 39                	jmp    0x1400050d1
   140005098:	4c 8d 8c 24 80 00 00 	lea    r9,[rsp+0x80]
   14000509f:	00 
   1400050a0:	0f 28 c6             	movaps xmm0,xmm6
   1400050a3:	4c 8d 84 24 98 00 00 	lea    r8,[rsp+0x98]
   1400050aa:	00 
   1400050ab:	48 8d 94 24 90 00 00 	lea    rdx,[rsp+0x90]
   1400050b2:	00 
   1400050b3:	e8 b8 0b 00 00       	call   0x140005c70
   1400050b8:	8b 8c 24 80 00 00 00 	mov    ecx,DWORD PTR [rsp+0x80]
   1400050bf:	f2 0f 10 bc 24 90 00 	movsd  xmm7,QWORD PTR [rsp+0x90]
   1400050c6:	00 00 
   1400050c8:	f2 0f 10 b4 24 98 00 	movsd  xmm6,QWORD PTR [rsp+0x98]
   1400050cf:	00 00 
   1400050d1:	83 e9 01             	sub    ecx,0x1
   1400050d4:	0f 84 be 00 00 00    	je     0x140005198
   1400050da:	83 e9 01             	sub    ecx,0x1
   1400050dd:	74 25                	je     0x140005104
   1400050df:	83 f9 01             	cmp    ecx,0x1
   1400050e2:	74 10                	je     0x1400050f4
   1400050e4:	0f 28 cf             	movaps xmm1,xmm7
   1400050e7:	f2 0f 59 f7          	mulsd  xmm6,xmm7
   1400050eb:	f2 0f 59 cf          	mulsd  xmm1,xmm7
   1400050ef:	e9 63 fd ff ff       	jmp    0x140004e57
   1400050f4:	0f 28 ce             	movaps xmm1,xmm6
   1400050f7:	0f 28 c7             	movaps xmm0,xmm7
   1400050fa:	e8 fd 04 00 00       	call   0x1400055fc
   1400050ff:	e9 a6 00 00 00       	jmp    0x1400051aa
   140005104:	f2 0f 10 1d f4 62 00 	movsd  xmm3,QWORD PTR [rip+0x62f4]        # 0x14000b400
   14000510b:	00 
   14000510c:	0f 28 cf             	movaps xmm1,xmm7
   14000510f:	f2 0f 10 25 69 61 00 	movsd  xmm4,QWORD PTR [rip+0x6169]        # 0x14000b280
   140005116:	00 
   140005117:	f2 0f 59 cf          	mulsd  xmm1,xmm7
   14000511b:	0f 28 ec             	movaps xmm5,xmm4
   14000511e:	f2 0f 59 f7          	mulsd  xmm6,xmm7
   140005122:	0f 28 c1             	movaps xmm0,xmm1
   140005125:	0f 28 d1             	movaps xmm2,xmm1
   140005128:	f2 0f 59 05 b0 62 00 	mulsd  xmm0,QWORD PTR [rip+0x62b0]        # 0x14000b3e0
   14000512f:	00 
   140005130:	f2 0f 59 15 30 61 00 	mulsd  xmm2,QWORD PTR [rip+0x6130]        # 0x14000b268
   140005137:	00 
   140005138:	f2 0f 5c d8          	subsd  xmm3,xmm0
   14000513c:	f2 0f 5c ea          	subsd  xmm5,xmm2
   140005140:	f2 0f 59 d9          	mulsd  xmm3,xmm1
   140005144:	f2 0f 5c e5          	subsd  xmm4,xmm5
   140005148:	f2 0f 5c 1d c0 62 00 	subsd  xmm3,QWORD PTR [rip+0x62c0]        # 0x14000b410
   14000514f:	00 
   140005150:	f2 0f 5c e2          	subsd  xmm4,xmm2
   140005154:	f2 0f 59 d9          	mulsd  xmm3,xmm1
   140005158:	f2 0f 5c e6          	subsd  xmm4,xmm6
   14000515c:	f2 0f 58 1d bc 62 00 	addsd  xmm3,QWORD PTR [rip+0x62bc]        # 0x14000b420
   140005163:	00 
   140005164:	f2 0f 59 d9          	mulsd  xmm3,xmm1
   140005168:	f2 0f 5c 1d c0 62 00 	subsd  xmm3,QWORD PTR [rip+0x62c0]        # 0x14000b430
   14000516f:	00 
   140005170:	f2 0f 59 d9          	mulsd  xmm3,xmm1
   140005174:	f2 0f 59 c9          	mulsd  xmm1,xmm1
   140005178:	f2 0f 58 1d c0 62 00 	addsd  xmm3,QWORD PTR [rip+0x62c0]        # 0x14000b440
   14000517f:	00 
   140005180:	f2 0f 59 d9          	mulsd  xmm3,xmm1
   140005184:	f2 0f 58 dc          	addsd  xmm3,xmm4
   140005188:	f2 0f 58 dd          	addsd  xmm3,xmm5
   14000518c:	0f 57 1d dd 62 00 00 	xorps  xmm3,XMMWORD PTR [rip+0x62dd]        # 0x14000b470
   140005193:	e9 3c fd ff ff       	jmp    0x140004ed4
   140005198:	0f 28 ce             	movaps xmm1,xmm6
   14000519b:	0f 28 c7             	movaps xmm0,xmm7
   14000519e:	e8 59 04 00 00       	call   0x1400055fc
   1400051a3:	0f 57 05 c6 62 00 00 	xorps  xmm0,XMMWORD PTR [rip+0x62c6]        # 0x14000b470
   1400051aa:	0f 28 74 24 60       	movaps xmm6,XMMWORD PTR [rsp+0x60]
   1400051af:	0f 28 7c 24 50       	movaps xmm7,XMMWORD PTR [rsp+0x50]
   1400051b4:	48 83 c4 78          	add    rsp,0x78
   1400051b8:	c3                   	ret
   1400051b9:	cc                   	int3
   1400051ba:	cc                   	int3
   1400051bb:	cc                   	int3
   1400051bc:	48 8b c4             	mov    rax,rsp
   1400051bf:	53                   	push   rbx
   1400051c0:	48 81 ec 90 00 00 00 	sub    rsp,0x90
   1400051c7:	0f 29 70 e8          	movaps XMMWORD PTR [rax-0x18],xmm6
   1400051cb:	0f 28 f0             	movaps xmm6,xmm0
   1400051ce:	0f 29 78 d8          	movaps XMMWORD PTR [rax-0x28],xmm7
   1400051d2:	44 0f 29 40 c8       	movaps XMMWORD PTR [rax-0x38],xmm8
   1400051d7:	44 0f 29 48 b8       	movaps XMMWORD PTR [rax-0x48],xmm9
   1400051dc:	48 b8 ff ff ff ff ff 	movabs rax,0x7fffffffffffffff
   1400051e3:	ff ff 7f 
   1400051e6:	f2 0f 11 84 24 a8 00 	movsd  QWORD PTR [rsp+0xa8],xmm0
   1400051ed:	00 00 
   1400051ef:	48 8b 8c 24 a8 00 00 	mov    rcx,QWORD PTR [rsp+0xa8]
   1400051f6:	00 
   1400051f7:	48 8b d1             	mov    rdx,rcx
   1400051fa:	48 23 d0             	and    rdx,rax
   1400051fd:	48 b8 18 2d 44 54 fb 	movabs rax,0x3fe921fb54442d18
   140005204:	21 e9 3f 
   140005207:	48 3b d0             	cmp    rdx,rax
   14000520a:	77 5e                	ja     0x14000526a
   14000520c:	48 b8 00 00 00 00 00 	movabs rax,0x3f20000000000000
   140005213:	00 20 3f 
   140005216:	48 3b d0             	cmp    rdx,rax
   140005219:	73 42                	jae    0x14000525d
   14000521b:	48 b8 00 00 00 00 00 	movabs rax,0x3e40000000000000
   140005222:	00 40 3e 
   140005225:	48 3b d0             	cmp    rdx,rax
   140005228:	73 1d                	jae    0x140005247
   14000522a:	48 85 d2             	test   rdx,rdx
   14000522d:	0f 84 a7 03 00 00    	je     0x1400055da
   140005233:	b9 10 00 00 00       	mov    ecx,0x10
   140005238:	8b d1                	mov    edx,ecx
   14000523a:	e8 b1 11 00 00       	call   0x1400063f0
   14000523f:	0f 28 c6             	movaps xmm0,xmm6
   140005242:	e9 93 03 00 00       	jmp    0x1400055da
   140005247:	f2 0f 59 c6          	mulsd  xmm0,xmm6
   14000524b:	f2 0f 59 c6          	mulsd  xmm0,xmm6
   14000524f:	f2 0f 59 05 f1 61 00 	mulsd  xmm0,QWORD PTR [rip+0x61f1]        # 0x14000b448
   140005256:	00 
   140005257:	f2 0f 5c f0          	subsd  xmm6,xmm0
   14000525b:	eb e2                	jmp    0x14000523f
   14000525d:	0f 57 c9             	xorps  xmm1,xmm1
   140005260:	e8 97 03 00 00       	call   0x1400055fc
   140005265:	e9 70 03 00 00       	jmp    0x1400055da
   14000526a:	49 b8 00 00 00 00 00 	movabs r8,0x7ff0000000000000
   140005271:	00 f0 7f 
   140005274:	48 8b c1             	mov    rax,rcx
   140005277:	49 23 c0             	and    rax,r8
   14000527a:	49 3b c0             	cmp    rax,r8
   14000527d:	75 6e                	jne    0x1400052ed
   14000527f:	c7 44 24 40 01 00 00 	mov    DWORD PTR [rsp+0x40],0x1
   140005286:	00 
   140005287:	ba 1e 00 00 00       	mov    edx,0x1e
   14000528c:	0f 57 c0             	xorps  xmm0,xmm0
   14000528f:	48 b8 ff ff ff ff ff 	movabs rax,0xfffffffffffff
   140005296:	ff 0f 00 
   140005299:	f2 0f 11 44 24 38    	movsd  QWORD PTR [rsp+0x38],xmm0
   14000529f:	f2 0f 11 74 24 30    	movsd  QWORD PTR [rsp+0x30],xmm6
   1400052a5:	c7 44 24 28 21 00 00 	mov    DWORD PTR [rsp+0x28],0x21
   1400052ac:	00 
   1400052ad:	44 8d 4a e3          	lea    r9d,[rdx-0x1d]
   1400052b1:	48 85 c8             	test   rax,rcx
   1400052b4:	74 23                	je     0x1400052d9
   1400052b6:	49 b8 00 00 00 00 00 	movabs r8,0x8000000000000
   1400052bd:	00 08 00 
   1400052c0:	4c 0b c1             	or     r8,rcx
   1400052c3:	83 64 24 20 00       	and    DWORD PTR [rsp+0x20],0x0
   1400052c8:	48 8d 0d e9 60 00 00 	lea    rcx,[rip+0x60e9]        # 0x14000b3b8
   1400052cf:	e8 54 12 00 00       	call   0x140006528
   1400052d4:	e9 01 03 00 00       	jmp    0x1400055da
   1400052d9:	c7 44 24 20 08 00 00 	mov    DWORD PTR [rsp+0x20],0x8
   1400052e0:	00 
   1400052e1:	49 b8 00 00 00 00 00 	movabs r8,0xfff8000000000000
   1400052e8:	00 f8 ff 
   1400052eb:	eb db                	jmp    0x1400052c8
   1400052ed:	f2 44 0f 10 05 7a 61 	movsd  xmm8,QWORD PTR [rip+0x617a]        # 0x14000b470
   1400052f4:	00 00 
   1400052f6:	33 db                	xor    ebx,ebx
   1400052f8:	48 3b d1             	cmp    rdx,rcx
   1400052fb:	0f 95 c3             	setne  bl
   1400052fe:	74 04                	je     0x140005304
   140005300:	41 0f 57 f0          	xorps  xmm6,xmm8
   140005304:	f2 0f 10 05 54 61 00 	movsd  xmm0,QWORD PTR [rip+0x6154]        # 0x14000b460
   14000530b:	00 
   14000530c:	66 0f 2f c6          	comisd xmm0,xmm6
   140005310:	f2 44 0f 10 0d 4f 5f 	movsd  xmm9,QWORD PTR [rip+0x5f4f]        # 0x14000b268
   140005317:	00 00 
   140005319:	0f 86 17 01 00 00    	jbe    0x140005436
   14000531f:	4c 8b c2             	mov    r8,rdx
   140005322:	48 b8 5e 38 55 29 7a 	movabs rax,0x400f6a7a2955385e
   140005329:	6a 0f 40 
   14000532c:	49 c1 e8 34          	shr    r8,0x34
   140005330:	48 3b d0             	cmp    rdx,rax
   140005333:	77 16                	ja     0x14000534b
   140005335:	33 c9                	xor    ecx,ecx
   140005337:	48 b8 d2 21 33 7f 7c 	movabs rax,0x4002d97c7f3321d2
   14000533e:	d9 02 40 
   140005341:	48 3b d0             	cmp    rdx,rax
   140005344:	0f 97 c1             	seta   cl
   140005347:	ff c1                	inc    ecx
   140005349:	eb 3a                	jmp    0x140005385
   14000534b:	48 b8 bb b2 cc be 3a 	movabs rax,0x401c463abeccb2bb
   140005352:	46 1c 40 
   140005355:	48 3b d0             	cmp    rdx,rax
   140005358:	77 17                	ja     0x140005371
   14000535a:	33 c9                	xor    ecx,ecx
   14000535c:	48 b8 75 a7 bb e9 bb 	movabs rax,0x4015fdbbe9bba775
   140005363:	fd 15 40 
   140005366:	48 3b d0             	cmp    rdx,rax
   140005369:	0f 97 c1             	seta   cl
   14000536c:	83 c1 03             	add    ecx,0x3
   14000536f:	eb 14                	jmp    0x140005385
   140005371:	0f 28 c6             	movaps xmm0,xmm6
   140005374:	f2 0f 59 05 d4 60 00 	mulsd  xmm0,QWORD PTR [rip+0x60d4]        # 0x14000b450
   14000537b:	00 
   14000537c:	f2 41 0f 58 c1       	addsd  xmm0,xmm9
   140005381:	f2 0f 2c c8          	cvttsd2si ecx,xmm0
   140005385:	66 0f 6e d9          	movd   xmm3,ecx
   140005389:	f3 0f e6 db          	cvtdq2pd xmm3,xmm3
   14000538d:	0f 28 c3             	movaps xmm0,xmm3
   140005390:	0f 28 d3             	movaps xmm2,xmm3
   140005393:	f2 0f 59 05 bd 60 00 	mulsd  xmm0,QWORD PTR [rip+0x60bd]        # 0x14000b458
   14000539a:	00 
   14000539b:	f2 0f 59 15 4d 60 00 	mulsd  xmm2,QWORD PTR [rip+0x604d]        # 0x14000b3f0
   1400053a2:	00 
   1400053a3:	f2 0f 5c f0          	subsd  xmm6,xmm0
   1400053a7:	f2 0f 11 b4 24 a8 00 	movsd  QWORD PTR [rsp+0xa8],xmm6
   1400053ae:	00 00 
   1400053b0:	48 8b 84 24 a8 00 00 	mov    rax,QWORD PTR [rsp+0xa8]
   1400053b7:	00 
   1400053b8:	48 c1 e8 34          	shr    rax,0x34
   1400053bc:	25 ff 07 00 00       	and    eax,0x7ff
   1400053c1:	4c 2b c0             	sub    r8,rax
   1400053c4:	49 83 f8 0f          	cmp    r8,0xf
   1400053c8:	76 58                	jbe    0x140005422
   1400053ca:	0f 28 ce             	movaps xmm1,xmm6
   1400053cd:	0f 28 c3             	movaps xmm0,xmm3
   1400053d0:	f2 0f 59 05 10 60 00 	mulsd  xmm0,QWORD PTR [rip+0x6010]        # 0x14000b3e8
   1400053d7:	00 
   1400053d8:	0f 28 d3             	movaps xmm2,xmm3
   1400053db:	f2 0f 59 15 f5 5f 00 	mulsd  xmm2,QWORD PTR [rip+0x5ff5]        # 0x14000b3d8
   1400053e2:	00 
   1400053e3:	f2 0f 5c f0          	subsd  xmm6,xmm0
   1400053e7:	f2 0f 5c ce          	subsd  xmm1,xmm6
   1400053eb:	f2 0f 5c c8          	subsd  xmm1,xmm0
   1400053ef:	f2 0f 5c d1          	subsd  xmm2,xmm1
   1400053f3:	49 83 f8 30          	cmp    r8,0x30
   1400053f7:	76 29                	jbe    0x140005422
   1400053f9:	0f 28 ce             	movaps xmm1,xmm6
   1400053fc:	0f 28 c3             	movaps xmm0,xmm3
   1400053ff:	f2 0f 59 05 c9 5f 00 	mulsd  xmm0,QWORD PTR [rip+0x5fc9]        # 0x14000b3d0
   140005406:	00 
   140005407:	0f 28 d3             	movaps xmm2,xmm3
   14000540a:	f2 0f 59 15 b6 5f 00 	mulsd  xmm2,QWORD PTR [rip+0x5fb6]        # 0x14000b3c8
   140005411:	00 
   140005412:	f2 0f 5c f0          	subsd  xmm6,xmm0
   140005416:	f2 0f 5c ce          	subsd  xmm1,xmm6
   14000541a:	f2 0f 5c c8          	subsd  xmm1,xmm0
   14000541e:	f2 0f 5c d1          	subsd  xmm2,xmm1
   140005422:	0f 28 fe             	movaps xmm7,xmm6
   140005425:	83 e1 03             	and    ecx,0x3
   140005428:	f2 0f 5c fa          	subsd  xmm7,xmm2
   14000542c:	f2 0f 5c f7          	subsd  xmm6,xmm7
   140005430:	f2 0f 5c f2          	subsd  xmm6,xmm2
   140005434:	eb 39                	jmp    0x14000546f
   140005436:	4c 8d 8c 24 a0 00 00 	lea    r9,[rsp+0xa0]
   14000543d:	00 
   14000543e:	0f 28 c6             	movaps xmm0,xmm6
   140005441:	4c 8d 84 24 b8 00 00 	lea    r8,[rsp+0xb8]
   140005448:	00 
   140005449:	48 8d 94 24 b0 00 00 	lea    rdx,[rsp+0xb0]
   140005450:	00 
   140005451:	e8 1a 08 00 00       	call   0x140005c70
   140005456:	8b 8c 24 a0 00 00 00 	mov    ecx,DWORD PTR [rsp+0xa0]
   14000545d:	f2 0f 10 bc 24 b0 00 	movsd  xmm7,QWORD PTR [rsp+0xb0]
   140005464:	00 00 
   140005466:	f2 0f 10 b4 24 b8 00 	movsd  xmm6,QWORD PTR [rsp+0xb8]
   14000546d:	00 00 
   14000546f:	85 db                	test   ebx,ebx
   140005471:	0f 84 b9 00 00 00    	je     0x140005530
   140005477:	83 e9 01             	sub    ecx,0x1
   14000547a:	74 26                	je     0x1400054a2
   14000547c:	83 e9 01             	sub    ecx,0x1
   14000547f:	0f 84 c2 00 00 00    	je     0x140005547
   140005485:	83 f9 01             	cmp    ecx,0x1
   140005488:	0f 84 c4 00 00 00    	je     0x140005552
   14000548e:	0f 28 ce             	movaps xmm1,xmm6
   140005491:	0f 28 c7             	movaps xmm0,xmm7
   140005494:	e8 63 01 00 00       	call   0x1400055fc
   140005499:	41 0f 57 c0          	xorps  xmm0,xmm8
   14000549d:	e9 38 01 00 00       	jmp    0x1400055da
   1400054a2:	f2 0f 10 1d 56 5f 00 	movsd  xmm3,QWORD PTR [rip+0x5f56]        # 0x14000b400
   1400054a9:	00 
   1400054aa:	0f 28 cf             	movaps xmm1,xmm7
   1400054ad:	f2 0f 10 25 cb 5d 00 	movsd  xmm4,QWORD PTR [rip+0x5dcb]        # 0x14000b280
   1400054b4:	00 
   1400054b5:	f2 0f 59 cf          	mulsd  xmm1,xmm7
   1400054b9:	0f 28 ec             	movaps xmm5,xmm4
   1400054bc:	f2 0f 59 f7          	mulsd  xmm6,xmm7
   1400054c0:	0f 28 c1             	movaps xmm0,xmm1
   1400054c3:	0f 28 d1             	movaps xmm2,xmm1
   1400054c6:	f2 0f 59 05 12 5f 00 	mulsd  xmm0,QWORD PTR [rip+0x5f12]        # 0x14000b3e0
   1400054cd:	00 
   1400054ce:	f2 41 0f 59 d1       	mulsd  xmm2,xmm9
   1400054d3:	f2 0f 5c d8          	subsd  xmm3,xmm0
   1400054d7:	f2 0f 5c ea          	subsd  xmm5,xmm2
   1400054db:	f2 0f 59 d9          	mulsd  xmm3,xmm1
   1400054df:	f2 0f 5c e5          	subsd  xmm4,xmm5
   1400054e3:	f2 0f 5c 1d 25 5f 00 	subsd  xmm3,QWORD PTR [rip+0x5f25]        # 0x14000b410
   1400054ea:	00 
   1400054eb:	f2 0f 5c e2          	subsd  xmm4,xmm2
   1400054ef:	f2 0f 59 d9          	mulsd  xmm3,xmm1
   1400054f3:	f2 0f 5c e6          	subsd  xmm4,xmm6
   1400054f7:	f2 0f 58 1d 21 5f 00 	addsd  xmm3,QWORD PTR [rip+0x5f21]        # 0x14000b420
   1400054fe:	00 
   1400054ff:	f2 0f 59 d9          	mulsd  xmm3,xmm1
   140005503:	f2 0f 5c 1d 25 5f 00 	subsd  xmm3,QWORD PTR [rip+0x5f25]        # 0x14000b430
   14000550a:	00 
   14000550b:	f2 0f 59 d9          	mulsd  xmm3,xmm1
   14000550f:	f2 0f 59 c9          	mulsd  xmm1,xmm1
   140005513:	f2 0f 58 1d 25 5f 00 	addsd  xmm3,QWORD PTR [rip+0x5f25]        # 0x14000b440
   14000551a:	00 
   14000551b:	f2 0f 59 d9          	mulsd  xmm3,xmm1
   14000551f:	f2 0f 58 dc          	addsd  xmm3,xmm4
   140005523:	f2 0f 58 dd          	addsd  xmm3,xmm5
   140005527:	41 0f 57 d8          	xorps  xmm3,xmm8
   14000552b:	e9 a7 00 00 00       	jmp    0x1400055d7
   140005530:	83 e9 01             	sub    ecx,0x1
   140005533:	74 1d                	je     0x140005552
   140005535:	83 e9 01             	sub    ecx,0x1
   140005538:	0f 84 50 ff ff ff    	je     0x14000548e
   14000553e:	83 f9 01             	cmp    ecx,0x1
   140005541:	0f 84 5b ff ff ff    	je     0x1400054a2
   140005547:	0f 28 ce             	movaps xmm1,xmm6
   14000554a:	0f 28 c7             	movaps xmm0,xmm7
   14000554d:	e9 0e fd ff ff       	jmp    0x140005260
   140005552:	f2 0f 10 1d a6 5e 00 	movsd  xmm3,QWORD PTR [rip+0x5ea6]        # 0x14000b400
   140005559:	00 
   14000555a:	0f 28 cf             	movaps xmm1,xmm7
   14000555d:	f2 0f 10 25 1b 5d 00 	movsd  xmm4,QWORD PTR [rip+0x5d1b]        # 0x14000b280
   140005564:	00 
   140005565:	f2 0f 59 cf          	mulsd  xmm1,xmm7
   140005569:	0f 28 ec             	movaps xmm5,xmm4
   14000556c:	f2 0f 59 f7          	mulsd  xmm6,xmm7
   140005570:	0f 28 c1             	movaps xmm0,xmm1
   140005573:	0f 28 d1             	movaps xmm2,xmm1
   140005576:	f2 0f 59 05 62 5e 00 	mulsd  xmm0,QWORD PTR [rip+0x5e62]        # 0x14000b3e0
   14000557d:	00 
   14000557e:	f2 41 0f 59 d1       	mulsd  xmm2,xmm9
   140005583:	f2 0f 5c d8          	subsd  xmm3,xmm0
   140005587:	f2 0f 5c ea          	subsd  xmm5,xmm2
   14000558b:	f2 0f 59 d9          	mulsd  xmm3,xmm1
   14000558f:	f2 0f 5c e5          	subsd  xmm4,xmm5
   140005593:	f2 0f 5c 1d 75 5e 00 	subsd  xmm3,QWORD PTR [rip+0x5e75]        # 0x14000b410
   14000559a:	00 
   14000559b:	f2 0f 5c e2          	subsd  xmm4,xmm2
   14000559f:	f2 0f 59 d9          	mulsd  xmm3,xmm1
   1400055a3:	f2 0f 5c e6          	subsd  xmm4,xmm6
   1400055a7:	f2 0f 58 1d 71 5e 00 	addsd  xmm3,QWORD PTR [rip+0x5e71]        # 0x14000b420
   1400055ae:	00 
   1400055af:	f2 0f 59 d9          	mulsd  xmm3,xmm1
   1400055b3:	f2 0f 5c 1d 75 5e 00 	subsd  xmm3,QWORD PTR [rip+0x5e75]        # 0x14000b430
   1400055ba:	00 
   1400055bb:	f2 0f 59 d9          	mulsd  xmm3,xmm1
   1400055bf:	f2 0f 59 c9          	mulsd  xmm1,xmm1
   1400055c3:	f2 0f 58 1d 75 5e 00 	addsd  xmm3,QWORD PTR [rip+0x5e75]        # 0x14000b440
   1400055ca:	00 
   1400055cb:	f2 0f 59 d9          	mulsd  xmm3,xmm1
   1400055cf:	f2 0f 58 dc          	addsd  xmm3,xmm4
   1400055d3:	f2 0f 58 dd          	addsd  xmm3,xmm5
   1400055d7:	0f 28 c3             	movaps xmm0,xmm3
   1400055da:	0f 28 7c 24 70       	movaps xmm7,XMMWORD PTR [rsp+0x70]
   1400055df:	4c 8d 9c 24 90 00 00 	lea    r11,[rsp+0x90]
   1400055e6:	00 
   1400055e7:	41 0f 28 73 f0       	movaps xmm6,XMMWORD PTR [r11-0x10]
   1400055ec:	45 0f 28 43 d0       	movaps xmm8,XMMWORD PTR [r11-0x30]
   1400055f1:	45 0f 28 4b c0       	movaps xmm9,XMMWORD PTR [r11-0x40]
   1400055f6:	49 8b e3             	mov    rsp,r11
   1400055f9:	5b                   	pop    rbx
   1400055fa:	c3                   	ret
   1400055fb:	cc                   	int3
   1400055fc:	66 0f 2e 0d bc 5d 00 	ucomisd xmm1,QWORD PTR [rip+0x5dbc]        # 0x14000b3c0
   140005603:	00 
   140005604:	0f 28 e8             	movaps xmm5,xmm0
   140005607:	0f 28 e0             	movaps xmm4,xmm0
   14000560a:	f2 0f 59 e8          	mulsd  xmm5,xmm0
   14000560e:	0f 28 d5             	movaps xmm2,xmm5
   140005611:	0f 28 dd             	movaps xmm3,xmm5
   140005614:	f2 0f 59 15 dc 5d 00 	mulsd  xmm2,QWORD PTR [rip+0x5ddc]        # 0x14000b3f8
   14000561b:	00 
   14000561c:	f2 0f 59 d8          	mulsd  xmm3,xmm0
   140005620:	f2 0f 5c 15 e0 5d 00 	subsd  xmm2,QWORD PTR [rip+0x5de0]        # 0x14000b408
   140005627:	00 
   140005628:	f2 0f 59 d5          	mulsd  xmm2,xmm5
   14000562c:	f2 0f 58 15 e4 5d 00 	addsd  xmm2,QWORD PTR [rip+0x5de4]        # 0x14000b418
   140005633:	00 
   140005634:	f2 0f 59 d5          	mulsd  xmm2,xmm5
   140005638:	f2 0f 5c 15 e8 5d 00 	subsd  xmm2,QWORD PTR [rip+0x5de8]        # 0x14000b428
   14000563f:	00 
   140005640:	f2 0f 59 d5          	mulsd  xmm2,xmm5
   140005644:	f2 0f 58 15 ec 5d 00 	addsd  xmm2,QWORD PTR [rip+0x5dec]        # 0x14000b438
   14000564b:	00 
   14000564c:	7a 1a                	jp     0x140005668
   14000564e:	75 18                	jne    0x140005668
   140005650:	f2 0f 59 d5          	mulsd  xmm2,xmm5
   140005654:	f2 0f 5c 15 ec 5d 00 	subsd  xmm2,QWORD PTR [rip+0x5dec]        # 0x14000b448
   14000565b:	00 
   14000565c:	f2 0f 59 d3          	mulsd  xmm2,xmm3
   140005660:	f2 0f 58 d0          	addsd  xmm2,xmm0
   140005664:	0f 28 c2             	movaps xmm0,xmm2
   140005667:	c3                   	ret
   140005668:	0f 28 c1             	movaps xmm0,xmm1
   14000566b:	f2 0f 59 d3          	mulsd  xmm2,xmm3
   14000566f:	f2 0f 59 05 f1 5b 00 	mulsd  xmm0,QWORD PTR [rip+0x5bf1]        # 0x14000b268
   140005676:	00 
   140005677:	f2 0f 59 1d e9 5d 00 	mulsd  xmm3,QWORD PTR [rip+0x5de9]        # 0x14000b468
   14000567e:	00 
   14000567f:	f2 0f 5c c2          	subsd  xmm0,xmm2
   140005683:	f2 0f 59 c5          	mulsd  xmm0,xmm5
   140005687:	f2 0f 5c c1          	subsd  xmm0,xmm1
   14000568b:	f2 0f 5c c3          	subsd  xmm0,xmm3
   14000568f:	f2 0f 5c e0          	subsd  xmm4,xmm0
   140005693:	0f 28 c4             	movaps xmm0,xmm4
   140005696:	c3                   	ret
   140005697:	cc                   	int3
   140005698:	cc                   	int3
   140005699:	cc                   	int3
   14000569a:	cc                   	int3
   14000569b:	cc                   	int3
   14000569c:	cc                   	int3
   14000569d:	cc                   	int3
   14000569e:	cc                   	int3
   14000569f:	cc                   	int3
   1400056a0:	48 89 5c 24 08       	mov    QWORD PTR [rsp+0x8],rbx
   1400056a5:	48 89 6c 24 20       	mov    QWORD PTR [rsp+0x20],rbp
   1400056aa:	56                   	push   rsi
   1400056ab:	57                   	push   rdi
   1400056ac:	41 54                	push   r12
   1400056ae:	41 55                	push   r13
   1400056b0:	41 56                	push   r14
   1400056b2:	48 83 ec 70          	sub    rsp,0x70
   1400056b6:	48 8b 05 b3 6e 00 00 	mov    rax,QWORD PTR [rip+0x6eb3]        # 0x14000c570
   1400056bd:	48 33 c4             	xor    rax,rsp
   1400056c0:	48 89 44 24 60       	mov    QWORD PTR [rsp+0x60],rax
   1400056c5:	48 83 64 24 30 00    	and    QWORD PTR [rsp+0x30],0x0
   1400056cb:	4c 8d 1d 1e 6a 00 00 	lea    r11,[rip+0x6a1e]        # 0x14000c0f0
   1400056d2:	4c 8b f2             	mov    r14,rdx
   1400056d5:	48 8b d9             	mov    rbx,rcx
   1400056d8:	4c 8b c9             	mov    r9,rcx
   1400056db:	48 c1 eb 34          	shr    rbx,0x34
   1400056df:	81 e3 ff 07 00 00    	and    ebx,0x7ff
   1400056e5:	48 b8 00 00 00 e0 ff 	movabs rax,0xfffffe0000000
   1400056ec:	ff 0f 00 
   1400056ef:	4c 23 c8             	and    r9,rax
   1400056f2:	81 eb ff 03 00 00    	sub    ebx,0x3ff
   1400056f8:	49 bc ff ff ff ff 0f 	movabs r12,0xfffffffff
   1400056ff:	00 00 00 
   140005702:	b8 39 8e e3 38       	mov    eax,0x38e38e39
   140005707:	f7 eb                	imul   ebx
   140005709:	49 8b f8             	mov    rdi,r8
   14000570c:	49 bd 00 00 00 00 00 	movabs r13,0x10000000000000
   140005713:	00 10 00 
   140005716:	c1 fa 03             	sar    edx,0x3
   140005719:	4d 0b cd             	or     r9,r13
   14000571c:	8b c2                	mov    eax,edx
   14000571e:	49 c1 e9 1d          	shr    r9,0x1d
   140005722:	c1 e8 1f             	shr    eax,0x1f
   140005725:	03 d0                	add    edx,eax
   140005727:	4c 63 c2             	movsxd r8,edx
   14000572a:	8d 04 d2             	lea    eax,[rdx+rdx*8]
   14000572d:	4b 8b 4c c3 18       	mov    rcx,QWORD PTR [r11+r8*8+0x18]
   140005732:	4b 8b 54 c3 10       	mov    rdx,QWORD PTR [r11+r8*8+0x10]
   140005737:	c1 e0 02             	shl    eax,0x2
   14000573a:	2b d8                	sub    ebx,eax
   14000573c:	49 0f af c9          	imul   rcx,r9
   140005740:	49 0f af d1          	imul   rdx,r9
   140005744:	48 8b c1             	mov    rax,rcx
   140005747:	48 c1 e9 24          	shr    rcx,0x24
   14000574b:	49 23 c4             	and    rax,r12
   14000574e:	48 89 44 24 28       	mov    QWORD PTR [rsp+0x28],rax
   140005753:	48 03 d1             	add    rdx,rcx
   140005756:	b9 23 00 00 00       	mov    ecx,0x23
   14000575b:	48 8b c2             	mov    rax,rdx
   14000575e:	2b cb                	sub    ecx,ebx
   140005760:	49 23 c4             	and    rax,r12
   140005763:	48 c1 ea 24          	shr    rdx,0x24
   140005767:	48 89 44 24 20       	mov    QWORD PTR [rsp+0x20],rax
   14000576c:	4b 8b 44 c3 08       	mov    rax,QWORD PTR [r11+r8*8+0x8]
   140005771:	4f 8b 1c c3          	mov    r11,QWORD PTR [r11+r8*8]
   140005775:	4d 0f af d9          	imul   r11,r9
   140005779:	49 0f af c1          	imul   rax,r9
   14000577d:	41 b9 01 00 00 00    	mov    r9d,0x1
   140005783:	41 8d 71 23          	lea    esi,[r9+0x23]
   140005787:	48 03 c2             	add    rax,rdx
   14000578a:	41 8b d1             	mov    edx,r9d
   14000578d:	4c 8b d0             	mov    r10,rax
   140005790:	48 c1 e8 24          	shr    rax,0x24
   140005794:	4c 03 d8             	add    r11,rax
   140005797:	4d 23 d4             	and    r10,r12
   14000579a:	4d 23 dc             	and    r11,r12
   14000579d:	4c 89 54 24 18       	mov    QWORD PTR [rsp+0x18],r10
   1400057a2:	4c 89 5c 24 10       	mov    QWORD PTR [rsp+0x10],r11
   1400057a7:	49 c1 e3 24          	shl    r11,0x24
   1400057ab:	4d 0b da             	or     r11,r10
   1400057ae:	49 d3 eb             	shr    r11,cl
   1400057b1:	8b ce                	mov    ecx,esi
   1400057b3:	41 83 e3 07          	and    r11d,0x7
   1400057b7:	2b cb                	sub    ecx,ebx
   1400057b9:	41 8b eb             	mov    ebp,r11d
   1400057bc:	48 d3 e2             	shl    rdx,cl
   1400057bf:	41 d1 eb             	shr    r11d,1
   1400057c2:	48 ff ca             	dec    rdx
   1400057c5:	41 23 e9             	and    ebp,r9d
   1400057c8:	74 50                	je     0x14000581a
   1400057ca:	49 f7 d2             	not    r10
   1400057cd:	41 8d 43 01          	lea    eax,[r11+0x1]
   1400057d1:	4c 23 d2             	and    r10,rdx
   1400057d4:	83 e0 03             	and    eax,0x3
   1400057d7:	ba 00 00 01 00       	mov    edx,0x10000
   1400057dc:	89 07                	mov    DWORD PTR [rdi],eax
   1400057de:	4c 3b d2             	cmp    r10,rdx
   1400057e1:	73 27                	jae    0x14000580a
   1400057e3:	4c 8d 44 24 18       	lea    r8,[rsp+0x18]
   1400057e8:	49 8b c2             	mov    rax,r10
   1400057eb:	4d 8d 40 08          	lea    r8,[r8+0x8]
   1400057ef:	49 8b 08             	mov    rcx,QWORD PTR [r8]
   1400057f2:	41 ff c1             	inc    r9d
   1400057f5:	48 c1 e0 24          	shl    rax,0x24
   1400057f9:	48 f7 d1             	not    rcx
   1400057fc:	49 23 cc             	and    rcx,r12
   1400057ff:	4c 8b d1             	mov    r10,rcx
   140005802:	4c 0b d0             	or     r10,rax
   140005805:	4c 3b d2             	cmp    r10,rdx
   140005808:	72 de                	jb     0x1400057e8
   14000580a:	49 63 c1             	movsxd rax,r9d
   14000580d:	4c 8b 44 c4 18       	mov    r8,QWORD PTR [rsp+rax*8+0x18]
   140005812:	49 f7 d0             	not    r8
   140005815:	4d 23 c4             	and    r8,r12
   140005818:	eb 30                	jmp    0x14000584a
   14000581a:	4c 23 d2             	and    r10,rdx
   14000581d:	44 89 1f             	mov    DWORD PTR [rdi],r11d
   140005820:	ba 00 00 01 00       	mov    edx,0x10000
   140005825:	4c 3b d2             	cmp    r10,rdx
   140005828:	73 18                	jae    0x140005842
   14000582a:	48 8d 44 24 18       	lea    rax,[rsp+0x18]
   14000582f:	49 c1 e2 24          	shl    r10,0x24
   140005833:	48 8d 40 08          	lea    rax,[rax+0x8]
   140005837:	4c 0b 10             	or     r10,QWORD PTR [rax]
   14000583a:	41 ff c1             	inc    r9d
   14000583d:	4c 3b d2             	cmp    r10,rdx
   140005840:	72 ed                	jb     0x14000582f
   140005842:	49 63 c1             	movsxd rax,r9d
   140005845:	4c 8b 44 c4 18       	mov    r8,QWORD PTR [rsp+rax*8+0x18]
   14000584a:	45 33 db             	xor    r11d,r11d
   14000584d:	48 b8 00 00 00 00 00 	movabs rax,0x400000000000
   140005854:	40 00 00 
   140005857:	eb 08                	jmp    0x140005861
   140005859:	41 83 c3 06          	add    r11d,0x6
   14000585d:	49 c1 e2 06          	shl    r10,0x6
   140005861:	4c 3b d0             	cmp    r10,rax
   140005864:	72 f3                	jb     0x140005859
   140005866:	eb 06                	jmp    0x14000586e
   140005868:	41 ff c3             	inc    r11d
   14000586b:	4d 03 d2             	add    r10,r10
   14000586e:	4d 3b d5             	cmp    r10,r13
   140005871:	72 f5                	jb     0x140005868
   140005873:	43 8d 04 c9          	lea    eax,[r9+r9*8]
   140005877:	41 2b f3             	sub    esi,r11d
   14000587a:	c1 e0 02             	shl    eax,0x2
   14000587d:	40 8a ce             	mov    cl,sil
   140005880:	2b d8                	sub    ebx,eax
   140005882:	49 d3 e8             	shr    r8,cl
   140005885:	41 2b db             	sub    ebx,r11d
   140005888:	4d 0b c2             	or     r8,r10
   14000588b:	83 c3 34             	add    ebx,0x34
   14000588e:	48 b8 ff ff ff ff ff 	movabs rax,0xfffffffffffff
   140005895:	ff 0f 00 
   140005898:	4c 23 c0             	and    r8,rax
   14000589b:	48 63 d3             	movsxd rdx,ebx
   14000589e:	48 81 c2 ff 03 00 00 	add    rdx,0x3ff
   1400058a5:	48 b9 00 00 00 00 00 	movabs rcx,0x8000000000000000
   1400058ac:	00 00 80 
   1400058af:	48 c1 e2 34          	shl    rdx,0x34
   1400058b3:	49 0b d0             	or     rdx,r8
   1400058b6:	48 8b c2             	mov    rax,rdx
   1400058b9:	48 0b c1             	or     rax,rcx
   1400058bc:	85 ed                	test   ebp,ebp
   1400058be:	48 0f 44 c2          	cmove  rax,rdx
   1400058c2:	48 89 04 24          	mov    QWORD PTR [rsp],rax
   1400058c6:	f2 0f 10 04 24       	movsd  xmm0,QWORD PTR [rsp]
   1400058cb:	f2 0f 59 05 bd 59 00 	mulsd  xmm0,QWORD PTR [rip+0x59bd]        # 0x14000b290
   1400058d2:	00 
   1400058d3:	f2 41 0f 11 06       	movsd  QWORD PTR [r14],xmm0
   1400058d8:	48 8b 4c 24 60       	mov    rcx,QWORD PTR [rsp+0x60]
   1400058dd:	48 33 cc             	xor    rcx,rsp
   1400058e0:	e8 3b 14 00 00       	call   0x140006d20
   1400058e5:	4c 8d 5c 24 70       	lea    r11,[rsp+0x70]
   1400058ea:	49 8b 5b 30          	mov    rbx,QWORD PTR [r11+0x30]
   1400058ee:	49 8b 6b 48          	mov    rbp,QWORD PTR [r11+0x48]
   1400058f2:	49 8b e3             	mov    rsp,r11
   1400058f5:	41 5e                	pop    r14
   1400058f7:	41 5d                	pop    r13
   1400058f9:	41 5c                	pop    r12
   1400058fb:	5f                   	pop    rdi
   1400058fc:	5e                   	pop    rsi
   1400058fd:	c3                   	ret
   1400058fe:	cc                   	int3
   1400058ff:	cc                   	int3
   140005900:	40 53                	rex push rbx
   140005902:	48 83 ec 60          	sub    rsp,0x60
   140005906:	48 b8 ff ff ff ff ff 	movabs rax,0x7fffffffffffffff
   14000590d:	ff ff 7f 
   140005910:	0f 29 74 24 50       	movaps XMMWORD PTR [rsp+0x50],xmm6
   140005915:	0f 28 f0             	movaps xmm6,xmm0
   140005918:	0f 57 e4             	xorps  xmm4,xmm4
   14000591b:	f3 0f 5a e6          	cvtss2sd xmm4,xmm6
   14000591f:	f2 0f 11 a4 24 80 00 	movsd  QWORD PTR [rsp+0x80],xmm4
   140005926:	00 00 
   140005928:	48 8b 9c 24 80 00 00 	mov    rbx,QWORD PTR [rsp+0x80]
   14000592f:	00 
   140005930:	48 8b cb             	mov    rcx,rbx
   140005933:	48 23 c8             	and    rcx,rax
   140005936:	48 b8 18 2d 44 54 fb 	movabs rax,0x3fe921fb54442d18
   14000593d:	21 e9 3f 
   140005940:	48 3b c8             	cmp    rcx,rax
   140005943:	0f 87 b0 00 00 00    	ja     0x1400059f9
   140005949:	48 b8 00 00 00 00 00 	movabs rax,0x3f80000000000000
   140005950:	00 80 3f 
   140005953:	48 3b c8             	cmp    rcx,rax
   140005956:	73 48                	jae    0x1400059a0
   140005958:	48 b8 00 00 00 00 00 	movabs rax,0x3f20000000000000
   14000595f:	00 20 3f 
   140005962:	48 3b c8             	cmp    rcx,rax
   140005965:	73 1d                	jae    0x140005984
   140005967:	48 85 c9             	test   rcx,rcx
   14000596a:	0f 84 eb 02 00 00    	je     0x140005c5b
   140005970:	b9 10 00 00 00       	mov    ecx,0x10
   140005975:	8b d1                	mov    edx,ecx
   140005977:	e8 74 0a 00 00       	call   0x1400063f0
   14000597c:	0f 28 c6             	movaps xmm0,xmm6
   14000597f:	e9 d7 02 00 00       	jmp    0x140005c5b
   140005984:	0f 28 c4             	movaps xmm0,xmm4
   140005987:	f2 0f 59 c4          	mulsd  xmm0,xmm4
   14000598b:	f2 0f 59 c4          	mulsd  xmm0,xmm4
   14000598f:	f2 0f 59 05 01 5b 00 	mulsd  xmm0,QWORD PTR [rip+0x5b01]        # 0x14000b498
   140005996:	00 
   140005997:	f2 0f 58 c4          	addsd  xmm0,xmm4
   14000599b:	e9 b7 02 00 00       	jmp    0x140005c57
   1400059a0:	f2 0f 10 1d f8 5a 00 	movsd  xmm3,QWORD PTR [rip+0x5af8]        # 0x14000b4a0
   1400059a7:	00 
   1400059a8:	0f 28 d4             	movaps xmm2,xmm4
   1400059ab:	f2 0f 59 d4          	mulsd  xmm2,xmm4
   1400059af:	0f 28 c2             	movaps xmm0,xmm2
   1400059b2:	0f 28 ca             	movaps xmm1,xmm2
   1400059b5:	f2 0f 59 05 cb 5a 00 	mulsd  xmm0,QWORD PTR [rip+0x5acb]        # 0x14000b488
   1400059bc:	00 
   1400059bd:	f2 0f 59 cc          	mulsd  xmm1,xmm4
   1400059c1:	f2 0f 5c d8          	subsd  xmm3,xmm0
   1400059c5:	0f 28 c2             	movaps xmm0,xmm2
   1400059c8:	f2 0f 59 05 c0 5a 00 	mulsd  xmm0,QWORD PTR [rip+0x5ac0]        # 0x14000b490
   1400059cf:	00 
   1400059d0:	f2 0f 59 d9          	mulsd  xmm3,xmm1
   1400059d4:	f2 0f 5c 05 cc 5a 00 	subsd  xmm0,QWORD PTR [rip+0x5acc]        # 0x14000b4a8
   1400059db:	00 
   1400059dc:	f2 0f 59 c2          	mulsd  xmm0,xmm2
   1400059e0:	f2 0f 58 05 c8 5a 00 	addsd  xmm0,QWORD PTR [rip+0x5ac8]        # 0x14000b4b0
   1400059e7:	00 
   1400059e8:	f2 0f 5e d8          	divsd  xmm3,xmm0
   1400059ec:	f2 0f 58 dc          	addsd  xmm3,xmm4
   1400059f0:	66 0f 5a c3          	cvtpd2ps xmm0,xmm3
   1400059f4:	e9 62 02 00 00       	jmp    0x140005c5b
   1400059f9:	48 ba 00 00 00 00 00 	movabs rdx,0x7ff0000000000000
   140005a00:	00 f0 7f 
   140005a03:	48 8b c3             	mov    rax,rbx
   140005a06:	48 23 c2             	and    rax,rdx
   140005a09:	48 3b c2             	cmp    rax,rdx
   140005a0c:	75 6d                	jne    0x140005a7b
   140005a0e:	c7 44 24 40 01 00 00 	mov    DWORD PTR [rsp+0x40],0x1
   140005a15:	00 
   140005a16:	48 8d 0d 63 5a 00 00 	lea    rcx,[rip+0x5a63]        # 0x14000b480
   140005a1d:	ba 20 00 00 00       	mov    edx,0x20
   140005a22:	0f 57 c0             	xorps  xmm0,xmm0
   140005a25:	f3 0f 11 44 24 38    	movss  DWORD PTR [rsp+0x38],xmm0
   140005a2b:	48 b8 ff ff ff ff ff 	movabs rax,0xfffffffffffff
   140005a32:	ff 0f 00 
   140005a35:	f3 0f 11 74 24 30    	movss  DWORD PTR [rsp+0x30],xmm6
   140005a3b:	c7 44 24 28 21 00 00 	mov    DWORD PTR [rsp+0x28],0x21
   140005a42:	00 
   140005a43:	44 8d 4a e1          	lea    r9d,[rdx-0x1f]
   140005a47:	48 85 d8             	test   rax,rbx
   140005a4a:	74 1f                	je     0x140005a6b
   140005a4c:	f3 0f 11 74 24 70    	movss  DWORD PTR [rsp+0x70],xmm6
   140005a52:	44 8b 44 24 70       	mov    r8d,DWORD PTR [rsp+0x70]
   140005a57:	49 0f ba e8 16       	bts    r8,0x16
   140005a5c:	83 64 24 20 00       	and    DWORD PTR [rsp+0x20],0x0
   140005a61:	e8 ea 0b 00 00       	call   0x140006650
   140005a66:	e9 f0 01 00 00       	jmp    0x140005c5b
   140005a6b:	c7 44 24 20 08 00 00 	mov    DWORD PTR [rsp+0x20],0x8
   140005a72:	00 
   140005a73:	41 b8 00 00 c0 ff    	mov    r8d,0xffc00000
   140005a79:	eb e6                	jmp    0x140005a61
   140005a7b:	f2 0f 10 2d ed 59 00 	movsd  xmm5,QWORD PTR [rip+0x59ed]        # 0x14000b470
   140005a82:	00 
   140005a83:	48 c1 eb 3f          	shr    rbx,0x3f
   140005a87:	85 db                	test   ebx,ebx
   140005a89:	74 03                	je     0x140005a8e
   140005a8b:	0f 57 e5             	xorps  xmm4,xmm5
   140005a8e:	f2 0f 10 05 ca 59 00 	movsd  xmm0,QWORD PTR [rip+0x59ca]        # 0x14000b460
   140005a95:	00 
   140005a96:	66 0f 2f c4          	comisd xmm0,xmm4
   140005a9a:	0f 86 0f 01 00 00    	jbe    0x140005baf
   140005aa0:	4c 8b c1             	mov    r8,rcx
   140005aa3:	48 b8 5e 38 55 29 7a 	movabs rax,0x400f6a7a2955385e
   140005aaa:	6a 0f 40 
   140005aad:	49 c1 e8 34          	shr    r8,0x34
   140005ab1:	48 3b c8             	cmp    rcx,rax
   140005ab4:	77 16                	ja     0x140005acc
   140005ab6:	33 d2                	xor    edx,edx
   140005ab8:	48 b8 d2 21 33 7f 7c 	movabs rax,0x4002d97c7f3321d2
   140005abf:	d9 02 40 
   140005ac2:	48 3b c8             	cmp    rcx,rax
   140005ac5:	0f 97 c2             	seta   dl
   140005ac8:	ff c2                	inc    edx
   140005aca:	eb 3d                	jmp    0x140005b09
   140005acc:	48 b8 bb b2 cc be 3a 	movabs rax,0x401c463abeccb2bb
   140005ad3:	46 1c 40 
   140005ad6:	48 3b c8             	cmp    rcx,rax
   140005ad9:	77 17                	ja     0x140005af2
   140005adb:	33 d2                	xor    edx,edx
   140005add:	48 b8 75 a7 bb e9 bb 	movabs rax,0x4015fdbbe9bba775
   140005ae4:	fd 15 40 
   140005ae7:	48 3b c8             	cmp    rcx,rax
   140005aea:	0f 97 c2             	seta   dl
   140005aed:	83 c2 03             	add    edx,0x3
   140005af0:	eb 17                	jmp    0x140005b09
   140005af2:	0f 28 c4             	movaps xmm0,xmm4
   140005af5:	f2 0f 59 05 53 59 00 	mulsd  xmm0,QWORD PTR [rip+0x5953]        # 0x14000b450
   140005afc:	00 
   140005afd:	f2 0f 58 05 63 57 00 	addsd  xmm0,QWORD PTR [rip+0x5763]        # 0x14000b268
   140005b04:	00 
   140005b05:	f2 0f 2c d0          	cvttsd2si edx,xmm0
   140005b09:	66 0f 6e da          	movd   xmm3,edx
   140005b0d:	f3 0f e6 db          	cvtdq2pd xmm3,xmm3
   140005b11:	0f 28 c3             	movaps xmm0,xmm3
   140005b14:	0f 28 d3             	movaps xmm2,xmm3
   140005b17:	f2 0f 59 05 39 59 00 	mulsd  xmm0,QWORD PTR [rip+0x5939]        # 0x14000b458
   140005b1e:	00 
   140005b1f:	f2 0f 59 15 c9 58 00 	mulsd  xmm2,QWORD PTR [rip+0x58c9]        # 0x14000b3f0
   140005b26:	00 
   140005b27:	f2 0f 5c e0          	subsd  xmm4,xmm0
   140005b2b:	f2 0f 11 a4 24 80 00 	movsd  QWORD PTR [rsp+0x80],xmm4
   140005b32:	00 00 
   140005b34:	48 8b 84 24 80 00 00 	mov    rax,QWORD PTR [rsp+0x80]
   140005b3b:	00 
   140005b3c:	48 c1 e8 34          	shr    rax,0x34
   140005b40:	25 ff 07 00 00       	and    eax,0x7ff
   140005b45:	4c 2b c0             	sub    r8,rax
   140005b48:	49 83 f8 0f          	cmp    r8,0xf
   140005b4c:	76 58                	jbe    0x140005ba6
   140005b4e:	0f 28 cc             	movaps xmm1,xmm4
   140005b51:	0f 28 c3             	movaps xmm0,xmm3
   140005b54:	f2 0f 59 05 8c 58 00 	mulsd  xmm0,QWORD PTR [rip+0x588c]        # 0x14000b3e8
   140005b5b:	00 
   140005b5c:	0f 28 d3             	movaps xmm2,xmm3
   140005b5f:	f2 0f 59 15 71 58 00 	mulsd  xmm2,QWORD PTR [rip+0x5871]        # 0x14000b3d8
   140005b66:	00 
   140005b67:	f2 0f 5c e0          	subsd  xmm4,xmm0
   140005b6b:	f2 0f 5c cc          	subsd  xmm1,xmm4
   140005b6f:	f2 0f 5c c8          	subsd  xmm1,xmm0
   140005b73:	f2 0f 5c d1          	subsd  xmm2,xmm1
   140005b77:	49 83 f8 30          	cmp    r8,0x30
   140005b7b:	76 29                	jbe    0x140005ba6
   140005b7d:	0f 28 cc             	movaps xmm1,xmm4
   140005b80:	0f 28 c3             	movaps xmm0,xmm3
   140005b83:	f2 0f 59 05 45 58 00 	mulsd  xmm0,QWORD PTR [rip+0x5845]        # 0x14000b3d0
   140005b8a:	00 
   140005b8b:	0f 28 d3             	movaps xmm2,xmm3
   140005b8e:	f2 0f 59 15 32 58 00 	mulsd  xmm2,QWORD PTR [rip+0x5832]        # 0x14000b3c8
   140005b95:	00 
   140005b96:	f2 0f 5c e0          	subsd  xmm4,xmm0
   140005b9a:	f2 0f 5c cc          	subsd  xmm1,xmm4
   140005b9e:	f2 0f 5c c8          	subsd  xmm1,xmm0
   140005ba2:	f2 0f 5c d1          	subsd  xmm2,xmm1
   140005ba6:	f2 0f 5c e2          	subsd  xmm4,xmm2
   140005baa:	83 e2 03             	and    edx,0x3
   140005bad:	eb 1f                	jmp    0x140005bce
   140005baf:	4c 8d 44 24 78       	lea    r8,[rsp+0x78]
   140005bb4:	48 8d 94 24 88 00 00 	lea    rdx,[rsp+0x88]
   140005bbb:	00 
   140005bbc:	e8 df fa ff ff       	call   0x1400056a0
   140005bc1:	8b 54 24 78          	mov    edx,DWORD PTR [rsp+0x78]
   140005bc5:	f2 0f 10 a4 24 88 00 	movsd  xmm4,QWORD PTR [rsp+0x88]
   140005bcc:	00 00 
   140005bce:	f2 0f 10 1d ca 58 00 	movsd  xmm3,QWORD PTR [rip+0x58ca]        # 0x14000b4a0
   140005bd5:	00 
   140005bd6:	0f 28 d4             	movaps xmm2,xmm4
   140005bd9:	f2 0f 59 d4          	mulsd  xmm2,xmm4
   140005bdd:	0f 28 c2             	movaps xmm0,xmm2
   140005be0:	0f 28 ca             	movaps xmm1,xmm2
   140005be3:	f2 0f 59 05 9d 58 00 	mulsd  xmm0,QWORD PTR [rip+0x589d]        # 0x14000b488
   140005bea:	00 
   140005beb:	f2 0f 59 cc          	mulsd  xmm1,xmm4
   140005bef:	f2 0f 5c d8          	subsd  xmm3,xmm0
   140005bf3:	0f 28 c2             	movaps xmm0,xmm2
   140005bf6:	f2 0f 59 05 92 58 00 	mulsd  xmm0,QWORD PTR [rip+0x5892]        # 0x14000b490
   140005bfd:	00 
   140005bfe:	f2 0f 59 d9          	mulsd  xmm3,xmm1
   140005c02:	f2 0f 5c 05 9e 58 00 	subsd  xmm0,QWORD PTR [rip+0x589e]        # 0x14000b4a8
   140005c09:	00 
   140005c0a:	f2 0f 59 c2          	mulsd  xmm0,xmm2
   140005c0e:	f2 0f 58 05 9a 58 00 	addsd  xmm0,QWORD PTR [rip+0x589a]        # 0x14000b4b0
   140005c15:	00 
   140005c16:	f2 0f 5e d8          	divsd  xmm3,xmm0
   140005c1a:	f2 0f 58 dc          	addsd  xmm3,xmm4
   140005c1e:	85 db                	test   ebx,ebx
   140005c20:	74 1f                	je     0x140005c41
   140005c22:	f6 c2 01             	test   dl,0x1
   140005c25:	74 0e                	je     0x140005c35
   140005c27:	f2 0f 10 05 89 58 00 	movsd  xmm0,QWORD PTR [rip+0x5889]        # 0x14000b4b8
   140005c2e:	00 
   140005c2f:	f2 0f 5e c3          	divsd  xmm0,xmm3
   140005c33:	eb 03                	jmp    0x140005c38
   140005c35:	0f 28 c3             	movaps xmm0,xmm3
   140005c38:	0f 57 c5             	xorps  xmm0,xmm5
   140005c3b:	f2 0f 5a c0          	cvtsd2ss xmm0,xmm0
   140005c3f:	eb 1a                	jmp    0x140005c5b
   140005c41:	f6 c2 01             	test   dl,0x1
   140005c44:	74 0e                	je     0x140005c54
   140005c46:	f2 0f 10 05 6a 58 00 	movsd  xmm0,QWORD PTR [rip+0x586a]        # 0x14000b4b8
   140005c4d:	00 
   140005c4e:	f2 0f 5e c3          	divsd  xmm0,xmm3
   140005c52:	eb 03                	jmp    0x140005c57
   140005c54:	0f 28 c3             	movaps xmm0,xmm3
   140005c57:	66 0f 5a c0          	cvtpd2ps xmm0,xmm0
   140005c5b:	0f 28 74 24 50       	movaps xmm6,XMMWORD PTR [rsp+0x50]
   140005c60:	48 83 c4 60          	add    rsp,0x60
   140005c64:	5b                   	pop    rbx
   140005c65:	c3                   	ret
   140005c66:	cc                   	int3
   140005c67:	cc                   	int3
   140005c68:	cc                   	int3
   140005c69:	cc                   	int3
   140005c6a:	cc                   	int3
   140005c6b:	cc                   	int3
   140005c6c:	cc                   	int3
   140005c6d:	cc                   	int3
   140005c6e:	cc                   	int3
   140005c6f:	cc                   	int3
   140005c70:	48 8b c4             	mov    rax,rsp
   140005c73:	55                   	push   rbp
   140005c74:	53                   	push   rbx
   140005c75:	56                   	push   rsi
   140005c76:	57                   	push   rdi
   140005c77:	41 54                	push   r12
   140005c79:	41 55                	push   r13
   140005c7b:	41 56                	push   r14
   140005c7d:	48 8d a8 d8 f0 ff ff 	lea    rbp,[rax-0xf28]
   140005c84:	48 81 ec f0 0f 00 00 	sub    rsp,0xff0
   140005c8b:	0f 29 70 b8          	movaps XMMWORD PTR [rax-0x48],xmm6
   140005c8f:	0f 29 78 a8          	movaps XMMWORD PTR [rax-0x58],xmm7
   140005c93:	44 0f 29 40 98       	movaps XMMWORD PTR [rax-0x68],xmm8
   140005c98:	48 8b 05 d1 68 00 00 	mov    rax,QWORD PTR [rip+0x68d1]        # 0x14000c570
   140005c9f:	48 33 c4             	xor    rax,rsp
   140005ca2:	48 89 85 b0 0e 00 00 	mov    QWORD PTR [rbp+0xeb0],rax
   140005ca9:	48 8b f2             	mov    rsi,rdx
   140005cac:	f2 0f 11 04 24       	movsd  QWORD PTR [rsp],xmm0
   140005cb1:	4c 8b 14 24          	mov    r10,QWORD PTR [rsp]
   140005cb5:	48 8d 3d a4 64 00 00 	lea    rdi,[rip+0x64a4]        # 0x14000c160
   140005cbc:	48 83 65 a8 00       	and    QWORD PTR [rbp-0x58],0x0
   140005cc1:	41 bc ff 03 00 00    	mov    r12d,0x3ff
   140005cc7:	4d 8b da             	mov    r11,r10
   140005cca:	48 b8 00 00 00 00 00 	movabs rax,0x10000000000000
   140005cd1:	00 10 00 
   140005cd4:	49 c1 eb 34          	shr    r11,0x34
   140005cd8:	49 bd ff ff ff ff ff 	movabs r13,0xfffffffffffff
   140005cdf:	ff 0f 00 
   140005ce2:	41 81 e3 ff 07 00 00 	and    r11d,0x7ff
   140005ce9:	4d 23 d5             	and    r10,r13
   140005cec:	4c 0b d0             	or     r10,rax
   140005cef:	45 2b dc             	sub    r11d,r12d
   140005cf2:	b8 67 66 66 66       	mov    eax,0x66666667
   140005cf7:	4d 8b f0             	mov    r14,r8
   140005cfa:	41 f7 eb             	imul   r11d
   140005cfd:	49 8b d9             	mov    rbx,r9
   140005d00:	c1 fa 02             	sar    edx,0x2
   140005d03:	8b c2                	mov    eax,edx
   140005d05:	c1 e8 1f             	shr    eax,0x1f
   140005d08:	03 d0                	add    edx,eax
   140005d0a:	4c 63 c2             	movsxd r8,edx
   140005d0d:	8d 04 92             	lea    eax,[rdx+rdx*4]
   140005d10:	03 c0                	add    eax,eax
   140005d12:	44 2b d8             	sub    r11d,eax
   140005d15:	48 63 c2             	movsxd rax,edx
   140005d18:	4a 8b 94 c7 88 00 00 	mov    rdx,QWORD PTR [rdi+r8*8+0x88]
   140005d1f:	00 
   140005d20:	49 0f af d2          	imul   rdx,r10
   140005d24:	48 8b 8c c7 90 00 00 	mov    rcx,QWORD PTR [rdi+rax*8+0x90]
   140005d2b:	00 
   140005d2c:	49 0f af ca          	imul   rcx,r10
   140005d30:	48 8b c1             	mov    rax,rcx
   140005d33:	48 c1 e9 0a          	shr    rcx,0xa
   140005d37:	48 03 d1             	add    rdx,rcx
   140005d3a:	49 23 c4             	and    rax,r12
   140005d3d:	4a 8b 8c c7 80 00 00 	mov    rcx,QWORD PTR [rdi+r8*8+0x80]
   140005d44:	00 
   140005d45:	48 89 45 a0          	mov    QWORD PTR [rbp-0x60],rax
   140005d49:	48 8b c2             	mov    rax,rdx
   140005d4c:	48 c1 ea 0a          	shr    rdx,0xa
   140005d50:	49 23 c4             	and    rax,r12
   140005d53:	48 89 45 98          	mov    QWORD PTR [rbp-0x68],rax
   140005d57:	49 0f af ca          	imul   rcx,r10
   140005d5b:	48 03 ca             	add    rcx,rdx
   140005d5e:	4a 8b 54 c7 78       	mov    rdx,QWORD PTR [rdi+r8*8+0x78]
   140005d63:	49 0f af d2          	imul   rdx,r10
   140005d67:	48 8b c1             	mov    rax,rcx
   140005d6a:	48 c1 e9 0a          	shr    rcx,0xa
   140005d6e:	48 03 d1             	add    rdx,rcx
   140005d71:	49 23 c4             	and    rax,r12
   140005d74:	4a 8b 4c c7 70       	mov    rcx,QWORD PTR [rdi+r8*8+0x70]
   140005d79:	48 89 45 90          	mov    QWORD PTR [rbp-0x70],rax
   140005d7d:	48 8b c2             	mov    rax,rdx
   140005d80:	48 c1 ea 0a          	shr    rdx,0xa
   140005d84:	49 23 c4             	and    rax,r12
   140005d87:	48 89 45 88          	mov    QWORD PTR [rbp-0x78],rax
   140005d8b:	49 0f af ca          	imul   rcx,r10
   140005d8f:	48 03 ca             	add    rcx,rdx
   140005d92:	4a 8b 54 c7 68       	mov    rdx,QWORD PTR [rdi+r8*8+0x68]
   140005d97:	49 0f af d2          	imul   rdx,r10
   140005d9b:	48 8b c1             	mov    rax,rcx
   140005d9e:	48 c1 e9 0a          	shr    rcx,0xa
   140005da2:	48 03 d1             	add    rdx,rcx
   140005da5:	49 23 c4             	and    rax,r12
   140005da8:	4a 8b 4c c7 60       	mov    rcx,QWORD PTR [rdi+r8*8+0x60]
   140005dad:	48 89 45 80          	mov    QWORD PTR [rbp-0x80],rax
   140005db1:	48 8b c2             	mov    rax,rdx
   140005db4:	48 c1 ea 0a          	shr    rdx,0xa
   140005db8:	49 23 c4             	and    rax,r12
   140005dbb:	48 89 44 24 78       	mov    QWORD PTR [rsp+0x78],rax
   140005dc0:	49 0f af ca          	imul   rcx,r10
   140005dc4:	48 03 ca             	add    rcx,rdx
   140005dc7:	4a 8b 54 c7 58       	mov    rdx,QWORD PTR [rdi+r8*8+0x58]
   140005dcc:	49 0f af d2          	imul   rdx,r10
   140005dd0:	48 8b c1             	mov    rax,rcx
   140005dd3:	48 c1 e9 0a          	shr    rcx,0xa
   140005dd7:	49 23 c4             	and    rax,r12
   140005dda:	48 03 d1             	add    rdx,rcx
   140005ddd:	48 89 44 24 70       	mov    QWORD PTR [rsp+0x70],rax
   140005de2:	48 8b c2             	mov    rax,rdx
   140005de5:	49 23 c4             	and    rax,r12
   140005de8:	48 89 44 24 68       	mov    QWORD PTR [rsp+0x68],rax
   140005ded:	4a 8b 4c c7 50       	mov    rcx,QWORD PTR [rdi+r8*8+0x50]
   140005df2:	49 0f af ca          	imul   rcx,r10
   140005df6:	48 c1 ea 0a          	shr    rdx,0xa
   140005dfa:	48 03 ca             	add    rcx,rdx
   140005dfd:	4a 8b 54 c7 48       	mov    rdx,QWORD PTR [rdi+r8*8+0x48]
   140005e02:	48 8b c1             	mov    rax,rcx
   140005e05:	48 c1 e9 0a          	shr    rcx,0xa
   140005e09:	49 23 c4             	and    rax,r12
   140005e0c:	48 89 44 24 60       	mov    QWORD PTR [rsp+0x60],rax
   140005e11:	49 0f af d2          	imul   rdx,r10
   140005e15:	48 03 d1             	add    rdx,rcx
   140005e18:	4a 8b 4c c7 40       	mov    rcx,QWORD PTR [rdi+r8*8+0x40]
   140005e1d:	49 0f af ca          	imul   rcx,r10
   140005e21:	48 8b c2             	mov    rax,rdx
   140005e24:	48 c1 ea 0a          	shr    rdx,0xa
   140005e28:	48 03 ca             	add    rcx,rdx
   140005e2b:	49 23 c4             	and    rax,r12
   140005e2e:	4a 8b 54 c7 38       	mov    rdx,QWORD PTR [rdi+r8*8+0x38]
   140005e33:	48 89 44 24 58       	mov    QWORD PTR [rsp+0x58],rax
   140005e38:	48 8b c1             	mov    rax,rcx
   140005e3b:	49 23 c4             	and    rax,r12
   140005e3e:	48 c1 e9 0a          	shr    rcx,0xa
   140005e42:	48 89 44 24 50       	mov    QWORD PTR [rsp+0x50],rax
   140005e47:	49 0f af d2          	imul   rdx,r10
   140005e4b:	48 03 d1             	add    rdx,rcx
   140005e4e:	4a 8b 4c c7 30       	mov    rcx,QWORD PTR [rdi+r8*8+0x30]
   140005e53:	49 0f af ca          	imul   rcx,r10
   140005e57:	48 8b c2             	mov    rax,rdx
   140005e5a:	48 c1 ea 0a          	shr    rdx,0xa
   140005e5e:	48 03 ca             	add    rcx,rdx
   140005e61:	49 23 c4             	and    rax,r12
   140005e64:	4a 8b 54 c7 28       	mov    rdx,QWORD PTR [rdi+r8*8+0x28]
   140005e69:	48 89 44 24 48       	mov    QWORD PTR [rsp+0x48],rax
   140005e6e:	48 8b c1             	mov    rax,rcx
   140005e71:	49 23 c4             	and    rax,r12
   140005e74:	48 c1 e9 0a          	shr    rcx,0xa
   140005e78:	48 89 44 24 40       	mov    QWORD PTR [rsp+0x40],rax
   140005e7d:	49 0f af d2          	imul   rdx,r10
   140005e81:	48 03 d1             	add    rdx,rcx
   140005e84:	4a 8b 4c c7 20       	mov    rcx,QWORD PTR [rdi+r8*8+0x20]
   140005e89:	49 0f af ca          	imul   rcx,r10
   140005e8d:	48 8b c2             	mov    rax,rdx
   140005e90:	48 c1 ea 0a          	shr    rdx,0xa
   140005e94:	49 23 c4             	and    rax,r12
   140005e97:	48 03 ca             	add    rcx,rdx
   140005e9a:	4a 8b 54 c7 18       	mov    rdx,QWORD PTR [rdi+r8*8+0x18]
   140005e9f:	48 89 44 24 38       	mov    QWORD PTR [rsp+0x38],rax
   140005ea4:	48 8b c1             	mov    rax,rcx
   140005ea7:	49 23 c4             	and    rax,r12
   140005eaa:	48 c1 e9 0a          	shr    rcx,0xa
   140005eae:	48 89 44 24 30       	mov    QWORD PTR [rsp+0x30],rax
   140005eb3:	49 0f af d2          	imul   rdx,r10
   140005eb7:	48 03 d1             	add    rdx,rcx
   140005eba:	4a 8b 4c c7 10       	mov    rcx,QWORD PTR [rdi+r8*8+0x10]
   140005ebf:	49 0f af ca          	imul   rcx,r10
   140005ec3:	48 8b c2             	mov    rax,rdx
   140005ec6:	48 c1 ea 0a          	shr    rdx,0xa
   140005eca:	49 23 c4             	and    rax,r12
   140005ecd:	48 03 ca             	add    rcx,rdx
   140005ed0:	48 89 44 24 28       	mov    QWORD PTR [rsp+0x28],rax
   140005ed5:	48 8b c1             	mov    rax,rcx
   140005ed8:	49 23 c4             	and    rax,r12
   140005edb:	48 c1 e9 0a          	shr    rcx,0xa
   140005edf:	48 89 44 24 20       	mov    QWORD PTR [rsp+0x20],rax
   140005ee4:	4a 8b 44 c7 08       	mov    rax,QWORD PTR [rdi+r8*8+0x8]
   140005ee9:	4e 8b 04 c7          	mov    r8,QWORD PTR [rdi+r8*8]
   140005eed:	49 0f af c2          	imul   rax,r10
   140005ef1:	4d 0f af c2          	imul   r8,r10
   140005ef5:	48 03 c1             	add    rax,rcx
   140005ef8:	4c 8b c8             	mov    r9,rax
   140005efb:	48 c1 e8 0a          	shr    rax,0xa
   140005eff:	4d 23 cc             	and    r9,r12
   140005f02:	4c 89 4c 24 18       	mov    QWORD PTR [rsp+0x18],r9
   140005f07:	4c 03 c0             	add    r8,rax
   140005f0a:	b8 0a 00 00 00       	mov    eax,0xa
   140005f0f:	4d 23 c4             	and    r8,r12
   140005f12:	41 2b c3             	sub    eax,r11d
   140005f15:	4c 89 44 24 10       	mov    QWORD PTR [rsp+0x10],r8
   140005f1a:	49 c1 e0 0a          	shl    r8,0xa
   140005f1e:	4d 0b c1             	or     r8,r9
   140005f21:	8d 48 ff             	lea    ecx,[rax-0x1]
   140005f24:	49 d3 e8             	shr    r8,cl
   140005f27:	ba 01 00 00 00       	mov    edx,0x1
   140005f2c:	8b c8                	mov    ecx,eax
   140005f2e:	41 83 e0 07          	and    r8d,0x7
   140005f32:	41 8b f8             	mov    edi,r8d
   140005f35:	8b c2                	mov    eax,edx
   140005f37:	48 d3 e0             	shl    rax,cl
   140005f3a:	49 ba 00 00 00 00 00 	movabs r10,0x20000000000000
   140005f41:	00 20 00 
   140005f44:	41 d1 e8             	shr    r8d,1
   140005f47:	48 8d 48 ff          	lea    rcx,[rax-0x1]
   140005f4b:	23 fa                	and    edi,edx
   140005f4d:	74 47                	je     0x140005f96
   140005f4f:	41 8d 40 01          	lea    eax,[r8+0x1]
   140005f53:	49 f7 d1             	not    r9
   140005f56:	83 e0 03             	and    eax,0x3
   140005f59:	4c 23 c9             	and    r9,rcx
   140005f5c:	89 03                	mov    DWORD PTR [rbx],eax
   140005f5e:	4d 3b ca             	cmp    r9,r10
   140005f61:	73 26                	jae    0x140005f89
   140005f63:	4c 8d 44 24 18       	lea    r8,[rsp+0x18]
   140005f68:	49 8b c1             	mov    rax,r9
   140005f6b:	4d 8d 40 08          	lea    r8,[r8+0x8]
   140005f6f:	49 8b 08             	mov    rcx,QWORD PTR [r8]
   140005f72:	ff c2                	inc    edx
   140005f74:	48 c1 e0 0a          	shl    rax,0xa
   140005f78:	48 f7 d1             	not    rcx
   140005f7b:	49 23 cc             	and    rcx,r12
   140005f7e:	4c 8b c9             	mov    r9,rcx
   140005f81:	4c 0b c8             	or     r9,rax
   140005f84:	4d 3b ca             	cmp    r9,r10
   140005f87:	72 df                	jb     0x140005f68
   140005f89:	48 63 c2             	movsxd rax,edx
   140005f8c:	4c 8b 44 c4 18       	mov    r8,QWORD PTR [rsp+rax*8+0x18]
   140005f91:	49 f7 d0             	not    r8
   140005f94:	eb 25                	jmp    0x140005fbb
   140005f96:	44 89 03             	mov    DWORD PTR [rbx],r8d
   140005f99:	48 8d 44 24 18       	lea    rax,[rsp+0x18]
   140005f9e:	4c 23 c9             	and    r9,rcx
   140005fa1:	49 c1 e1 0a          	shl    r9,0xa
   140005fa5:	48 8d 40 08          	lea    rax,[rax+0x8]
   140005fa9:	4c 0b 08             	or     r9,QWORD PTR [rax]
   140005fac:	ff c2                	inc    edx
   140005fae:	4d 3b ca             	cmp    r9,r10
   140005fb1:	72 ee                	jb     0x140005fa1
   140005fb3:	48 63 c2             	movsxd rax,edx
   140005fb6:	4c 8b 44 c4 18       	mov    r8,QWORD PTR [rsp+rax*8+0x18]
   140005fbb:	8d 04 92             	lea    eax,[rdx+rdx*4]
   140005fbe:	49 c1 e0 36          	shl    r8,0x36
   140005fc2:	03 c0                	add    eax,eax
   140005fc4:	44 2b d8             	sub    r11d,eax
   140005fc7:	41 83 c3 34          	add    r11d,0x34
   140005fcb:	eb 19                	jmp    0x140005fe6
   140005fcd:	49 8b c0             	mov    rax,r8
   140005fd0:	49 8b c9             	mov    rcx,r9
   140005fd3:	48 c1 e1 3f          	shl    rcx,0x3f
   140005fd7:	41 ff c3             	inc    r11d
   140005fda:	48 d1 e8             	shr    rax,1
   140005fdd:	4c 8b c1             	mov    r8,rcx
   140005fe0:	4c 0b c0             	or     r8,rax
   140005fe3:	49 d1 e9             	shr    r9,1
   140005fe6:	4d 3b ca             	cmp    r9,r10
   140005fe9:	73 e2                	jae    0x140005fcd
   140005feb:	4d 23 cd             	and    r9,r13
   140005fee:	49 63 d3             	movsxd rdx,r11d
   140005ff1:	48 c1 e2 34          	shl    rdx,0x34
   140005ff5:	48 b9 00 00 00 00 00 	movabs rcx,0x3ff0000000000000
   140005ffc:	00 f0 3f 
   140005fff:	48 03 ca             	add    rcx,rdx
   140006002:	49 0b c9             	or     rcx,r9
   140006005:	49 b9 00 00 00 00 00 	movabs r9,0x8000000000000000
   14000600c:	00 00 80 
   14000600f:	48 8b c1             	mov    rax,rcx
   140006012:	49 0b c1             	or     rax,r9
   140006015:	85 ff                	test   edi,edi
   140006017:	48 0f 44 c1          	cmove  rax,rcx
   14000601b:	49 c1 e8 0c          	shr    r8,0xc
   14000601f:	48 89 04 24          	mov    QWORD PTR [rsp],rax
   140006023:	48 b8 00 00 00 00 00 	movabs rax,0x3ca0000000000000
   14000602a:	00 a0 3c 
   14000602d:	f2 44 0f 10 04 24    	movsd  xmm8,QWORD PTR [rsp]
   140006033:	48 03 c2             	add    rax,rdx
   140006036:	48 89 04 24          	mov    QWORD PTR [rsp],rax
   14000603a:	4c 0b c0             	or     r8,rax
   14000603d:	f2 0f 10 04 24       	movsd  xmm0,QWORD PTR [rsp]
   140006042:	4c 89 04 24          	mov    QWORD PTR [rsp],r8
   140006046:	f2 0f 10 3c 24       	movsd  xmm7,QWORD PTR [rsp]
   14000604b:	f2 0f 5c f8          	subsd  xmm7,xmm0
   14000604f:	85 ff                	test   edi,edi
   140006051:	74 0a                	je     0x14000605d
   140006053:	f2 0f 59 3d 7d 54 00 	mulsd  xmm7,QWORD PTR [rip+0x547d]        # 0x14000b4d8
   14000605a:	00 
   14000605b:	eb 0a                	jmp    0x140006067
   14000605d:	0f 28 c7             	movaps xmm0,xmm7
   140006060:	f2 0f 58 c7          	addsd  xmm0,xmm7
   140006064:	0f 28 f8             	movaps xmm7,xmm0
   140006067:	f2 0f 59 3d 21 52 00 	mulsd  xmm7,QWORD PTR [rip+0x5221]        # 0x14000b290
   14000606e:	00 
   14000606f:	41 0f 28 e0          	movaps xmm4,xmm8
   140006073:	f2 44 0f 11 04 24    	movsd  QWORD PTR [rsp],xmm8
   140006079:	41 0f 28 f0          	movaps xmm6,xmm8
   14000607d:	48 8b 04 24          	mov    rax,QWORD PTR [rsp]
   140006081:	f2 0f 59 35 07 52 00 	mulsd  xmm6,QWORD PTR [rip+0x5207]        # 0x14000b290
   140006088:	00 
   140006089:	48 25 00 00 00 f8    	and    rax,0xfffffffff8000000
   14000608f:	48 89 04 24          	mov    QWORD PTR [rsp],rax
   140006093:	f2 0f 10 14 24       	movsd  xmm2,QWORD PTR [rsp]
   140006098:	f2 44 0f 59 05 1f 54 	mulsd  xmm8,QWORD PTR [rip+0x541f]        # 0x14000b4c0
   14000609f:	00 00 
   1400060a1:	f2 0f 5c e2          	subsd  xmm4,xmm2
   1400060a5:	0f 28 ea             	movaps xmm5,xmm2
   1400060a8:	f2 0f 59 15 18 54 00 	mulsd  xmm2,QWORD PTR [rip+0x5418]        # 0x14000b4c8
   1400060af:	00 
   1400060b0:	f2 0f 59 2d 18 54 00 	mulsd  xmm5,QWORD PTR [rip+0x5418]        # 0x14000b4d0
   1400060b7:	00 
   1400060b8:	0f 28 c4             	movaps xmm0,xmm4
   1400060bb:	f2 41 0f 58 f8       	addsd  xmm7,xmm8
   1400060c0:	f2 0f 59 05 08 54 00 	mulsd  xmm0,QWORD PTR [rip+0x5408]        # 0x14000b4d0
   1400060c7:	00 
   1400060c8:	f2 0f 59 25 f8 53 00 	mulsd  xmm4,QWORD PTR [rip+0x53f8]        # 0x14000b4c8
   1400060cf:	00 
   1400060d0:	f2 0f 5c ee          	subsd  xmm5,xmm6
   1400060d4:	f2 0f 58 e8          	addsd  xmm5,xmm0
   1400060d8:	f2 0f 58 ea          	addsd  xmm5,xmm2
   1400060dc:	f2 0f 58 ec          	addsd  xmm5,xmm4
   1400060e0:	f2 0f 58 ef          	addsd  xmm5,xmm7
   1400060e4:	0f 28 c5             	movaps xmm0,xmm5
   1400060e7:	f2 0f 58 c6          	addsd  xmm0,xmm6
   1400060eb:	f2 0f 5c f0          	subsd  xmm6,xmm0
   1400060ef:	f2 0f 11 06          	movsd  QWORD PTR [rsi],xmm0
   1400060f3:	f2 0f 58 f5          	addsd  xmm6,xmm5
   1400060f7:	f2 41 0f 11 36       	movsd  QWORD PTR [r14],xmm6
   1400060fc:	48 8b 8d b0 0e 00 00 	mov    rcx,QWORD PTR [rbp+0xeb0]
   140006103:	48 33 cc             	xor    rcx,rsp
   140006106:	e8 15 0c 00 00       	call   0x140006d20
   14000610b:	4c 8d 9c 24 f0 0f 00 	lea    r11,[rsp+0xff0]
   140006112:	00 
   140006113:	41 0f 28 73 f0       	movaps xmm6,XMMWORD PTR [r11-0x10]
   140006118:	41 0f 28 7b e0       	movaps xmm7,XMMWORD PTR [r11-0x20]
   14000611d:	45 0f 28 43 d0       	movaps xmm8,XMMWORD PTR [r11-0x30]
   140006122:	49 8b e3             	mov    rsp,r11
   140006125:	41 5e                	pop    r14
   140006127:	41 5d                	pop    r13
   140006129:	41 5c                	pop    r12
   14000612b:	5f                   	pop    rdi
   14000612c:	5e                   	pop    rsi
   14000612d:	5b                   	pop    rbx
   14000612e:	5d                   	pop    rbp
   14000612f:	c3                   	ret
   140006130:	48 89 5c 24 10       	mov    QWORD PTR [rsp+0x10],rbx
   140006135:	48 89 74 24 18       	mov    QWORD PTR [rsp+0x18],rsi
   14000613a:	41 54                	push   r12
   14000613c:	41 56                	push   r14
   14000613e:	41 57                	push   r15
   140006140:	48 83 ec 20          	sub    rsp,0x20
   140006144:	44 8b e2             	mov    r12d,edx
   140006147:	8b d9                	mov    ebx,ecx
   140006149:	41 81 e4 1f 03 08 03 	and    r12d,0x308031f
   140006150:	e8 ab 1b 00 00       	call   0x140007d00
   140006155:	44 8b d0             	mov    r10d,eax
   140006158:	44 8b c8             	mov    r9d,eax
   14000615b:	41 c1 e9 03          	shr    r9d,0x3
   14000615f:	41 83 e1 10          	and    r9d,0x10
   140006163:	44 8b c0             	mov    r8d,eax
   140006166:	41 be 00 02 00 00    	mov    r14d,0x200
   14000616c:	41 8b d1             	mov    edx,r9d
   14000616f:	83 ca 08             	or     edx,0x8
   140006172:	45 23 c6             	and    r8d,r14d
   140006175:	41 0f 44 d1          	cmove  edx,r9d
   140006179:	8b ca                	mov    ecx,edx
   14000617b:	83 c9 04             	or     ecx,0x4
   14000617e:	25 00 04 00 00       	and    eax,0x400
   140006183:	0f 44 ca             	cmove  ecx,edx
   140006186:	41 8b c2             	mov    eax,r10d
   140006189:	41 b9 00 08 00 00    	mov    r9d,0x800
   14000618f:	8b d1                	mov    edx,ecx
   140006191:	83 ca 02             	or     edx,0x2
   140006194:	41 23 c1             	and    eax,r9d
   140006197:	0f 44 d1             	cmove  edx,ecx
   14000619a:	41 8b c2             	mov    eax,r10d
   14000619d:	41 bb 00 10 00 00    	mov    r11d,0x1000
   1400061a3:	8b ca                	mov    ecx,edx
   1400061a5:	83 c9 01             	or     ecx,0x1
   1400061a8:	41 23 c3             	and    eax,r11d
   1400061ab:	0f 44 ca             	cmove  ecx,edx
   1400061ae:	41 8b c2             	mov    eax,r10d
   1400061b1:	be 00 01 00 00       	mov    esi,0x100
   1400061b6:	8b d1                	mov    edx,ecx
   1400061b8:	0f ba ea 13          	bts    edx,0x13
   1400061bc:	23 c6                	and    eax,esi
   1400061be:	0f 44 d1             	cmove  edx,ecx
   1400061c1:	41 8b c2             	mov    eax,r10d
   1400061c4:	41 bf 00 60 00 00    	mov    r15d,0x6000
   1400061ca:	41 23 c7             	and    eax,r15d
   1400061cd:	74 22                	je     0x1400061f1
   1400061cf:	3d 00 20 00 00       	cmp    eax,0x2000
   1400061d4:	74 19                	je     0x1400061ef
   1400061d6:	3d 00 40 00 00       	cmp    eax,0x4000
   1400061db:	74 0d                	je     0x1400061ea
   1400061dd:	41 3b c7             	cmp    eax,r15d
   1400061e0:	75 0f                	jne    0x1400061f1
   1400061e2:	81 ca 00 03 00 00    	or     edx,0x300
   1400061e8:	eb 07                	jmp    0x1400061f1
   1400061ea:	41 0b d6             	or     edx,r14d
   1400061ed:	eb 02                	jmp    0x1400061f1
   1400061ef:	0b d6                	or     edx,esi
   1400061f1:	41 81 e2 40 80 00 00 	and    r10d,0x8040
   1400061f8:	41 83 ea 40          	sub    r10d,0x40
   1400061fc:	74 1d                	je     0x14000621b
   1400061fe:	41 81 ea c0 7f 00 00 	sub    r10d,0x7fc0
   140006205:	74 0c                	je     0x140006213
   140006207:	41 83 fa 40          	cmp    r10d,0x40
   14000620b:	75 12                	jne    0x14000621f
   14000620d:	0f ba ea 18          	bts    edx,0x18
   140006211:	eb 0c                	jmp    0x14000621f
   140006213:	81 ca 00 00 00 03    	or     edx,0x3000000
   140006219:	eb 04                	jmp    0x14000621f
   14000621b:	0f ba ea 19          	bts    edx,0x19
   14000621f:	45 8b c4             	mov    r8d,r12d
   140006222:	41 f7 d0             	not    r8d
   140006225:	44 23 c2             	and    r8d,edx
   140006228:	41 23 dc             	and    ebx,r12d
   14000622b:	44 0b c3             	or     r8d,ebx
   14000622e:	44 3b c2             	cmp    r8d,edx
   140006231:	0f 84 a0 01 00 00    	je     0x1400063d7
   140006237:	41 8b c8             	mov    ecx,r8d
   14000623a:	83 e1 10             	and    ecx,0x10
   14000623d:	c1 e1 03             	shl    ecx,0x3
   140006240:	41 8b c0             	mov    eax,r8d
   140006243:	8b d1                	mov    edx,ecx
   140006245:	41 0b d6             	or     edx,r14d
   140006248:	24 08                	and    al,0x8
   14000624a:	0f 44 d1             	cmove  edx,ecx
   14000624d:	41 8b c0             	mov    eax,r8d
   140006250:	8b ca                	mov    ecx,edx
   140006252:	0f ba e9 0a          	bts    ecx,0xa
   140006256:	24 04                	and    al,0x4
   140006258:	0f 44 ca             	cmove  ecx,edx
   14000625b:	41 8b c0             	mov    eax,r8d
   14000625e:	8b d1                	mov    edx,ecx
   140006260:	41 0b d1             	or     edx,r9d
   140006263:	24 02                	and    al,0x2
   140006265:	0f 44 d1             	cmove  edx,ecx
   140006268:	41 8b c0             	mov    eax,r8d
   14000626b:	8b ca                	mov    ecx,edx
   14000626d:	41 0b cb             	or     ecx,r11d
   140006270:	24 01                	and    al,0x1
   140006272:	0f 44 ca             	cmove  ecx,edx
   140006275:	41 8b c0             	mov    eax,r8d
   140006278:	8b d9                	mov    ebx,ecx
   14000627a:	0b de                	or     ebx,esi
   14000627c:	25 00 00 08 00       	and    eax,0x80000
   140006281:	0f 44 d9             	cmove  ebx,ecx
   140006284:	41 8b c0             	mov    eax,r8d
   140006287:	25 00 03 00 00       	and    eax,0x300
   14000628c:	74 23                	je     0x1400062b1
   14000628e:	3b c6                	cmp    eax,esi
   140006290:	74 1b                	je     0x1400062ad
   140006292:	41 3b c6             	cmp    eax,r14d
   140006295:	74 10                	je     0x1400062a7
   140006297:	89 5c 24 40          	mov    DWORD PTR [rsp+0x40],ebx
   14000629b:	3d 00 03 00 00       	cmp    eax,0x300
   1400062a0:	75 13                	jne    0x1400062b5
   1400062a2:	41 0b df             	or     ebx,r15d
   1400062a5:	eb 0a                	jmp    0x1400062b1
   1400062a7:	0f ba eb 0e          	bts    ebx,0xe
   1400062ab:	eb 04                	jmp    0x1400062b1
   1400062ad:	0f ba eb 0d          	bts    ebx,0xd
   1400062b1:	89 5c 24 40          	mov    DWORD PTR [rsp+0x40],ebx
   1400062b5:	41 81 e0 00 00 00 03 	and    r8d,0x3000000
   1400062bc:	41 81 f8 00 00 00 01 	cmp    r8d,0x1000000
   1400062c3:	74 1d                	je     0x1400062e2
   1400062c5:	41 81 f8 00 00 00 02 	cmp    r8d,0x2000000
   1400062cc:	74 0f                	je     0x1400062dd
   1400062ce:	41 81 f8 00 00 00 03 	cmp    r8d,0x3000000
   1400062d5:	75 15                	jne    0x1400062ec
   1400062d7:	0f ba eb 0f          	bts    ebx,0xf
   1400062db:	eb 0b                	jmp    0x1400062e8
   1400062dd:	83 cb 40             	or     ebx,0x40
   1400062e0:	eb 06                	jmp    0x1400062e8
   1400062e2:	81 cb 40 80 00 00    	or     ebx,0x8040
   1400062e8:	89 5c 24 40          	mov    DWORD PTR [rsp+0x40],ebx
   1400062ec:	80 3d 5d 62 00 00 00 	cmp    BYTE PTR [rip+0x625d],0x0        # 0x14000c550
   1400062f3:	74 36                	je     0x14000632b
   1400062f5:	f6 c3 40             	test   bl,0x40
   1400062f8:	74 31                	je     0x14000632b
   1400062fa:	8b cb                	mov    ecx,ebx
   1400062fc:	e8 8f 05 00 00       	call   0x140006890
   140006301:	eb 32                	jmp    0x140006335
   140006303:	c6 05 46 62 00 00 00 	mov    BYTE PTR [rip+0x6246],0x0        # 0x14000c550
   14000630a:	8b 5c 24 40          	mov    ebx,DWORD PTR [rsp+0x40]
   14000630e:	83 e3 bf             	and    ebx,0xffffffbf
   140006311:	8b cb                	mov    ecx,ebx
   140006313:	e8 78 05 00 00       	call   0x140006890
   140006318:	be 00 01 00 00       	mov    esi,0x100
   14000631d:	41 be 00 02 00 00    	mov    r14d,0x200
   140006323:	41 bf 00 60 00 00    	mov    r15d,0x6000
   140006329:	eb 0a                	jmp    0x140006335
   14000632b:	83 e3 bf             	and    ebx,0xffffffbf
   14000632e:	8b cb                	mov    ecx,ebx
   140006330:	e8 5b 05 00 00       	call   0x140006890
   140006335:	8b cb                	mov    ecx,ebx
   140006337:	c1 e9 03             	shr    ecx,0x3
   14000633a:	83 e1 10             	and    ecx,0x10
   14000633d:	8b c3                	mov    eax,ebx
   14000633f:	8b d1                	mov    edx,ecx
   140006341:	83 ca 08             	or     edx,0x8
   140006344:	41 23 c6             	and    eax,r14d
   140006347:	0f 44 d1             	cmove  edx,ecx
   14000634a:	8b c3                	mov    eax,ebx
   14000634c:	8b ca                	mov    ecx,edx
   14000634e:	83 c9 04             	or     ecx,0x4
   140006351:	25 00 04 00 00       	and    eax,0x400
   140006356:	0f 44 ca             	cmove  ecx,edx
   140006359:	8b c3                	mov    eax,ebx
   14000635b:	8b d1                	mov    edx,ecx
   14000635d:	83 ca 02             	or     edx,0x2
   140006360:	25 00 08 00 00       	and    eax,0x800
   140006365:	0f 44 d1             	cmove  edx,ecx
   140006368:	8b c3                	mov    eax,ebx
   14000636a:	8b ca                	mov    ecx,edx
   14000636c:	83 c9 01             	or     ecx,0x1
   14000636f:	25 00 10 00 00       	and    eax,0x1000
   140006374:	0f 44 ca             	cmove  ecx,edx
   140006377:	8b c3                	mov    eax,ebx
   140006379:	8b d1                	mov    edx,ecx
   14000637b:	0f ba ea 13          	bts    edx,0x13
   14000637f:	23 c6                	and    eax,esi
   140006381:	0f 44 d1             	cmove  edx,ecx
   140006384:	8b c3                	mov    eax,ebx
   140006386:	41 23 c7             	and    eax,r15d
   140006389:	74 22                	je     0x1400063ad
   14000638b:	3d 00 20 00 00       	cmp    eax,0x2000
   140006390:	74 19                	je     0x1400063ab
   140006392:	3d 00 40 00 00       	cmp    eax,0x4000
   140006397:	74 0d                	je     0x1400063a6
   140006399:	41 3b c7             	cmp    eax,r15d
   14000639c:	75 0f                	jne    0x1400063ad
   14000639e:	81 ca 00 03 00 00    	or     edx,0x300
   1400063a4:	eb 07                	jmp    0x1400063ad
   1400063a6:	41 0b d6             	or     edx,r14d
   1400063a9:	eb 02                	jmp    0x1400063ad
   1400063ab:	0b d6                	or     edx,esi
   1400063ad:	81 e3 40 80 00 00    	and    ebx,0x8040
   1400063b3:	83 eb 40             	sub    ebx,0x40
   1400063b6:	74 1b                	je     0x1400063d3
   1400063b8:	81 eb c0 7f 00 00    	sub    ebx,0x7fc0
   1400063be:	74 0b                	je     0x1400063cb
   1400063c0:	83 fb 40             	cmp    ebx,0x40
   1400063c3:	75 12                	jne    0x1400063d7
   1400063c5:	0f ba ea 18          	bts    edx,0x18
   1400063c9:	eb 0c                	jmp    0x1400063d7
   1400063cb:	81 ca 00 00 00 03    	or     edx,0x3000000
   1400063d1:	eb 04                	jmp    0x1400063d7
   1400063d3:	0f ba ea 19          	bts    edx,0x19
   1400063d7:	8b c2                	mov    eax,edx
   1400063d9:	48 8b 5c 24 48       	mov    rbx,QWORD PTR [rsp+0x48]
   1400063de:	48 8b 74 24 50       	mov    rsi,QWORD PTR [rsp+0x50]
   1400063e3:	48 83 c4 20          	add    rsp,0x20
   1400063e7:	41 5f                	pop    r15
   1400063e9:	41 5e                	pop    r14
   1400063eb:	41 5c                	pop    r12
   1400063ed:	c3                   	ret
   1400063ee:	cc                   	int3
   1400063ef:	cc                   	int3
   1400063f0:	48 83 ec 28          	sub    rsp,0x28
   1400063f4:	0f ba f2 13          	btr    edx,0x13
   1400063f8:	e8 33 fd ff ff       	call   0x140006130
   1400063fd:	48 83 c4 28          	add    rsp,0x28
   140006401:	c3                   	ret
   140006402:	cc                   	int3
   140006403:	cc                   	int3
   140006404:	48 8b c4             	mov    rax,rsp
   140006407:	53                   	push   rbx
   140006408:	48 83 ec 50          	sub    rsp,0x50
   14000640c:	f2 0f 10 84 24 80 00 	movsd  xmm0,QWORD PTR [rsp+0x80]
   140006413:	00 00 
   140006415:	8b d9                	mov    ebx,ecx
   140006417:	f2 0f 10 8c 24 88 00 	movsd  xmm1,QWORD PTR [rsp+0x88]
   14000641e:	00 00 
   140006420:	ba c0 ff 00 00       	mov    edx,0xffc0
   140006425:	89 48 c8             	mov    DWORD PTR [rax-0x38],ecx
   140006428:	48 8b 8c 24 90 00 00 	mov    rcx,QWORD PTR [rsp+0x90]
   14000642f:	00 
   140006430:	f2 0f 11 40 e0       	movsd  QWORD PTR [rax-0x20],xmm0
   140006435:	f2 0f 11 48 e8       	movsd  QWORD PTR [rax-0x18],xmm1
   14000643a:	f2 0f 11 58 d8       	movsd  QWORD PTR [rax-0x28],xmm3
   14000643f:	4c 89 40 d0          	mov    QWORD PTR [rax-0x30],r8
   140006443:	e8 14 08 00 00       	call   0x140006c5c
   140006448:	48 8d 4c 24 20       	lea    rcx,[rsp+0x20]
   14000644d:	e8 2e b3 ff ff       	call   0x140001780
   140006452:	85 c0                	test   eax,eax
   140006454:	75 07                	jne    0x14000645d
   140006456:	8b cb                	mov    ecx,ebx
   140006458:	e8 bb 07 00 00       	call   0x140006c18
   14000645d:	f2 0f 10 44 24 40    	movsd  xmm0,QWORD PTR [rsp+0x40]
   140006463:	48 83 c4 50          	add    rsp,0x50
   140006467:	5b                   	pop    rbx
   140006468:	c3                   	ret
   140006469:	cc                   	int3
   14000646a:	cc                   	int3
   14000646b:	cc                   	int3
   14000646c:	48 89 5c 24 08       	mov    QWORD PTR [rsp+0x8],rbx
   140006471:	48 89 74 24 10       	mov    QWORD PTR [rsp+0x10],rsi
   140006476:	57                   	push   rdi
   140006477:	48 83 ec 20          	sub    rsp,0x20
   14000647b:	8b d9                	mov    ebx,ecx
   14000647d:	48 8b f2             	mov    rsi,rdx
   140006480:	83 e3 1f             	and    ebx,0x1f
   140006483:	8b f9                	mov    edi,ecx
   140006485:	f6 c1 08             	test   cl,0x8
   140006488:	74 14                	je     0x14000649e
   14000648a:	40 84 f6             	test   sil,sil
   14000648d:	79 0f                	jns    0x14000649e
   14000648f:	b9 01 00 00 00       	mov    ecx,0x1
   140006494:	e8 3f 08 00 00       	call   0x140006cd8
   140006499:	83 e3 f7             	and    ebx,0xfffffff7
   14000649c:	eb 57                	jmp    0x1400064f5
   14000649e:	b9 04 00 00 00       	mov    ecx,0x4
   1400064a3:	40 84 f9             	test   cl,dil
   1400064a6:	74 11                	je     0x1400064b9
   1400064a8:	48 0f ba e6 09       	bt     rsi,0x9
   1400064ad:	73 0a                	jae    0x1400064b9
   1400064af:	e8 24 08 00 00       	call   0x140006cd8
   1400064b4:	83 e3 fb             	and    ebx,0xfffffffb
   1400064b7:	eb 3c                	jmp    0x1400064f5
   1400064b9:	40 f6 c7 01          	test   dil,0x1
   1400064bd:	74 16                	je     0x1400064d5
   1400064bf:	48 0f ba e6 0a       	bt     rsi,0xa
   1400064c4:	73 0f                	jae    0x1400064d5
   1400064c6:	b9 08 00 00 00       	mov    ecx,0x8
   1400064cb:	e8 08 08 00 00       	call   0x140006cd8
   1400064d0:	83 e3 fe             	and    ebx,0xfffffffe
   1400064d3:	eb 20                	jmp    0x1400064f5
   1400064d5:	40 f6 c7 02          	test   dil,0x2
   1400064d9:	74 1a                	je     0x1400064f5
   1400064db:	48 0f ba e6 0b       	bt     rsi,0xb
   1400064e0:	73 13                	jae    0x1400064f5
   1400064e2:	40 f6 c7 10          	test   dil,0x10
   1400064e6:	74 0a                	je     0x1400064f2
   1400064e8:	b9 10 00 00 00       	mov    ecx,0x10
   1400064ed:	e8 e6 07 00 00       	call   0x140006cd8
   1400064f2:	83 e3 fd             	and    ebx,0xfffffffd
   1400064f5:	40 f6 c7 10          	test   dil,0x10
   1400064f9:	74 14                	je     0x14000650f
   1400064fb:	48 0f ba e6 0c       	bt     rsi,0xc
   140006500:	73 0d                	jae    0x14000650f
   140006502:	b9 20 00 00 00       	mov    ecx,0x20
   140006507:	e8 cc 07 00 00       	call   0x140006cd8
   14000650c:	83 e3 ef             	and    ebx,0xffffffef
   14000650f:	48 8b 74 24 38       	mov    rsi,QWORD PTR [rsp+0x38]
   140006514:	33 c0                	xor    eax,eax
   140006516:	85 db                	test   ebx,ebx
   140006518:	48 8b 5c 24 30       	mov    rbx,QWORD PTR [rsp+0x30]
   14000651d:	0f 94 c0             	sete   al
   140006520:	48 83 c4 20          	add    rsp,0x20
   140006524:	5f                   	pop    rdi
   140006525:	c3                   	ret
   140006526:	cc                   	int3
   140006527:	cc                   	int3
   140006528:	48 8b c4             	mov    rax,rsp
   14000652b:	55                   	push   rbp
   14000652c:	53                   	push   rbx
   14000652d:	56                   	push   rsi
   14000652e:	57                   	push   rdi
   14000652f:	41 56                	push   r14
   140006531:	48 8d 68 c9          	lea    rbp,[rax-0x37]
   140006535:	48 81 ec f0 00 00 00 	sub    rsp,0xf0
   14000653c:	0f 29 70 c8          	movaps XMMWORD PTR [rax-0x38],xmm6
   140006540:	48 8b 05 29 60 00 00 	mov    rax,QWORD PTR [rip+0x6029]        # 0x14000c570
   140006547:	48 33 c4             	xor    rax,rsp
   14000654a:	48 89 45 ef          	mov    QWORD PTR [rbp-0x11],rax
   14000654e:	8b f2                	mov    esi,edx
   140006550:	4c 8b f1             	mov    r14,rcx
   140006553:	ba c0 ff 00 00       	mov    edx,0xffc0
   140006558:	b9 80 1f 00 00       	mov    ecx,0x1f80
   14000655d:	41 8b f9             	mov    edi,r9d
   140006560:	49 8b d8             	mov    rbx,r8
   140006563:	e8 f4 06 00 00       	call   0x140006c5c
   140006568:	8b 4d 5f             	mov    ecx,DWORD PTR [rbp+0x5f]
   14000656b:	48 89 44 24 40       	mov    QWORD PTR [rsp+0x40],rax
   140006570:	48 89 5c 24 50       	mov    QWORD PTR [rsp+0x50],rbx
   140006575:	f2 0f 10 44 24 50    	movsd  xmm0,QWORD PTR [rsp+0x50]
   14000657b:	48 8b 54 24 40       	mov    rdx,QWORD PTR [rsp+0x40]
   140006580:	f2 0f 11 44 24 48    	movsd  QWORD PTR [rsp+0x48],xmm0
   140006586:	e8 e1 fe ff ff       	call   0x14000646c
   14000658b:	f2 0f 10 75 77       	movsd  xmm6,QWORD PTR [rbp+0x77]
   140006590:	85 c0                	test   eax,eax
   140006592:	75 40                	jne    0x1400065d4
   140006594:	83 7d 7f 02          	cmp    DWORD PTR [rbp+0x7f],0x2
   140006598:	75 11                	jne    0x1400065ab
   14000659a:	8b 45 bf             	mov    eax,DWORD PTR [rbp-0x41]
   14000659d:	83 e0 e3             	and    eax,0xffffffe3
   1400065a0:	f2 0f 11 75 af       	movsd  QWORD PTR [rbp-0x51],xmm6
   1400065a5:	83 c8 03             	or     eax,0x3
   1400065a8:	89 45 bf             	mov    DWORD PTR [rbp-0x41],eax
   1400065ab:	44 8b 45 5f          	mov    r8d,DWORD PTR [rbp+0x5f]
   1400065af:	48 8d 44 24 48       	lea    rax,[rsp+0x48]
   1400065b4:	48 89 44 24 28       	mov    QWORD PTR [rsp+0x28],rax
   1400065b9:	48 8d 54 24 40       	lea    rdx,[rsp+0x40]
   1400065be:	48 8d 45 6f          	lea    rax,[rbp+0x6f]
   1400065c2:	44 8b ce             	mov    r9d,esi
   1400065c5:	48 8d 4c 24 60       	lea    rcx,[rsp+0x60]
   1400065ca:	48 89 44 24 20       	mov    QWORD PTR [rsp+0x20],rax
   1400065cf:	e8 68 03 00 00       	call   0x14000693c
   1400065d4:	83 3d 89 5f 00 00 00 	cmp    DWORD PTR [rip+0x5f89],0x0        # 0x14000c564
   1400065db:	75 34                	jne    0x140006611
   1400065dd:	85 ff                	test   edi,edi
   1400065df:	74 30                	je     0x140006611
   1400065e1:	48 8b 44 24 40       	mov    rax,QWORD PTR [rsp+0x40]
   1400065e6:	4d 8b c6             	mov    r8,r14
   1400065e9:	f2 0f 10 44 24 48    	movsd  xmm0,QWORD PTR [rsp+0x48]
   1400065ef:	8b cf                	mov    ecx,edi
   1400065f1:	f2 0f 10 5d 6f       	movsd  xmm3,QWORD PTR [rbp+0x6f]
   1400065f6:	8b 55 67             	mov    edx,DWORD PTR [rbp+0x67]
   1400065f9:	48 89 44 24 30       	mov    QWORD PTR [rsp+0x30],rax
   1400065fe:	f2 0f 11 44 24 28    	movsd  QWORD PTR [rsp+0x28],xmm0
   140006604:	f2 0f 11 74 24 20    	movsd  QWORD PTR [rsp+0x20],xmm6
   14000660a:	e8 f5 fd ff ff       	call   0x140006404
   14000660f:	eb 1c                	jmp    0x14000662d
   140006611:	8b cf                	mov    ecx,edi
   140006613:	e8 00 06 00 00       	call   0x140006c18
   140006618:	48 8b 4c 24 40       	mov    rcx,QWORD PTR [rsp+0x40]
   14000661d:	ba c0 ff 00 00       	mov    edx,0xffc0
   140006622:	e8 35 06 00 00       	call   0x140006c5c
   140006627:	f2 0f 10 44 24 48    	movsd  xmm0,QWORD PTR [rsp+0x48]
   14000662d:	48 8b 4d ef          	mov    rcx,QWORD PTR [rbp-0x11]
   140006631:	48 33 cc             	xor    rcx,rsp
   140006634:	e8 e7 06 00 00       	call   0x140006d20
   140006639:	0f 28 b4 24 e0 00 00 	movaps xmm6,XMMWORD PTR [rsp+0xe0]
   140006640:	00 
   140006641:	48 81 c4 f0 00 00 00 	add    rsp,0xf0
   140006648:	41 5e                	pop    r14
   14000664a:	5f                   	pop    rdi
   14000664b:	5e                   	pop    rsi
   14000664c:	5b                   	pop    rbx
   14000664d:	5d                   	pop    rbp
   14000664e:	c3                   	ret
   14000664f:	cc                   	int3
   140006650:	48 8b c4             	mov    rax,rsp
   140006653:	55                   	push   rbp
   140006654:	53                   	push   rbx
   140006655:	56                   	push   rsi
   140006656:	57                   	push   rdi
   140006657:	41 56                	push   r14
   140006659:	48 8d 68 c9          	lea    rbp,[rax-0x37]
   14000665d:	48 81 ec f0 00 00 00 	sub    rsp,0xf0
   140006664:	0f 29 70 c8          	movaps XMMWORD PTR [rax-0x38],xmm6
   140006668:	48 8b 05 01 5f 00 00 	mov    rax,QWORD PTR [rip+0x5f01]        # 0x14000c570
   14000666f:	48 33 c4             	xor    rax,rsp
   140006672:	48 89 45 ef          	mov    QWORD PTR [rbp-0x11],rax
   140006676:	8b f2                	mov    esi,edx
   140006678:	4c 8b f1             	mov    r14,rcx
   14000667b:	ba c0 ff 00 00       	mov    edx,0xffc0
   140006680:	b9 80 1f 00 00       	mov    ecx,0x1f80
   140006685:	41 8b f9             	mov    edi,r9d
   140006688:	49 8b d8             	mov    rbx,r8
   14000668b:	e8 cc 05 00 00       	call   0x140006c5c
   140006690:	8b 4d 5f             	mov    ecx,DWORD PTR [rbp+0x5f]
   140006693:	48 89 44 24 48       	mov    QWORD PTR [rsp+0x48],rax
   140006698:	89 5c 24 50          	mov    DWORD PTR [rsp+0x50],ebx
   14000669c:	f3 0f 10 44 24 50    	movss  xmm0,DWORD PTR [rsp+0x50]
   1400066a2:	48 8b 54 24 48       	mov    rdx,QWORD PTR [rsp+0x48]
   1400066a7:	f3 0f 11 44 24 40    	movss  DWORD PTR [rsp+0x40],xmm0
   1400066ad:	e8 ba fd ff ff       	call   0x14000646c
   1400066b2:	f3 0f 10 75 77       	movss  xmm6,DWORD PTR [rbp+0x77]
   1400066b7:	85 c0                	test   eax,eax
   1400066b9:	75 40                	jne    0x1400066fb
   1400066bb:	83 7d 7f 02          	cmp    DWORD PTR [rbp+0x7f],0x2
   1400066bf:	75 11                	jne    0x1400066d2
   1400066c1:	8b 45 bf             	mov    eax,DWORD PTR [rbp-0x41]
   1400066c4:	83 e0 e1             	and    eax,0xffffffe1
   1400066c7:	f3 0f 11 75 af       	movss  DWORD PTR [rbp-0x51],xmm6
   1400066cc:	83 c8 01             	or     eax,0x1
   1400066cf:	89 45 bf             	mov    DWORD PTR [rbp-0x41],eax
   1400066d2:	44 8b 45 5f          	mov    r8d,DWORD PTR [rbp+0x5f]
   1400066d6:	48 8d 44 24 40       	lea    rax,[rsp+0x40]
   1400066db:	48 89 44 24 28       	mov    QWORD PTR [rsp+0x28],rax
   1400066e0:	48 8d 54 24 48       	lea    rdx,[rsp+0x48]
   1400066e5:	48 8d 45 6f          	lea    rax,[rbp+0x6f]
   1400066e9:	44 8b ce             	mov    r9d,esi
   1400066ec:	48 8d 4c 24 60       	lea    rcx,[rsp+0x60]
   1400066f1:	48 89 44 24 20       	mov    QWORD PTR [rsp+0x20],rax
   1400066f6:	e8 f1 04 00 00       	call   0x140006bec
   1400066fb:	83 3d 62 5e 00 00 00 	cmp    DWORD PTR [rip+0x5e62],0x0        # 0x14000c564
   140006702:	75 41                	jne    0x140006745
   140006704:	85 ff                	test   edi,edi
   140006706:	74 3d                	je     0x140006745
   140006708:	f3 0f 10 44 24 40    	movss  xmm0,DWORD PTR [rsp+0x40]
   14000670e:	4d 8b c6             	mov    r8,r14
   140006711:	f3 0f 10 5d 6f       	movss  xmm3,DWORD PTR [rbp+0x6f]
   140006716:	8b cf                	mov    ecx,edi
   140006718:	48 8b 44 24 48       	mov    rax,QWORD PTR [rsp+0x48]
   14000671d:	8b 55 67             	mov    edx,DWORD PTR [rbp+0x67]
   140006720:	48 89 44 24 30       	mov    QWORD PTR [rsp+0x30],rax
   140006725:	0f 5a c0             	cvtps2pd xmm0,xmm0
   140006728:	0f 5a ce             	cvtps2pd xmm1,xmm6
   14000672b:	f2 0f 11 44 24 28    	movsd  QWORD PTR [rsp+0x28],xmm0
   140006731:	0f 5a db             	cvtps2pd xmm3,xmm3
   140006734:	f2 0f 11 4c 24 20    	movsd  QWORD PTR [rsp+0x20],xmm1
   14000673a:	e8 c5 fc ff ff       	call   0x140006404
   14000673f:	f2 0f 5a c0          	cvtsd2ss xmm0,xmm0
   140006743:	eb 1c                	jmp    0x140006761
   140006745:	8b cf                	mov    ecx,edi
   140006747:	e8 cc 04 00 00       	call   0x140006c18
   14000674c:	48 8b 4c 24 48       	mov    rcx,QWORD PTR [rsp+0x48]
   140006751:	ba c0 ff 00 00       	mov    edx,0xffc0
   140006756:	e8 01 05 00 00       	call   0x140006c5c
   14000675b:	f3 0f 10 44 24 40    	movss  xmm0,DWORD PTR [rsp+0x40]
   140006761:	48 8b 4d ef          	mov    rcx,QWORD PTR [rbp-0x11]
   140006765:	48 33 cc             	xor    rcx,rsp
   140006768:	e8 b3 05 00 00       	call   0x140006d20
   14000676d:	0f 28 b4 24 e0 00 00 	movaps xmm6,XMMWORD PTR [rsp+0xe0]
   140006774:	00 
   140006775:	48 81 c4 f0 00 00 00 	add    rsp,0xf0
   14000677c:	41 5e                	pop    r14
   14000677e:	5f                   	pop    rdi
   14000677f:	5e                   	pop    rsi
   140006780:	5b                   	pop    rbx
   140006781:	5d                   	pop    rbp
   140006782:	c3                   	ret
   140006783:	cc                   	int3
   140006784:	cc                   	int3
   140006785:	cc                   	int3
   140006786:	cc                   	int3
   140006787:	cc                   	int3
   140006788:	cc                   	int3
   140006789:	cc                   	int3
   14000678a:	cc                   	int3
   14000678b:	cc                   	int3
   14000678c:	cc                   	int3
   14000678d:	cc                   	int3
   14000678e:	cc                   	int3
   14000678f:	cc                   	int3
   140006790:	48 83 ec 68          	sub    rsp,0x68
   140006794:	b8 02 00 00 00       	mov    eax,0x2
   140006799:	0f 29 74 24 50       	movaps XMMWORD PTR [rsp+0x50],xmm6
   14000679e:	0f 28 f2             	movaps xmm6,xmm2
   1400067a1:	44 3b c8             	cmp    r9d,eax
   1400067a4:	0f 84 92 00 00 00    	je     0x14000683c
   1400067aa:	0f 86 d1 00 00 00    	jbe    0x140006881
   1400067b0:	41 83 f9 06          	cmp    r9d,0x6
   1400067b4:	76 5e                	jbe    0x140006814
   1400067b6:	41 83 f9 08          	cmp    r9d,0x8
   1400067ba:	76 30                	jbe    0x1400067ec
   1400067bc:	41 83 f9 09          	cmp    r9d,0x9
   1400067c0:	0f 85 bb 00 00 00    	jne    0x140006881
   1400067c6:	89 44 24 40          	mov    DWORD PTR [rsp+0x40],eax
   1400067ca:	44 8d 48 01          	lea    r9d,[rax+0x1]
   1400067ce:	f2 0f 11 4c 24 38    	movsd  QWORD PTR [rsp+0x38],xmm1
   1400067d4:	f2 0f 11 44 24 30    	movsd  QWORD PTR [rsp+0x30],xmm0
   1400067da:	c7 44 24 28 22 00 00 	mov    DWORD PTR [rsp+0x28],0x22
   1400067e1:	00 
   1400067e2:	c7 44 24 20 11 00 00 	mov    DWORD PTR [rsp+0x20],0x11
   1400067e9:	00 
   1400067ea:	eb 73                	jmp    0x14000685f
   1400067ec:	89 44 24 40          	mov    DWORD PTR [rsp+0x40],eax
   1400067f0:	41 b9 04 00 00 00    	mov    r9d,0x4
   1400067f6:	f2 0f 11 4c 24 38    	movsd  QWORD PTR [rsp+0x38],xmm1
   1400067fc:	f2 0f 11 44 24 30    	movsd  QWORD PTR [rsp+0x30],xmm0
   140006802:	c7 44 24 28 22 00 00 	mov    DWORD PTR [rsp+0x28],0x22
   140006809:	00 
   14000680a:	c7 44 24 20 12 00 00 	mov    DWORD PTR [rsp+0x20],0x12
   140006811:	00 
   140006812:	eb 4b                	jmp    0x14000685f
   140006814:	89 44 24 40          	mov    DWORD PTR [rsp+0x40],eax
   140006818:	41 b9 01 00 00 00    	mov    r9d,0x1
   14000681e:	f2 0f 11 4c 24 38    	movsd  QWORD PTR [rsp+0x38],xmm1
   140006824:	f2 0f 11 44 24 30    	movsd  QWORD PTR [rsp+0x30],xmm0
   14000682a:	c7 44 24 28 21 00 00 	mov    DWORD PTR [rsp+0x28],0x21
   140006831:	00 
   140006832:	c7 44 24 20 08 00 00 	mov    DWORD PTR [rsp+0x20],0x8
   140006839:	00 
   14000683a:	eb 23                	jmp    0x14000685f
   14000683c:	89 44 24 40          	mov    DWORD PTR [rsp+0x40],eax
   140006840:	44 8b c8             	mov    r9d,eax
   140006843:	f2 0f 11 4c 24 38    	movsd  QWORD PTR [rsp+0x38],xmm1
   140006849:	f2 0f 11 44 24 30    	movsd  QWORD PTR [rsp+0x30],xmm0
   14000684f:	c7 44 24 28 22 00 00 	mov    DWORD PTR [rsp+0x28],0x22
   140006856:	00 
   140006857:	c7 44 24 20 04 00 00 	mov    DWORD PTR [rsp+0x20],0x4
   14000685e:	00 
   14000685f:	f2 0f 11 b4 24 80 00 	movsd  QWORD PTR [rsp+0x80],xmm6
   140006866:	00 00 
   140006868:	48 8d 0d 71 4c 00 00 	lea    rcx,[rip+0x4c71]        # 0x14000b4e0
   14000686f:	4c 8b 84 24 80 00 00 	mov    r8,QWORD PTR [rsp+0x80]
   140006876:	00 
   140006877:	ba 1d 00 00 00       	mov    edx,0x1d
   14000687c:	e8 a7 fc ff ff       	call   0x140006528
   140006881:	0f 28 c6             	movaps xmm0,xmm6
   140006884:	0f 28 74 24 50       	movaps xmm6,XMMWORD PTR [rsp+0x50]
   140006889:	48 83 c4 68          	add    rsp,0x68
   14000688d:	c3                   	ret
   14000688e:	cc                   	int3
   14000688f:	cc                   	int3
   140006890:	89 4c 24 08          	mov    DWORD PTR [rsp+0x8],ecx
   140006894:	0f ae 54 24 08       	ldmxcsr DWORD PTR [rsp+0x8]
   140006899:	c3                   	ret
   14000689a:	0f ae 5c 24 08       	stmxcsr DWORD PTR [rsp+0x8]
   14000689f:	b9 c0 ff ff ff       	mov    ecx,0xffffffc0
   1400068a4:	21 4c 24 08          	and    DWORD PTR [rsp+0x8],ecx
   1400068a8:	0f ae 54 24 08       	ldmxcsr DWORD PTR [rsp+0x8]
   1400068ad:	c3                   	ret
   1400068ae:	cc                   	int3
   1400068af:	cc                   	int3
   1400068b0:	48 81 ec d8 00 00 00 	sub    rsp,0xd8
   1400068b7:	48 8b 05 b2 5c 00 00 	mov    rax,QWORD PTR [rip+0x5cb2]        # 0x14000c570
   1400068be:	48 33 c4             	xor    rax,rsp
   1400068c1:	48 89 84 24 c0 00 00 	mov    QWORD PTR [rsp+0xc0],rax
   1400068c8:	00 
   1400068c9:	48 83 64 24 28 00    	and    QWORD PTR [rsp+0x28],0x0
   1400068cf:	48 8d 05 da ff ff ff 	lea    rax,[rip+0xffffffffffffffda]        # 0x1400068b0
   1400068d6:	83 e2 01             	and    edx,0x1
   1400068d9:	89 4c 24 20          	mov    DWORD PTR [rsp+0x20],ecx
   1400068dd:	89 54 24 24          	mov    DWORD PTR [rsp+0x24],edx
   1400068e1:	48 89 44 24 30       	mov    QWORD PTR [rsp+0x30],rax
   1400068e6:	4d 85 c9             	test   r9,r9
   1400068e9:	74 29                	je     0x140006914
   1400068eb:	b8 0f 00 00 00       	mov    eax,0xf
   1400068f0:	44 3b c0             	cmp    r8d,eax
   1400068f3:	44 0f 47 c0          	cmova  r8d,eax
   1400068f7:	44 89 44 24 38       	mov    DWORD PTR [rsp+0x38],r8d
   1400068fc:	45 85 c0             	test   r8d,r8d
   1400068ff:	74 18                	je     0x140006919
   140006901:	49 c1 e0 03          	shl    r8,0x3
   140006905:	48 8d 4c 24 40       	lea    rcx,[rsp+0x40]
   14000690a:	49 8b d1             	mov    rdx,r9
   14000690d:	e8 2e 15 00 00       	call   0x140007e40
   140006912:	eb 05                	jmp    0x140006919
   140006914:	83 64 24 38 00       	and    DWORD PTR [rsp+0x38],0x0
   140006919:	48 8d 4c 24 20       	lea    rcx,[rsp+0x20]
   14000691e:	e8 2a 04 00 00       	call   0x140006d4d
   140006923:	48 8b 8c 24 c0 00 00 	mov    rcx,QWORD PTR [rsp+0xc0]
   14000692a:	00 
   14000692b:	48 33 cc             	xor    rcx,rsp
   14000692e:	e8 ed 03 00 00       	call   0x140006d20
   140006933:	48 81 c4 d8 00 00 00 	add    rsp,0xd8
   14000693a:	c3                   	ret
   14000693b:	cc                   	int3
   14000693c:	48 83 ec 48          	sub    rsp,0x48
   140006940:	83 64 24 30 00       	and    DWORD PTR [rsp+0x30],0x0
   140006945:	48 8b 44 24 78       	mov    rax,QWORD PTR [rsp+0x78]
   14000694a:	48 89 44 24 28       	mov    QWORD PTR [rsp+0x28],rax
   14000694f:	48 8b 44 24 70       	mov    rax,QWORD PTR [rsp+0x70]
   140006954:	48 89 44 24 20       	mov    QWORD PTR [rsp+0x20],rax
   140006959:	e8 06 00 00 00       	call   0x140006964
   14000695e:	48 83 c4 48          	add    rsp,0x48
   140006962:	c3                   	ret
   140006963:	cc                   	int3
   140006964:	48 8b c4             	mov    rax,rsp
   140006967:	48 89 58 10          	mov    QWORD PTR [rax+0x10],rbx
   14000696b:	48 89 68 18          	mov    QWORD PTR [rax+0x18],rbp
   14000696f:	48 89 70 20          	mov    QWORD PTR [rax+0x20],rsi
   140006973:	48 89 48 08          	mov    QWORD PTR [rax+0x8],rcx
   140006977:	57                   	push   rdi
   140006978:	48 83 ec 20          	sub    rsp,0x20
   14000697c:	33 ed                	xor    ebp,ebp
   14000697e:	41 8b f1             	mov    esi,r9d
   140006981:	21 69 04             	and    DWORD PTR [rcx+0x4],ebp
   140006984:	48 8b fa             	mov    rdi,rdx
   140006987:	21 69 08             	and    DWORD PTR [rcx+0x8],ebp
   14000698a:	48 8b d9             	mov    rbx,rcx
   14000698d:	21 69 0c             	and    DWORD PTR [rcx+0xc],ebp
   140006990:	41 f6 c0 10          	test   r8b,0x10
   140006994:	74 09                	je     0x14000699f
   140006996:	83 49 04 01          	or     DWORD PTR [rcx+0x4],0x1
   14000699a:	bd 8f 00 00 c0       	mov    ebp,0xc000008f
   14000699f:	41 f6 c0 02          	test   r8b,0x2
   1400069a3:	74 09                	je     0x1400069ae
   1400069a5:	83 49 04 02          	or     DWORD PTR [rcx+0x4],0x2
   1400069a9:	bd 93 00 00 c0       	mov    ebp,0xc0000093
   1400069ae:	41 f6 c0 01          	test   r8b,0x1
   1400069b2:	74 09                	je     0x1400069bd
   1400069b4:	83 49 04 04          	or     DWORD PTR [rcx+0x4],0x4
   1400069b8:	bd 91 00 00 c0       	mov    ebp,0xc0000091
   1400069bd:	41 f6 c0 04          	test   r8b,0x4
   1400069c1:	74 09                	je     0x1400069cc
   1400069c3:	83 49 04 08          	or     DWORD PTR [rcx+0x4],0x8
   1400069c7:	bd 8e 00 00 c0       	mov    ebp,0xc000008e
   1400069cc:	41 f6 c0 08          	test   r8b,0x8
   1400069d0:	74 09                	je     0x1400069db
   1400069d2:	83 49 04 10          	or     DWORD PTR [rcx+0x4],0x10
   1400069d6:	bd 90 00 00 c0       	mov    ebp,0xc0000090
   1400069db:	48 8b 02             	mov    rax,QWORD PTR [rdx]
   1400069de:	48 c1 e8 07          	shr    rax,0x7
   1400069e2:	c1 e0 04             	shl    eax,0x4
   1400069e5:	f7 d0                	not    eax
   1400069e7:	33 41 08             	xor    eax,DWORD PTR [rcx+0x8]
   1400069ea:	83 e0 10             	and    eax,0x10
   1400069ed:	31 41 08             	xor    DWORD PTR [rcx+0x8],eax
   1400069f0:	8b 41 08             	mov    eax,DWORD PTR [rcx+0x8]
   1400069f3:	48 8b 0a             	mov    rcx,QWORD PTR [rdx]
   1400069f6:	48 c1 e9 09          	shr    rcx,0x9
   1400069fa:	c1 e1 03             	shl    ecx,0x3
   1400069fd:	f7 d1                	not    ecx
   1400069ff:	33 c8                	xor    ecx,eax
   140006a01:	83 e1 08             	and    ecx,0x8
   140006a04:	33 c8                	xor    ecx,eax
   140006a06:	89 4b 08             	mov    DWORD PTR [rbx+0x8],ecx
   140006a09:	48 8b 02             	mov    rax,QWORD PTR [rdx]
   140006a0c:	48 c1 e8 0a          	shr    rax,0xa
   140006a10:	c1 e0 02             	shl    eax,0x2
   140006a13:	f7 d0                	not    eax
   140006a15:	33 c1                	xor    eax,ecx
   140006a17:	83 e0 04             	and    eax,0x4
   140006a1a:	33 c1                	xor    eax,ecx
   140006a1c:	89 43 08             	mov    DWORD PTR [rbx+0x8],eax
   140006a1f:	48 8b 0a             	mov    rcx,QWORD PTR [rdx]
   140006a22:	48 c1 e9 0b          	shr    rcx,0xb
   140006a26:	03 c9                	add    ecx,ecx
   140006a28:	f7 d1                	not    ecx
   140006a2a:	33 c8                	xor    ecx,eax
   140006a2c:	83 e1 02             	and    ecx,0x2
   140006a2f:	33 c8                	xor    ecx,eax
   140006a31:	89 4b 08             	mov    DWORD PTR [rbx+0x8],ecx
   140006a34:	8b 02                	mov    eax,DWORD PTR [rdx]
   140006a36:	48 c1 e8 0c          	shr    rax,0xc
   140006a3a:	f7 d0                	not    eax
   140006a3c:	33 c1                	xor    eax,ecx
   140006a3e:	83 e0 01             	and    eax,0x1
   140006a41:	33 c1                	xor    eax,ecx
   140006a43:	89 43 08             	mov    DWORD PTR [rbx+0x8],eax
   140006a46:	e8 ad 02 00 00       	call   0x140006cf8
   140006a4b:	a8 01                	test   al,0x1
   140006a4d:	74 04                	je     0x140006a53
   140006a4f:	83 4b 0c 10          	or     DWORD PTR [rbx+0xc],0x10
   140006a53:	a8 04                	test   al,0x4
   140006a55:	74 04                	je     0x140006a5b
   140006a57:	83 4b 0c 08          	or     DWORD PTR [rbx+0xc],0x8
   140006a5b:	a8 08                	test   al,0x8
   140006a5d:	74 04                	je     0x140006a63
   140006a5f:	83 4b 0c 04          	or     DWORD PTR [rbx+0xc],0x4
   140006a63:	a8 10                	test   al,0x10
   140006a65:	74 04                	je     0x140006a6b
   140006a67:	83 4b 0c 02          	or     DWORD PTR [rbx+0xc],0x2
   140006a6b:	a8 20                	test   al,0x20
   140006a6d:	74 04                	je     0x140006a73
   140006a6f:	83 4b 0c 01          	or     DWORD PTR [rbx+0xc],0x1
   140006a73:	8b 07                	mov    eax,DWORD PTR [rdi]
   140006a75:	b9 00 60 00 00       	mov    ecx,0x6000
   140006a7a:	48 23 c1             	and    rax,rcx
   140006a7d:	74 30                	je     0x140006aaf
   140006a7f:	48 3d 00 20 00 00    	cmp    rax,0x2000
   140006a85:	74 1e                	je     0x140006aa5
   140006a87:	48 3d 00 40 00 00    	cmp    rax,0x4000
   140006a8d:	74 0a                	je     0x140006a99
   140006a8f:	48 3b c1             	cmp    rax,rcx
   140006a92:	75 1e                	jne    0x140006ab2
   140006a94:	83 0b 03             	or     DWORD PTR [rbx],0x3
   140006a97:	eb 19                	jmp    0x140006ab2
   140006a99:	8b 03                	mov    eax,DWORD PTR [rbx]
   140006a9b:	83 e0 fe             	and    eax,0xfffffffe
   140006a9e:	83 c8 02             	or     eax,0x2
   140006aa1:	89 03                	mov    DWORD PTR [rbx],eax
   140006aa3:	eb 0d                	jmp    0x140006ab2
   140006aa5:	8b 03                	mov    eax,DWORD PTR [rbx]
   140006aa7:	83 e0 fd             	and    eax,0xfffffffd
   140006aaa:	83 c8 01             	or     eax,0x1
   140006aad:	eb f2                	jmp    0x140006aa1
   140006aaf:	83 23 fc             	and    DWORD PTR [rbx],0xfffffffc
   140006ab2:	c1 e6 05             	shl    esi,0x5
   140006ab5:	33 33                	xor    esi,DWORD PTR [rbx]
   140006ab7:	81 e6 e0 ff 01 00    	and    esi,0x1ffe0
   140006abd:	31 33                	xor    DWORD PTR [rbx],esi
   140006abf:	83 7c 24 60 00       	cmp    DWORD PTR [rsp+0x60],0x0
   140006ac4:	8b 43 20             	mov    eax,DWORD PTR [rbx+0x20]
   140006ac7:	48 8b 74 24 58       	mov    rsi,QWORD PTR [rsp+0x58]
   140006acc:	74 29                	je     0x140006af7
   140006ace:	ba e1 ff ff ff       	mov    edx,0xffffffe1
   140006ad3:	23 c2                	and    eax,edx
   140006ad5:	83 c8 01             	or     eax,0x1
   140006ad8:	89 43 20             	mov    DWORD PTR [rbx+0x20],eax
   140006adb:	48 8b 44 24 50       	mov    rax,QWORD PTR [rsp+0x50]
   140006ae0:	8b 08                	mov    ecx,DWORD PTR [rax]
   140006ae2:	89 4b 10             	mov    DWORD PTR [rbx+0x10],ecx
   140006ae5:	8b 43 60             	mov    eax,DWORD PTR [rbx+0x60]
   140006ae8:	23 c2                	and    eax,edx
   140006aea:	83 c8 01             	or     eax,0x1
   140006aed:	89 43 60             	mov    DWORD PTR [rbx+0x60],eax
   140006af0:	8b 06                	mov    eax,DWORD PTR [rsi]
   140006af2:	89 43 50             	mov    DWORD PTR [rbx+0x50],eax
   140006af5:	eb 2b                	jmp    0x140006b22
   140006af7:	ba e3 ff ff ff       	mov    edx,0xffffffe3
   140006afc:	23 c2                	and    eax,edx
   140006afe:	83 c8 03             	or     eax,0x3
   140006b01:	89 43 20             	mov    DWORD PTR [rbx+0x20],eax
   140006b04:	48 8b 44 24 50       	mov    rax,QWORD PTR [rsp+0x50]
   140006b09:	48 8b 08             	mov    rcx,QWORD PTR [rax]
   140006b0c:	48 89 4b 10          	mov    QWORD PTR [rbx+0x10],rcx
   140006b10:	8b 43 60             	mov    eax,DWORD PTR [rbx+0x60]
   140006b13:	23 c2                	and    eax,edx
   140006b15:	83 c8 03             	or     eax,0x3
   140006b18:	89 43 60             	mov    DWORD PTR [rbx+0x60],eax
   140006b1b:	48 8b 06             	mov    rax,QWORD PTR [rsi]
   140006b1e:	48 89 43 50          	mov    QWORD PTR [rbx+0x50],rax
   140006b22:	e8 15 01 00 00       	call   0x140006c3c
   140006b27:	33 d2                	xor    edx,edx
   140006b29:	4c 8d 4c 24 30       	lea    r9,[rsp+0x30]
   140006b2e:	8b cd                	mov    ecx,ebp
   140006b30:	44 8d 42 01          	lea    r8d,[rdx+0x1]
   140006b34:	e8 77 fd ff ff       	call   0x1400068b0
   140006b39:	48 8b 4c 24 30       	mov    rcx,QWORD PTR [rsp+0x30]
   140006b3e:	8b 41 08             	mov    eax,DWORD PTR [rcx+0x8]
   140006b41:	a8 10                	test   al,0x10
   140006b43:	74 08                	je     0x140006b4d
   140006b45:	48 0f ba 37 07       	btr    QWORD PTR [rdi],0x7
   140006b4a:	8b 41 08             	mov    eax,DWORD PTR [rcx+0x8]
   140006b4d:	a8 08                	test   al,0x8
   140006b4f:	74 08                	je     0x140006b59
   140006b51:	48 0f ba 37 09       	btr    QWORD PTR [rdi],0x9
   140006b56:	8b 41 08             	mov    eax,DWORD PTR [rcx+0x8]
   140006b59:	a8 04                	test   al,0x4
   140006b5b:	74 08                	je     0x140006b65
   140006b5d:	48 0f ba 37 0a       	btr    QWORD PTR [rdi],0xa
   140006b62:	8b 41 08             	mov    eax,DWORD PTR [rcx+0x8]
   140006b65:	a8 02                	test   al,0x2
   140006b67:	74 08                	je     0x140006b71
   140006b69:	48 0f ba 37 0b       	btr    QWORD PTR [rdi],0xb
   140006b6e:	8b 41 08             	mov    eax,DWORD PTR [rcx+0x8]
   140006b71:	a8 01                	test   al,0x1
   140006b73:	74 05                	je     0x140006b7a
   140006b75:	48 0f ba 37 0c       	btr    QWORD PTR [rdi],0xc
   140006b7a:	8b 01                	mov    eax,DWORD PTR [rcx]
   140006b7c:	83 e0 03             	and    eax,0x3
   140006b7f:	74 39                	je     0x140006bba
   140006b81:	83 e8 01             	sub    eax,0x1
   140006b84:	74 25                	je     0x140006bab
   140006b86:	83 e8 01             	sub    eax,0x1
   140006b89:	74 0e                	je     0x140006b99
   140006b8b:	83 f8 01             	cmp    eax,0x1
   140006b8e:	75 31                	jne    0x140006bc1
   140006b90:	48 81 0f 00 60 00 00 	or     QWORD PTR [rdi],0x6000
   140006b97:	eb 28                	jmp    0x140006bc1
   140006b99:	48 8b 07             	mov    rax,QWORD PTR [rdi]
   140006b9c:	48 0f ba f0 0d       	btr    rax,0xd
   140006ba1:	48 0f ba e8 0e       	bts    rax,0xe
   140006ba6:	48 89 07             	mov    QWORD PTR [rdi],rax
   140006ba9:	eb 16                	jmp    0x140006bc1
   140006bab:	48 8b 07             	mov    rax,QWORD PTR [rdi]
   140006bae:	48 0f ba f0 0e       	btr    rax,0xe
   140006bb3:	48 0f ba e8 0d       	bts    rax,0xd
   140006bb8:	eb ec                	jmp    0x140006ba6
   140006bba:	48 81 27 ff 9f ff ff 	and    QWORD PTR [rdi],0xffffffffffff9fff
   140006bc1:	83 7c 24 60 00       	cmp    DWORD PTR [rsp+0x60],0x0
   140006bc6:	74 07                	je     0x140006bcf
   140006bc8:	8b 41 50             	mov    eax,DWORD PTR [rcx+0x50]
   140006bcb:	89 06                	mov    DWORD PTR [rsi],eax
   140006bcd:	eb 07                	jmp    0x140006bd6
   140006bcf:	48 8b 41 50          	mov    rax,QWORD PTR [rcx+0x50]
   140006bd3:	48 89 06             	mov    QWORD PTR [rsi],rax
   140006bd6:	48 8b 5c 24 38       	mov    rbx,QWORD PTR [rsp+0x38]
   140006bdb:	48 8b 6c 24 40       	mov    rbp,QWORD PTR [rsp+0x40]
   140006be0:	48 8b 74 24 48       	mov    rsi,QWORD PTR [rsp+0x48]
   140006be5:	48 83 c4 20          	add    rsp,0x20
   140006be9:	5f                   	pop    rdi
   140006bea:	c3                   	ret
   140006beb:	cc                   	int3
   140006bec:	48 83 ec 48          	sub    rsp,0x48
   140006bf0:	48 8b 44 24 78       	mov    rax,QWORD PTR [rsp+0x78]
   140006bf5:	c7 44 24 30 01 00 00 	mov    DWORD PTR [rsp+0x30],0x1
   140006bfc:	00 
   140006bfd:	48 89 44 24 28       	mov    QWORD PTR [rsp+0x28],rax
   140006c02:	48 8b 44 24 70       	mov    rax,QWORD PTR [rsp+0x70]
   140006c07:	48 89 44 24 20       	mov    QWORD PTR [rsp+0x20],rax
   140006c0c:	e8 53 fd ff ff       	call   0x140006964
   140006c11:	48 83 c4 48          	add    rsp,0x48
   140006c15:	c3                   	ret
   140006c16:	cc                   	int3
   140006c17:	cc                   	int3
   140006c18:	83 f9 01             	cmp    ecx,0x1
   140006c1b:	74 13                	je     0x140006c30
   140006c1d:	8d 41 fe             	lea    eax,[rcx-0x2]
   140006c20:	83 f8 01             	cmp    eax,0x1
   140006c23:	77 15                	ja     0x140006c3a
   140006c25:	c7 05 f1 83 00 00 22 	mov    DWORD PTR [rip+0x83f1],0x22        # 0x14000f020
   140006c2c:	00 00 00 
   140006c2f:	c3                   	ret
   140006c30:	c7 05 e6 83 00 00 21 	mov    DWORD PTR [rip+0x83e6],0x21        # 0x14000f020
   140006c37:	00 00 00 
   140006c3a:	c3                   	ret
   140006c3b:	cc                   	int3
   140006c3c:	40 53                	rex push rbx
   140006c3e:	48 83 ec 20          	sub    rsp,0x20
   140006c42:	e8 b9 10 00 00       	call   0x140007d00
   140006c47:	8b d8                	mov    ebx,eax
   140006c49:	83 e3 3f             	and    ebx,0x3f
   140006c4c:	e8 49 fc ff ff       	call   0x14000689a
   140006c51:	8b c3                	mov    eax,ebx
   140006c53:	48 83 c4 20          	add    rsp,0x20
   140006c57:	5b                   	pop    rbx
   140006c58:	c3                   	ret
   140006c59:	cc                   	int3
   140006c5a:	cc                   	int3
   140006c5b:	cc                   	int3
   140006c5c:	48 89 5c 24 18       	mov    QWORD PTR [rsp+0x18],rbx
   140006c61:	48 89 74 24 20       	mov    QWORD PTR [rsp+0x20],rsi
   140006c66:	57                   	push   rdi
   140006c67:	48 83 ec 20          	sub    rsp,0x20
   140006c6b:	48 8b da             	mov    rbx,rdx
   140006c6e:	48 8b f9             	mov    rdi,rcx
   140006c71:	e8 8a 10 00 00       	call   0x140007d00
   140006c76:	8b f0                	mov    esi,eax
   140006c78:	89 44 24 38          	mov    DWORD PTR [rsp+0x38],eax
   140006c7c:	8b cb                	mov    ecx,ebx
   140006c7e:	f7 d1                	not    ecx
   140006c80:	81 c9 7f 80 ff ff    	or     ecx,0xffff807f
   140006c86:	23 c8                	and    ecx,eax
   140006c88:	23 fb                	and    edi,ebx
   140006c8a:	0b cf                	or     ecx,edi
   140006c8c:	89 4c 24 30          	mov    DWORD PTR [rsp+0x30],ecx
   140006c90:	80 3d c9 58 00 00 00 	cmp    BYTE PTR [rip+0x58c9],0x0        # 0x14000c560
   140006c97:	74 25                	je     0x140006cbe
   140006c99:	f6 c1 40             	test   cl,0x40
   140006c9c:	74 20                	je     0x140006cbe
   140006c9e:	e8 ed fb ff ff       	call   0x140006890
   140006ca3:	eb 21                	jmp    0x140006cc6
   140006ca5:	c6 05 b4 58 00 00 00 	mov    BYTE PTR [rip+0x58b4],0x0        # 0x14000c560
   140006cac:	8b 4c 24 30          	mov    ecx,DWORD PTR [rsp+0x30]
   140006cb0:	83 e1 bf             	and    ecx,0xffffffbf
   140006cb3:	e8 d8 fb ff ff       	call   0x140006890
   140006cb8:	8b 74 24 38          	mov    esi,DWORD PTR [rsp+0x38]
   140006cbc:	eb 08                	jmp    0x140006cc6
   140006cbe:	83 e1 bf             	and    ecx,0xffffffbf
   140006cc1:	e8 ca fb ff ff       	call   0x140006890
   140006cc6:	8b c6                	mov    eax,esi
   140006cc8:	48 8b 5c 24 40       	mov    rbx,QWORD PTR [rsp+0x40]
   140006ccd:	48 8b 74 24 48       	mov    rsi,QWORD PTR [rsp+0x48]
   140006cd2:	48 83 c4 20          	add    rsp,0x20
   140006cd6:	5f                   	pop    rdi
   140006cd7:	c3                   	ret
   140006cd8:	40 53                	rex push rbx
   140006cda:	48 83 ec 20          	sub    rsp,0x20
   140006cde:	48 8b d9             	mov    rbx,rcx
   140006ce1:	e8 1a 10 00 00       	call   0x140007d00
   140006ce6:	83 e3 3f             	and    ebx,0x3f
   140006ce9:	0b c3                	or     eax,ebx
   140006ceb:	8b c8                	mov    ecx,eax
   140006ced:	e8 9e fb ff ff       	call   0x140006890
   140006cf2:	48 83 c4 20          	add    rsp,0x20
   140006cf6:	5b                   	pop    rbx
   140006cf7:	c3                   	ret
   140006cf8:	48 83 ec 28          	sub    rsp,0x28
   140006cfc:	e8 ff 0f 00 00       	call   0x140007d00
   140006d01:	83 e0 3f             	and    eax,0x3f
   140006d04:	48 83 c4 28          	add    rsp,0x28
   140006d08:	c3                   	ret
   140006d09:	cc                   	int3
   140006d0a:	cc                   	int3
   140006d0b:	cc                   	int3
   140006d0c:	cc                   	int3
   140006d0d:	cc                   	int3
   140006d0e:	cc                   	int3
   140006d0f:	cc                   	int3
   140006d10:	cc                   	int3
   140006d11:	cc                   	int3
   140006d12:	cc                   	int3
   140006d13:	cc                   	int3
   140006d14:	cc                   	int3
   140006d15:	cc                   	int3
   140006d16:	66 66 0f 1f 84 00 00 	data16 nop WORD PTR [rax+rax*1+0x0]
   140006d1d:	00 00 00 
   140006d20:	48 3b 0d 49 58 00 00 	cmp    rcx,QWORD PTR [rip+0x5849]        # 0x14000c570
   140006d27:	75 10                	jne    0x140006d39
   140006d29:	48 c1 c1 10          	rol    rcx,0x10
   140006d2d:	66 f7 c1 ff ff       	test   cx,0xffff
   140006d32:	75 01                	jne    0x140006d35
   140006d34:	c3                   	ret
   140006d35:	48 c1 c9 10          	ror    rcx,0x10
   140006d39:	e9 02 00 00 00       	jmp    0x140006d40
   140006d3e:	cc                   	int3
   140006d3f:	cc                   	int3
   140006d40:	b9 02 00 00 00       	mov    ecx,0x2
   140006d45:	cd 29                	int    0x29
   140006d47:	ff 25 ab 43 00 00    	jmp    QWORD PTR [rip+0x43ab]        # 0x14000b0f8
   140006d4d:	ff 25 ad 43 00 00    	jmp    QWORD PTR [rip+0x43ad]        # 0x14000b100
   140006d53:	cc                   	int3
   140006d54:	48 83 ec 28          	sub    rsp,0x28
   140006d58:	48 8d 0d 21 58 00 00 	lea    rcx,[rip+0x5821]        # 0x14000c580
   140006d5f:	e8 dc 02 00 00       	call   0x140007040
   140006d64:	4c 8b 05 85 82 00 00 	mov    r8,QWORD PTR [rip+0x8285]        # 0x14000eff0
   140006d6b:	48 8d 15 0e 58 00 00 	lea    rdx,[rip+0x580e]        # 0x14000c580
   140006d72:	48 8d 0d 5f 82 00 00 	lea    rcx,[rip+0x825f]        # 0x14000efd8
   140006d79:	e8 43 03 00 00       	call   0x1400070c1
   140006d7e:	48 83 c4 28          	add    rsp,0x28
   140006d82:	c3                   	ret
   140006d83:	cc                   	int3
   140006d84:	cc                   	int3
   140006d85:	cc                   	int3
   140006d86:	cc                   	int3
   140006d87:	cc                   	int3
   140006d88:	cc                   	int3
   140006d89:	cc                   	int3
   140006d8a:	cc                   	int3
   140006d8b:	cc                   	int3
   140006d8c:	cc                   	int3
   140006d8d:	cc                   	int3
   140006d8e:	cc                   	int3
   140006d8f:	cc                   	int3
   140006d90:	48 89 5c 24 08       	mov    QWORD PTR [rsp+0x8],rbx
   140006d95:	57                   	push   rdi
   140006d96:	48 83 ec 20          	sub    rsp,0x20
   140006d9a:	48 8b da             	mov    rbx,rdx
   140006d9d:	48 8b f9             	mov    rdi,rcx
   140006da0:	e8 57 a3 00 00       	call   0x1400110fc
   140006da5:	48 8b d3             	mov    rdx,rbx
   140006da8:	48 8b cf             	mov    rcx,rdi
   140006dab:	e8 0c 00 00 00       	call   0x140006dbc
   140006db0:	48 8b 5c 24 30       	mov    rbx,QWORD PTR [rsp+0x30]
   140006db5:	48 83 c4 20          	add    rsp,0x20
   140006db9:	5f                   	pop    rdi
   140006dba:	c3                   	ret
   140006dbb:	cc                   	int3
   140006dbc:	48 89 5c 24 08       	mov    QWORD PTR [rsp+0x8],rbx
   140006dc1:	48 89 6c 24 10       	mov    QWORD PTR [rsp+0x10],rbp
   140006dc6:	48 89 74 24 18       	mov    QWORD PTR [rsp+0x18],rsi
   140006dcb:	57                   	push   rdi
   140006dcc:	48 83 ec 20          	sub    rsp,0x20
   140006dd0:	33 ed                	xor    ebp,ebp
   140006dd2:	48 8b f2             	mov    rsi,rdx
   140006dd5:	48 8b f9             	mov    rdi,rcx
   140006dd8:	48 85 c9             	test   rcx,rcx
   140006ddb:	75 0a                	jne    0x140006de7
   140006ddd:	e8 1e a2 00 00       	call   0x140011000
   140006de2:	e9 ed 00 00 00       	jmp    0x140006ed4
   140006de7:	48 8d 05 d2 7f 00 00 	lea    rax,[rip+0x7fd2]        # 0x14000edc0
   140006dee:	48 89 3d 03 82 00 00 	mov    QWORD PTR [rip+0x8203],rdi        # 0x14000eff8
   140006df5:	48 8d 0d dc 81 00 00 	lea    rcx,[rip+0x81dc]        # 0x14000efd8
   140006dfc:	48 89 05 dd 81 00 00 	mov    QWORD PTR [rip+0x81dd],rax        # 0x14000efe0
   140006e03:	c7 05 cb 81 00 00 00 	mov    DWORD PTR [rip+0x81cb],0x2080000        # 0x14000efd8
   140006e0a:	00 08 02 
   140006e0d:	48 ff 15 f4 42 00 00 	rex.W call QWORD PTR [rip+0x42f4]        # 0x14000b108
   140006e14:	0f 1f 44 00 00       	nop    DWORD PTR [rax+rax*1+0x0]
   140006e19:	4c 8d 0d d0 81 00 00 	lea    r9,[rip+0x81d0]        # 0x14000eff0
   140006e20:	48 8b cf             	mov    rcx,rdi
   140006e23:	4c 8d 05 56 57 00 00 	lea    r8,[rip+0x5756]        # 0x14000c580
   140006e2a:	48 8d 15 a7 81 00 00 	lea    rdx,[rip+0x81a7]        # 0x14000efd8
   140006e31:	e8 85 02 00 00       	call   0x1400070bb
   140006e36:	85 c0                	test   eax,eax
   140006e38:	0f 88 96 00 00 00    	js     0x140006ed4
   140006e3e:	48 8b 05 a3 81 00 00 	mov    rax,QWORD PTR [rip+0x81a3]        # 0x14000efe8
   140006e45:	48 8d 0d 34 57 00 00 	lea    rcx,[rip+0x5734]        # 0x14000c580
   140006e4c:	48 8b 90 48 06 00 00 	mov    rdx,QWORD PTR [rax+0x648]
   140006e53:	48 89 15 6e 81 00 00 	mov    QWORD PTR [rip+0x816e],rdx        # 0x14000efc8
   140006e5a:	e8 31 01 00 00       	call   0x140006f90
   140006e5f:	8b d8                	mov    ebx,eax
   140006e61:	85 c0                	test   eax,eax
   140006e63:	78 68                	js     0x140006ecd
   140006e65:	e8 c2 00 00 00       	call   0x140006f2c
   140006e6a:	8b d8                	mov    ebx,eax
   140006e6c:	85 c0                	test   eax,eax
   140006e6e:	78 5d                	js     0x140006ecd
   140006e70:	48 8b d6             	mov    rdx,rsi
   140006e73:	48 8b cf             	mov    rcx,rdi
   140006e76:	e8 85 a1 00 00       	call   0x140011000
   140006e7b:	8b d8                	mov    ebx,eax
   140006e7d:	85 c0                	test   eax,eax
   140006e7f:	78 4c                	js     0x140006ecd
   140006e81:	48 8b 05 68 81 00 00 	mov    rax,QWORD PTR [rip+0x8168]        # 0x14000eff0
   140006e88:	40 38 68 30          	cmp    BYTE PTR [rax+0x30],bpl
   140006e8c:	74 26                	je     0x140006eb4
   140006e8e:	48 8b 4f 68          	mov    rcx,QWORD PTR [rdi+0x68]
   140006e92:	48 8b 05 67 81 00 00 	mov    rax,QWORD PTR [rip+0x8167]        # 0x14000f000
   140006e99:	48 85 c9             	test   rcx,rcx
   140006e9c:	48 0f 45 c1          	cmovne rax,rcx
   140006ea0:	48 89 05 59 81 00 00 	mov    QWORD PTR [rip+0x8159],rax        # 0x14000f000
   140006ea7:	48 8d 05 52 00 00 00 	lea    rax,[rip+0x52]        # 0x140006f00
   140006eae:	48 89 47 68          	mov    QWORD PTR [rdi+0x68],rax
   140006eb2:	eb 15                	jmp    0x140006ec9
   140006eb4:	8b 40 08             	mov    eax,DWORD PTR [rax+0x8]
   140006eb7:	a8 02                	test   al,0x2
   140006eb9:	74 0e                	je     0x140006ec9
   140006ebb:	48 8d 05 2e 00 00 00 	lea    rax,[rip+0x2e]        # 0x140006ef0
   140006ec2:	48 89 05 ff 80 00 00 	mov    QWORD PTR [rip+0x80ff],rax        # 0x14000efc8
   140006ec9:	33 c0                	xor    eax,eax
   140006ecb:	eb 07                	jmp    0x140006ed4
   140006ecd:	e8 82 fe ff ff       	call   0x140006d54
   140006ed2:	8b c3                	mov    eax,ebx
   140006ed4:	48 8b 5c 24 30       	mov    rbx,QWORD PTR [rsp+0x30]
   140006ed9:	48 8b 6c 24 38       	mov    rbp,QWORD PTR [rsp+0x38]
   140006ede:	48 8b 74 24 40       	mov    rsi,QWORD PTR [rsp+0x40]
   140006ee3:	48 83 c4 20          	add    rsp,0x20
   140006ee7:	5f                   	pop    rdi
   140006ee8:	c3                   	ret
   140006ee9:	cc                   	int3
   140006eea:	cc                   	int3
   140006eeb:	cc                   	int3
   140006eec:	cc                   	int3
   140006eed:	cc                   	int3
   140006eee:	cc                   	int3
   140006eef:	cc                   	int3
   140006ef0:	48 83 ec 28          	sub    rsp,0x28
   140006ef4:	e8 5b fe ff ff       	call   0x140006d54
   140006ef9:	48 83 c4 28          	add    rsp,0x28
   140006efd:	c3                   	ret
   140006efe:	cc                   	int3
   140006eff:	cc                   	int3
   140006f00:	48 83 ec 28          	sub    rsp,0x28
   140006f04:	48 8b 05 f5 80 00 00 	mov    rax,QWORD PTR [rip+0x80f5]        # 0x14000f000
   140006f0b:	48 85 c0             	test   rax,rax
   140006f0e:	74 12                	je     0x140006f22
   140006f10:	48 8d 15 e9 ff ff ff 	lea    rdx,[rip+0xffffffffffffffe9]        # 0x140006f00
   140006f17:	48 3b c2             	cmp    rax,rdx
   140006f1a:	74 06                	je     0x140006f22
   140006f1c:	ff 15 1e 42 00 00    	call   QWORD PTR [rip+0x421e]        # 0x14000b140
   140006f22:	e8 2d fe ff ff       	call   0x140006d54
   140006f27:	48 83 c4 28          	add    rsp,0x28
   140006f2b:	c3                   	ret
   140006f2c:	48 89 5c 24 08       	mov    QWORD PTR [rsp+0x8],rbx
   140006f31:	57                   	push   rdi
   140006f32:	48 83 ec 20          	sub    rsp,0x20
   140006f36:	48 8d 05 63 7e 00 00 	lea    rax,[rip+0x7e63]        # 0x14000eda0
   140006f3d:	48 8d 3d 6c 7e 00 00 	lea    rdi,[rip+0x7e6c]        # 0x14000edb0
   140006f44:	48 3b c7             	cmp    rax,rdi
   140006f47:	76 07                	jbe    0x140006f50
   140006f49:	b8 7b 00 00 c0       	mov    eax,0xc000007b
   140006f4e:	eb 2c                	jmp    0x140006f7c
   140006f50:	48 8d 1d 59 7e 00 00 	lea    rbx,[rip+0x7e59]        # 0x14000edb0
   140006f57:	eb 1c                	jmp    0x140006f75
   140006f59:	83 3b 28             	cmp    DWORD PTR [rbx],0x28
   140006f5c:	75 29                	jne    0x140006f87
   140006f5e:	48 8b 43 20          	mov    rax,QWORD PTR [rbx+0x20]
   140006f62:	48 85 c0             	test   rax,rax
   140006f65:	74 0a                	je     0x140006f71
   140006f67:	ff 15 d3 41 00 00    	call   QWORD PTR [rip+0x41d3]        # 0x14000b140
   140006f6d:	48 89 43 18          	mov    QWORD PTR [rbx+0x18],rax
   140006f71:	48 83 c3 28          	add    rbx,0x28
   140006f75:	48 3b df             	cmp    rbx,rdi
   140006f78:	72 df                	jb     0x140006f59
   140006f7a:	33 c0                	xor    eax,eax
   140006f7c:	48 8b 5c 24 30       	mov    rbx,QWORD PTR [rsp+0x30]
   140006f81:	48 83 c4 20          	add    rsp,0x20
   140006f85:	5f                   	pop    rdi
   140006f86:	c3                   	ret
   140006f87:	b8 04 00 00 c0       	mov    eax,0xc0000004
   140006f8c:	eb ee                	jmp    0x140006f7c
   140006f8e:	cc                   	int3
   140006f8f:	cc                   	int3
   140006f90:	48 89 5c 24 08       	mov    QWORD PTR [rsp+0x8],rbx
   140006f95:	48 89 74 24 10       	mov    QWORD PTR [rsp+0x10],rsi
   140006f9a:	57                   	push   rdi
   140006f9b:	48 83 ec 30          	sub    rsp,0x30
   140006f9f:	48 8b f9             	mov    rdi,rcx
   140006fa2:	48 8d 35 e7 7d 00 00 	lea    rsi,[rip+0x7de7]        # 0x14000ed90
   140006fa9:	48 8d 0d d0 7d 00 00 	lea    rcx,[rip+0x7dd0]        # 0x14000ed80
   140006fb0:	33 c0                	xor    eax,eax
   140006fb2:	48 3b ce             	cmp    rcx,rsi
   140006fb5:	77 72                	ja     0x140007029
   140006fb7:	4c 8d 05 d2 7d 00 00 	lea    r8,[rip+0x7dd2]        # 0x14000ed90
   140006fbe:	4c 3b c6             	cmp    r8,rsi
   140006fc1:	73 6b                	jae    0x14000702e
   140006fc3:	49 8d 40 04          	lea    rax,[r8+0x4]
   140006fc7:	48 3b c6             	cmp    rax,rsi
   140006fca:	77 5d                	ja     0x140007029
   140006fcc:	41 83 38 50          	cmp    DWORD PTR [r8],0x50
   140006fd0:	75 50                	jne    0x140007022
   140006fd2:	49 8d 58 50          	lea    rbx,[r8+0x50]
   140006fd6:	48 3b de             	cmp    rbx,rsi
   140006fd9:	77 4e                	ja     0x140007029
   140006fdb:	49 8b 40 38          	mov    rax,QWORD PTR [r8+0x38]
   140006fdf:	4c 89 05 b2 7d 00 00 	mov    QWORD PTR [rip+0x7db2],r8        # 0x14000ed98
   140006fe6:	48 85 c0             	test   rax,rax
   140006fe9:	74 1c                	je     0x140007007
   140006feb:	4d 8b c8             	mov    r9,r8
   140006fee:	48 8d 0d db 00 00 00 	lea    rcx,[rip+0xdb]        # 0x1400070d0
   140006ff5:	4c 8b 05 f4 7f 00 00 	mov    r8,QWORD PTR [rip+0x7ff4]        # 0x14000eff0
   140006ffc:	48 8b d7             	mov    rdx,rdi
   140006fff:	ff 15 3b 41 00 00    	call   QWORD PTR [rip+0x413b]        # 0x14000b140
   140007005:	eb 0f                	jmp    0x140007016
   140007007:	48 8b 15 e2 7f 00 00 	mov    rdx,QWORD PTR [rip+0x7fe2]        # 0x14000eff0
   14000700e:	48 8b cf             	mov    rcx,rdi
   140007011:	e8 ba 00 00 00       	call   0x1400070d0
   140007016:	85 c0                	test   eax,eax
   140007018:	78 14                	js     0x14000702e
   14000701a:	4c 8b c3             	mov    r8,rbx
   14000701d:	48 3b de             	cmp    rbx,rsi
   140007020:	eb 9f                	jmp    0x140006fc1
   140007022:	b8 04 00 00 c0       	mov    eax,0xc0000004
   140007027:	eb 05                	jmp    0x14000702e
   140007029:	b8 7b 00 00 c0       	mov    eax,0xc000007b
   14000702e:	48 8b 5c 24 40       	mov    rbx,QWORD PTR [rsp+0x40]
   140007033:	48 8b 74 24 48       	mov    rsi,QWORD PTR [rsp+0x48]
   140007038:	48 83 c4 30          	add    rsp,0x30
   14000703c:	5f                   	pop    rdi
   14000703d:	c3                   	ret
   14000703e:	cc                   	int3
   14000703f:	cc                   	int3
   140007040:	48 89 5c 24 08       	mov    QWORD PTR [rsp+0x8],rbx
   140007045:	57                   	push   rdi
   140007046:	48 83 ec 30          	sub    rsp,0x30
   14000704a:	48 8b 05 47 7d 00 00 	mov    rax,QWORD PTR [rip+0x7d47]        # 0x14000ed98
   140007051:	48 8d 1d 38 7d 00 00 	lea    rbx,[rip+0x7d38]        # 0x14000ed90
   140007058:	48 8b f9             	mov    rdi,rcx
   14000705b:	48 8d 0d 1e 7d 00 00 	lea    rcx,[rip+0x7d1e]        # 0x14000ed80
   140007062:	48 3b c1             	cmp    rax,rcx
   140007065:	74 49                	je     0x1400070b0
   140007067:	48 3b d8             	cmp    rbx,rax
   14000706a:	77 44                	ja     0x1400070b0
   14000706c:	48 8b 43 40          	mov    rax,QWORD PTR [rbx+0x40]
   140007070:	48 85 c0             	test   rax,rax
   140007073:	74 1c                	je     0x140007091
   140007075:	4c 8b 05 74 7f 00 00 	mov    r8,QWORD PTR [rip+0x7f74]        # 0x14000eff0
   14000707c:	48 8d 0d 5d 00 00 00 	lea    rcx,[rip+0x5d]        # 0x1400070e0
   140007083:	4c 8b cb             	mov    r9,rbx
   140007086:	48 8b d7             	mov    rdx,rdi
   140007089:	ff 15 b1 40 00 00    	call   QWORD PTR [rip+0x40b1]        # 0x14000b140
   14000708f:	eb 12                	jmp    0x1400070a3
   140007091:	48 8b 15 58 7f 00 00 	mov    rdx,QWORD PTR [rip+0x7f58]        # 0x14000eff0
   140007098:	4c 8b c3             	mov    r8,rbx
   14000709b:	48 8b cf             	mov    rcx,rdi
   14000709e:	e8 3d 00 00 00       	call   0x1400070e0
   1400070a3:	48 83 c3 50          	add    rbx,0x50
   1400070a7:	48 3b 1d ea 7c 00 00 	cmp    rbx,QWORD PTR [rip+0x7cea]        # 0x14000ed98
   1400070ae:	76 bc                	jbe    0x14000706c
   1400070b0:	48 8b 5c 24 40       	mov    rbx,QWORD PTR [rsp+0x40]
   1400070b5:	48 83 c4 30          	add    rsp,0x30
   1400070b9:	5f                   	pop    rdi
   1400070ba:	c3                   	ret
   1400070bb:	ff 25 47 3f 00 00    	jmp    QWORD PTR [rip+0x3f47]        # 0x14000b008
   1400070c1:	ff 25 39 3f 00 00    	jmp    QWORD PTR [rip+0x3f39]        # 0x14000b000
   1400070c7:	cc                   	int3
   1400070c8:	cc                   	int3
   1400070c9:	cc                   	int3
   1400070ca:	cc                   	int3
   1400070cb:	cc                   	int3
   1400070cc:	cc                   	int3
   1400070cd:	cc                   	int3
   1400070ce:	cc                   	int3
   1400070cf:	cc                   	int3
   1400070d0:	ff 25 42 3f 00 00    	jmp    QWORD PTR [rip+0x3f42]        # 0x14000b018
   1400070d6:	cc                   	int3
   1400070d7:	cc                   	int3
   1400070d8:	cc                   	int3
   1400070d9:	cc                   	int3
   1400070da:	cc                   	int3
   1400070db:	cc                   	int3
   1400070dc:	cc                   	int3
   1400070dd:	cc                   	int3
   1400070de:	cc                   	int3
   1400070df:	cc                   	int3
   1400070e0:	ff 25 2a 3f 00 00    	jmp    QWORD PTR [rip+0x3f2a]        # 0x14000b010
   1400070e6:	cc                   	int3
   1400070e7:	cc                   	int3
   1400070e8:	cc                   	int3
   1400070e9:	cc                   	int3
   1400070ea:	cc                   	int3
   1400070eb:	cc                   	int3
   1400070ec:	cc                   	int3
   1400070ed:	cc                   	int3
   1400070ee:	cc                   	int3
   1400070ef:	cc                   	int3
   1400070f0:	66 0f 2e 05 f8 43 00 	ucomisd xmm0,QWORD PTR [rip+0x43f8]        # 0x14000b4f0
   1400070f7:	00 
   1400070f8:	73 14                	jae    0x14000710e
   1400070fa:	66 0f 2e 05 f6 43 00 	ucomisd xmm0,QWORD PTR [rip+0x43f6]        # 0x14000b4f8
   140007101:	00 
   140007102:	76 0a                	jbe    0x14000710e
   140007104:	f2 48 0f 2d c8       	cvtsd2si rcx,xmm0
   140007109:	f2 48 0f 2a c1       	cvtsi2sd xmm0,rcx
   14000710e:	c3                   	ret
   14000710f:	cc                   	int3
   140007110:	48 81 ec 18 01 00 00 	sub    rsp,0x118
   140007117:	66 0f 7f b4 24 b0 00 	movdqa XMMWORD PTR [rsp+0xb0],xmm6
   14000711e:	00 00 
   140007120:	66 0f 7f bc 24 c0 00 	movdqa XMMWORD PTR [rsp+0xc0],xmm7
   140007127:	00 00 
   140007129:	f2 0f 11 44 24 40    	movsd  QWORD PTR [rsp+0x40],xmm0
   14000712f:	f2 0f 11 4c 24 50    	movsd  QWORD PTR [rsp+0x50],xmm1
   140007135:	48 8b 54 24 40       	mov    rdx,QWORD PTR [rsp+0x40]
   14000713a:	4c 8b 44 24 50       	mov    r8,QWORD PTR [rsp+0x50]
   14000713f:	4c 8b 15 e2 54 00 00 	mov    r10,QWORD PTR [rip+0x54e2]        # 0x14000c628
   140007146:	4d 23 d0             	and    r10,r8
   140007149:	0f 84 31 07 00 00    	je     0x140007880
   14000714f:	4c 3b 05 c2 54 00 00 	cmp    r8,QWORD PTR [rip+0x54c2]        # 0x14000c618
   140007156:	0f 84 34 07 00 00    	je     0x140007890
   14000715c:	4c 8b 0d 8d 54 00 00 	mov    r9,QWORD PTR [rip+0x548d]        # 0x14000c5f0
   140007163:	4c 23 ca             	and    r9,rdx
   140007166:	4c 3b 0d 83 54 00 00 	cmp    r9,QWORD PTR [rip+0x5483]        # 0x14000c5f0
   14000716d:	48 8b 05 ac 54 00 00 	mov    rax,QWORD PTR [rip+0x54ac]        # 0x14000c620
   140007174:	48 89 44 24 70       	mov    QWORD PTR [rsp+0x70],rax
   140007179:	0f 84 f1 04 00 00    	je     0x140007670
   14000717f:	48 3b 15 92 54 00 00 	cmp    rdx,QWORD PTR [rip+0x5492]        # 0x14000c618
   140007186:	0f 84 e4 06 00 00    	je     0x140007870
   14000718c:	48 3b 15 8d 54 00 00 	cmp    rdx,QWORD PTR [rip+0x548d]        # 0x14000c620
   140007193:	0f 84 27 08 00 00    	je     0x1400079c0
   140007199:	4c 8b 0d 60 54 00 00 	mov    r9,QWORD PTR [rip+0x5460]        # 0x14000c600
   1400071a0:	4c 23 ca             	and    r9,rdx
   1400071a3:	4c 3b 0d 56 54 00 00 	cmp    r9,QWORD PTR [rip+0x5456]        # 0x14000c600
   1400071aa:	0f 84 b0 08 00 00    	je     0x140007a60
   1400071b0:	4c 8b 15 49 54 00 00 	mov    r10,QWORD PTR [rip+0x5449]        # 0x14000c600
   1400071b7:	4d 23 d0             	and    r10,r8
   1400071ba:	4c 3b 15 1f 54 00 00 	cmp    r10,QWORD PTR [rip+0x541f]        # 0x14000c5e0
   1400071c1:	0f 8f a9 07 00 00    	jg     0x140007970
   1400071c7:	4c 8b 15 32 54 00 00 	mov    r10,QWORD PTR [rip+0x5432]        # 0x14000c600
   1400071ce:	4d 23 d0             	and    r10,r8
   1400071d1:	4c 3b 15 10 54 00 00 	cmp    r10,QWORD PTR [rip+0x5410]        # 0x14000c5e8
   1400071d8:	0f 8c f2 08 00 00    	jl     0x140007ad0
   1400071de:	4d 33 c0             	xor    r8,r8
   1400071e1:	66 0f 6f d8          	movdqa xmm3,xmm0
   1400071e5:	66 0f 73 d3 34       	psrlq  xmm3,0x34
   1400071ea:	66 49 0f 7e c0       	movq   r8,xmm0
   1400071ef:	66 0f fb 1d 39 55 00 	psubq  xmm3,XMMWORD PTR [rip+0x5539]        # 0x14000c730
   1400071f6:	00 
   1400071f7:	66 0f 6f d0          	movdqa xmm2,xmm0
   1400071fb:	f3 0f e6 f3          	cvtdq2pd xmm6,xmm3
   1400071ff:	66 0f db 15 19 55 00 	pand   xmm2,XMMWORD PTR [rip+0x5519]        # 0x14000c720
   140007206:	00 
   140007207:	66 0f 2f 35 01 56 00 	comisd xmm6,QWORD PTR [rip+0x5601]        # 0x14000c810
   14000720e:	00 
   14000720f:	0f 84 1b 04 00 00    	je     0x140007630
   140007215:	f2 0f 10 f8          	movsd  xmm7,xmm0
   140007219:	4d 8b c8             	mov    r9,r8
   14000721c:	4c 23 05 75 54 00 00 	and    r8,QWORD PTR [rip+0x5475]        # 0x14000c698
   140007223:	4c 23 0d 76 54 00 00 	and    r9,QWORD PTR [rip+0x5476]        # 0x14000c6a0
   14000722a:	f2 0f 5c 3d 4e 55 00 	subsd  xmm7,QWORD PTR [rip+0x554e]        # 0x14000c780
   140007231:	00 
   140007232:	49 d1 e1             	shl    r9,1
   140007235:	4d 03 c1             	add    r8,r9
   140007238:	4c 89 84 24 a0 00 00 	mov    QWORD PTR [rsp+0xa0],r8
   14000723f:	00 
   140007240:	66 0f 54 3d f8 55 00 	andpd  xmm7,XMMWORD PTR [rip+0x55f8]        # 0x14000c840
   140007247:	00 
   140007248:	f2 0f 10 8c 24 a0 00 	movsd  xmm1,QWORD PTR [rsp+0xa0]
   14000724f:	00 00 
   140007251:	49 c1 e8 2c          	shr    r8,0x2c
   140007255:	66 0f eb 15 33 55 00 	por    xmm2,XMMWORD PTR [rip+0x5533]        # 0x14000c790
   14000725c:	00 
   14000725d:	66 0f eb 0d 2b 55 00 	por    xmm1,XMMWORD PTR [rip+0x552b]        # 0x14000c790
   140007264:	00 
   140007265:	66 0f 2f 3d c3 55 00 	comisd xmm7,QWORD PTR [rip+0x55c3]        # 0x14000c830
   14000726c:	00 
   14000726d:	4c 8d 0d fc 65 00 00 	lea    r9,[rip+0x65fc]        # 0x14000d870
   140007274:	48 8d 15 05 6e 00 00 	lea    rdx,[rip+0x6e05]        # 0x14000e080
   14000727b:	0f 82 bf 04 00 00    	jb     0x140007740
   140007281:	f2 0f 5c ca          	subsd  xmm1,xmm2
   140007285:	f2 0f 10 e1          	movsd  xmm4,xmm1
   140007289:	f2 43 0f 59 0c c1    	mulsd  xmm1,QWORD PTR [r9+r8*8]
   14000728f:	f2 0f 10 e9          	movsd  xmm5,xmm1
   140007293:	f2 42 0f 59 24 c2    	mulsd  xmm4,QWORD PTR [rdx+r8*8]
   140007299:	f2 0f 10 fc          	movsd  xmm7,xmm4
   14000729d:	f2 0f 58 cc          	addsd  xmm1,xmm4
   1400072a1:	f2 0f 10 d1          	movsd  xmm2,xmm1
   1400072a5:	f2 0f 10 c1          	movsd  xmm0,xmm1
   1400072a9:	4c 8d 0d a0 55 00 00 	lea    r9,[rip+0x55a0]        # 0x14000c850
   1400072b0:	f2 0f 10 1d 38 55 00 	movsd  xmm3,QWORD PTR [rip+0x5538]        # 0x14000c7f0
   1400072b7:	00 
   1400072b8:	f2 0f 10 0d 00 55 00 	movsd  xmm1,QWORD PTR [rip+0x5500]        # 0x14000c7c0
   1400072bf:	00 
   1400072c0:	f2 0f 59 da          	mulsd  xmm3,xmm2
   1400072c4:	f2 0f 59 ca          	mulsd  xmm1,xmm2
   1400072c8:	f2 0f 59 c2          	mulsd  xmm0,xmm2
   1400072cc:	f2 0f 5c ea          	subsd  xmm5,xmm2
   1400072d0:	f2 0f 10 e0          	movsd  xmm4,xmm0
   1400072d4:	f2 0f 58 1d 04 55 00 	addsd  xmm3,QWORD PTR [rip+0x5504]        # 0x14000c7e0
   1400072db:	00 
   1400072dc:	f2 0f 58 0d cc 54 00 	addsd  xmm1,QWORD PTR [rip+0x54cc]        # 0x14000c7b0
   1400072e3:	00 
   1400072e4:	f2 0f 59 e0          	mulsd  xmm4,xmm0
   1400072e8:	f2 0f 59 da          	mulsd  xmm3,xmm2
   1400072ec:	f2 0f 59 c8          	mulsd  xmm1,xmm0
   1400072f0:	f2 0f 58 1d d8 54 00 	addsd  xmm3,QWORD PTR [rip+0x54d8]        # 0x14000c7d0
   1400072f7:	00 
   1400072f8:	f2 0f 58 fd          	addsd  xmm7,xmm5
   1400072fc:	f2 0f 59 dc          	mulsd  xmm3,xmm4
   140007300:	f2 0f 58 cb          	addsd  xmm1,xmm3
   140007304:	f2 0f 58 cf          	addsd  xmm1,xmm7
   140007308:	f2 0f 10 2d 50 54 00 	movsd  xmm5,QWORD PTR [rip+0x5450]        # 0x14000c760
   14000730f:	00 
   140007310:	48 8d 15 49 5d 00 00 	lea    rdx,[rip+0x5d49]        # 0x14000d060
   140007317:	f2 0f 59 ee          	mulsd  xmm5,xmm6
   14000731b:	f2 43 0f 10 04 c1    	movsd  xmm0,QWORD PTR [r9+r8*8]
   140007321:	f2 0f 5c e9          	subsd  xmm5,xmm1
   140007325:	f2 42 0f 10 1c c2    	movsd  xmm3,QWORD PTR [rdx+r8*8]
   14000732b:	f2 0f 58 dd          	addsd  xmm3,xmm5
   14000732f:	f2 0f 10 cb          	movsd  xmm1,xmm3
   140007333:	f2 0f 5c da          	subsd  xmm3,xmm2
   140007337:	f2 0f 10 3d 11 54 00 	movsd  xmm7,QWORD PTR [rip+0x5411]        # 0x14000c750
   14000733e:	00 
   14000733f:	f2 0f 59 fe          	mulsd  xmm7,xmm6
   140007343:	f2 0f 58 c7          	addsd  xmm0,xmm7
   140007347:	f2 0f 10 f8          	movsd  xmm7,xmm0
   14000734b:	f2 0f 58 c3          	addsd  xmm0,xmm3
   14000734f:	f2 0f 10 e8          	movsd  xmm5,xmm0
   140007353:	66 0f 54 05 55 53 00 	andpd  xmm0,XMMWORD PTR [rip+0x5355]        # 0x14000c6b0
   14000735a:	00 
   14000735b:	48 8b 44 24 50       	mov    rax,QWORD PTR [rsp+0x50]
   140007360:	48 23 05 49 53 00 00 	and    rax,QWORD PTR [rip+0x5349]        # 0x14000c6b0
   140007367:	f2 0f 58 d3          	addsd  xmm2,xmm3
   14000736b:	f2 0f 5c fd          	subsd  xmm7,xmm5
   14000736f:	f2 0f 5c ca          	subsd  xmm1,xmm2
   140007373:	f2 0f 58 fb          	addsd  xmm7,xmm3
   140007377:	f2 0f 5c e8          	subsd  xmm5,xmm0
   14000737b:	48 89 84 24 90 00 00 	mov    QWORD PTR [rsp+0x90],rax
   140007382:	00 
   140007383:	f2 0f 10 64 24 50    	movsd  xmm4,QWORD PTR [rsp+0x50]
   140007389:	f2 0f 58 f9          	addsd  xmm7,xmm1
   14000738d:	f2 0f 58 fd          	addsd  xmm7,xmm5
   140007391:	f2 0f 10 94 24 90 00 	movsd  xmm2,QWORD PTR [rsp+0x90]
   140007398:	00 00 
   14000739a:	f2 0f 5c e2          	subsd  xmm4,xmm2
   14000739e:	f2 0f 10 dc          	movsd  xmm3,xmm4
   1400073a2:	f2 0f 10 ef          	movsd  xmm5,xmm7
   1400073a6:	f2 0f 10 f0          	movsd  xmm6,xmm0
   1400073aa:	f2 0f 59 df          	mulsd  xmm3,xmm7
   1400073ae:	f2 0f 59 e0          	mulsd  xmm4,xmm0
   1400073b2:	f2 0f 59 ea          	mulsd  xmm5,xmm2
   1400073b6:	f2 0f 59 f2          	mulsd  xmm6,xmm2
   1400073ba:	f2 0f 10 ce          	movsd  xmm1,xmm6
   1400073be:	f2 0f 58 dc          	addsd  xmm3,xmm4
   1400073c2:	f2 0f 58 dd          	addsd  xmm3,xmm5
   1400073c6:	f2 0f 58 cb          	addsd  xmm1,xmm3
   1400073ca:	f2 0f 10 c1          	movsd  xmm0,xmm1
   1400073ce:	f2 0f 5c f1          	subsd  xmm6,xmm1
   1400073d2:	f2 0f 58 f3          	addsd  xmm6,xmm3
   1400073d6:	f2 0f 10 3d 22 75 00 	movsd  xmm7,QWORD PTR [rip+0x7522]        # 0x14000e900
   1400073dd:	00 
   1400073de:	f2 0f 11 44 24 60    	movsd  QWORD PTR [rsp+0x60],xmm0
   1400073e4:	f2 0f 59 f8          	mulsd  xmm7,xmm0
   1400073e8:	48 8b 54 24 60       	mov    rdx,QWORD PTR [rsp+0x60]
   1400073ed:	66 0f 2f 3d eb 74 00 	comisd xmm7,QWORD PTR [rip+0x74eb]        # 0x14000e8e0
   1400073f4:	00 
   1400073f5:	0f 87 15 02 00 00    	ja     0x140007610
   1400073fb:	66 0f 2f 3d ed 74 00 	comisd xmm7,QWORD PTR [rip+0x74ed]        # 0x14000e8f0
   140007402:	00 
   140007403:	0f 82 e7 01 00 00    	jb     0x1400075f0
   140007409:	f2 0f e6 e7          	cvtpd2dq xmm4,xmm7
   14000740d:	4c 8d 15 6c 75 00 00 	lea    r10,[rip+0x756c]        # 0x14000e980
   140007414:	4c 8d 1d 65 77 00 00 	lea    r11,[rip+0x7765]        # 0x14000eb80
   14000741b:	f3 0f e6 cc          	cvtdq2pd xmm1,xmm4
   14000741f:	f2 0f 10 15 e9 74 00 	movsd  xmm2,QWORD PTR [rip+0x74e9]        # 0x14000e910
   140007426:	00 
   140007427:	f2 0f 59 d1          	mulsd  xmm2,xmm1
   14000742b:	66 0f 7e e1          	movd   ecx,xmm4
   14000742f:	48 c7 c0 3f 00 00 00 	mov    rax,0x3f
   140007436:	23 c1                	and    eax,ecx
   140007438:	f2 0f 5c c2          	subsd  xmm0,xmm2
   14000743c:	f2 0f 59 0d dc 74 00 	mulsd  xmm1,QWORD PTR [rip+0x74dc]        # 0x14000e920
   140007443:	00 
   140007444:	f2 0f 10 d0          	movsd  xmm2,xmm0
   140007448:	2b c8                	sub    ecx,eax
   14000744a:	c1 f9 06             	sar    ecx,0x6
   14000744d:	f2 0f 58 d1          	addsd  xmm2,xmm1
   140007451:	f2 0f 58 d6          	addsd  xmm2,xmm6
   140007455:	f2 0f 10 ca          	movsd  xmm1,xmm2
   140007459:	f2 0f 10 05 0f 75 00 	movsd  xmm0,QWORD PTR [rip+0x750f]        # 0x14000e970
   140007460:	00 
   140007461:	f2 0f 10 1d e7 74 00 	movsd  xmm3,QWORD PTR [rip+0x74e7]        # 0x14000e950
   140007468:	00 
   140007469:	f2 0f 10 25 bf 74 00 	movsd  xmm4,QWORD PTR [rip+0x74bf]        # 0x14000e930
   140007470:	00 
   140007471:	f2 0f 59 ca          	mulsd  xmm1,xmm2
   140007475:	f2 0f 59 c2          	mulsd  xmm0,xmm2
   140007479:	f2 0f 59 da          	mulsd  xmm3,xmm2
   14000747d:	f2 0f 59 e2          	mulsd  xmm4,xmm2
   140007481:	f2 0f 10 e9          	movsd  xmm5,xmm1
   140007485:	f2 0f 59 ca          	mulsd  xmm1,xmm2
   140007489:	f2 0f 58 05 ef 52 00 	addsd  xmm0,QWORD PTR [rip+0x52ef]        # 0x14000c780
   140007490:	00 
   140007491:	f2 0f 58 1d c7 74 00 	addsd  xmm3,QWORD PTR [rip+0x74c7]        # 0x14000e960
   140007498:	00 
   140007499:	f2 0f 59 e9          	mulsd  xmm5,xmm1
   14000749d:	f2 0f 58 25 9b 74 00 	addsd  xmm4,QWORD PTR [rip+0x749b]        # 0x14000e940
   1400074a4:	00 
   1400074a5:	f2 0f 59 c2          	mulsd  xmm0,xmm2
   1400074a9:	f2 0f 59 d9          	mulsd  xmm3,xmm1
   1400074ad:	f2 0f 59 e5          	mulsd  xmm4,xmm5
   1400074b1:	45 33 c9             	xor    r9d,r9d
   1400074b4:	3b 0d d6 73 00 00    	cmp    ecx,DWORD PTR [rip+0x73d6]        # 0x14000e890
   1400074ba:	f2 0f 58 dc          	addsd  xmm3,xmm4
   1400074be:	f2 0f 58 c3          	addsd  xmm0,xmm3
   1400074c2:	44 0f 4e c9          	cmovle r9d,ecx
   1400074c6:	48 81 c1 ff 03 00 00 	add    rcx,0x3ff
   1400074cd:	48 c1 e1 34          	shl    rcx,0x34
   1400074d1:	f2 41 0f 10 2c c3    	movsd  xmm5,QWORD PTR [r11+rax*8]
   1400074d7:	f2 41 0f 10 0c c2    	movsd  xmm1,QWORD PTR [r10+rax*8]
   1400074dd:	f2 0f 59 e8          	mulsd  xmm5,xmm0
   1400074e1:	f2 0f 59 c8          	mulsd  xmm1,xmm0
   1400074e5:	48 3b 0d 14 52 00 00 	cmp    rcx,QWORD PTR [rip+0x5214]        # 0x14000c700
   1400074ec:	f2 41 0f 58 2c c3    	addsd  xmm5,QWORD PTR [r11+rax*8]
   1400074f2:	f2 0f 58 cd          	addsd  xmm1,xmm5
   1400074f6:	f2 41 0f 58 0c c2    	addsd  xmm1,QWORD PTR [r10+rax*8]
   1400074fc:	f2 0f 10 c1          	movsd  xmm0,xmm1
   140007500:	74 3e                	je     0x140007540
   140007502:	45 85 c9             	test   r9d,r9d
   140007505:	48 89 4c 24 60       	mov    QWORD PTR [rsp+0x60],rcx
   14000750a:	75 54                	jne    0x140007560
   14000750c:	f2 0f 59 44 24 60    	mulsd  xmm0,QWORD PTR [rsp+0x60]
   140007512:	66 0f 56 44 24 70    	orpd   xmm0,XMMWORD PTR [rsp+0x70]
   140007518:	66 0f 6f bc 24 c0 00 	movdqa xmm7,XMMWORD PTR [rsp+0xc0]
   14000751f:	00 00 
   140007521:	66 0f 6f b4 24 b0 00 	movdqa xmm6,XMMWORD PTR [rsp+0xb0]
   140007528:	00 00 
   14000752a:	48 81 c4 18 01 00 00 	add    rsp,0x118
   140007531:	c3                   	ret
   140007532:	66 66 66 66 66 66 0f 	data16 data16 data16 data16 data16 nop WORD PTR [rax+rax*1+0x0]
   140007539:	1f 84 00 00 00 00 00 
   140007540:	66 0f 2f 05 38 52 00 	comisd xmm0,QWORD PTR [rip+0x5238]        # 0x14000c780
   140007547:	00 
   140007548:	0f 83 c2 00 00 00    	jae    0x140007610
   14000754e:	66 0f 56 05 4a 73 00 	orpd   xmm0,XMMWORD PTR [rip+0x734a]        # 0x14000e8a0
   140007555:	00 
   140007556:	66 0f 56 44 24 70    	orpd   xmm0,XMMWORD PTR [rsp+0x70]
   14000755c:	eb ba                	jmp    0x140007518
   14000755e:	66 90                	xchg   ax,ax
   140007560:	41 8b c9             	mov    ecx,r9d
   140007563:	45 33 db             	xor    r11d,r11d
   140007566:	66 0f 2f 05 12 52 00 	comisd xmm0,QWORD PTR [rip+0x5212]        # 0x14000c780
   14000756d:	00 
   14000756e:	44 0f 43 d9          	cmovae r11d,ecx
   140007572:	44 3b 1d 17 73 00 00 	cmp    r11d,DWORD PTR [rip+0x7317]        # 0x14000e890
   140007579:	75 15                	jne    0x140007590
   14000757b:	f2 0f 59 44 24 60    	mulsd  xmm0,QWORD PTR [rsp+0x60]
   140007581:	66 0f 56 44 24 70    	orpd   xmm0,XMMWORD PTR [rsp+0x70]
   140007587:	eb 8f                	jmp    0x140007518
   140007589:	0f 1f 80 00 00 00 00 	nop    DWORD PTR [rax+0x0]
   140007590:	4d 33 c0             	xor    r8,r8
   140007593:	48 3b 15 36 73 00 00 	cmp    rdx,QWORD PTR [rip+0x7336]        # 0x14000e8d0
   14000759a:	49 c7 c1 01 00 00 00 	mov    r9,0x1
   1400075a1:	7f 2d                	jg     0x1400075d0
   1400075a3:	81 c1 32 04 00 00    	add    ecx,0x432
   1400075a9:	49 0f 48 c8          	cmovs  rcx,r8
   1400075ad:	49 d3 e1             	shl    r9,cl
   1400075b0:	49 8b c9             	mov    rcx,r9
   1400075b3:	48 89 4c 24 60       	mov    QWORD PTR [rsp+0x60],rcx
   1400075b8:	f2 0f 59 44 24 60    	mulsd  xmm0,QWORD PTR [rsp+0x60]
   1400075be:	66 0f 56 44 24 70    	orpd   xmm0,XMMWORD PTR [rsp+0x70]
   1400075c4:	e9 d7 06 00 00       	jmp    0x140007ca0
   1400075c9:	0f 1f 80 00 00 00 00 	nop    DWORD PTR [rax+0x0]
   1400075d0:	f2 0f 10 05 e8 72 00 	movsd  xmm0,QWORD PTR [rip+0x72e8]        # 0x14000e8c0
   1400075d7:	00 
   1400075d8:	66 0f 56 44 24 70    	orpd   xmm0,XMMWORD PTR [rsp+0x70]
   1400075de:	e9 bd 06 00 00       	jmp    0x140007ca0
   1400075e3:	66 66 66 66 66 0f 1f 	data16 data16 data16 data16 nop WORD PTR [rax+rax*1+0x0]
   1400075ea:	84 00 00 00 00 00 
   1400075f0:	4c 8b 1d b9 72 00 00 	mov    r11,QWORD PTR [rip+0x72b9]        # 0x14000e8b0
   1400075f7:	4c 0b 5c 24 70       	or     r11,QWORD PTR [rsp+0x70]
   1400075fc:	e9 6f 05 00 00       	jmp    0x140007b70
   140007601:	66 66 66 66 66 66 66 	data16 data16 data16 data16 data16 data16 nop WORD PTR [rax+rax*1+0x0]
   140007608:	0f 1f 84 00 00 00 00 
   14000760f:	00 
   140007610:	4c 8b 1d e9 50 00 00 	mov    r11,QWORD PTR [rip+0x50e9]        # 0x14000c700
   140007617:	4c 0b 5c 24 70       	or     r11,QWORD PTR [rsp+0x70]
   14000761c:	e9 4f 05 00 00       	jmp    0x140007b70
   140007621:	66 66 66 66 66 66 66 	data16 data16 data16 data16 data16 data16 nop WORD PTR [rax+rax*1+0x0]
   140007628:	0f 1f 84 00 00 00 00 
   14000762f:	00 
   140007630:	66 0f eb 15 48 51 00 	por    xmm2,XMMWORD PTR [rip+0x5148]        # 0x14000c780
   140007637:	00 
   140007638:	f2 0f 5c 15 40 51 00 	subsd  xmm2,QWORD PTR [rip+0x5140]        # 0x14000c780
   14000763f:	00 
   140007640:	f2 0f 10 ea          	movsd  xmm5,xmm2
   140007644:	66 0f db 15 d4 50 00 	pand   xmm2,XMMWORD PTR [rip+0x50d4]        # 0x14000c720
   14000764b:	00 
   14000764c:	66 49 0f 7e d0       	movq   r8,xmm2
   140007651:	66 0f 73 d5 34       	psrlq  xmm5,0x34
   140007656:	66 0f fa 2d c2 51 00 	psubd  xmm5,XMMWORD PTR [rip+0x51c2]        # 0x14000c820
   14000765d:	00 
   14000765e:	f3 0f e6 f5          	cvtdq2pd xmm6,xmm5
   140007662:	e9 ae fb ff ff       	jmp    0x140007215
   140007667:	66 0f 1f 84 00 00 00 	nop    WORD PTR [rax+rax*1+0x0]
   14000766e:	00 00 
   140007670:	4c 8b 15 89 4f 00 00 	mov    r10,QWORD PTR [rip+0x4f89]        # 0x14000c600
   140007677:	4d 23 d0             	and    r10,r8
   14000767a:	4c 3b 15 5f 4f 00 00 	cmp    r10,QWORD PTR [rip+0x4f5f]        # 0x14000c5e0
   140007681:	0f 8f e9 02 00 00    	jg     0x140007970
   140007687:	4c 8b 15 9a 4f 00 00 	mov    r10,QWORD PTR [rip+0x4f9a]        # 0x14000c628
   14000768e:	4d 23 d0             	and    r10,r8
   140007691:	4d 8b da             	mov    r11,r10
   140007694:	48 8b 0d cd 4f 00 00 	mov    rcx,QWORD PTR [rip+0x4fcd]        # 0x14000c668
   14000769b:	49 d3 ea             	shr    r10,cl
   14000769e:	4c 2b 15 cb 4f 00 00 	sub    r10,QWORD PTR [rip+0x4fcb]        # 0x14000c670
   1400076a5:	0f 88 75 02 00 00    	js     0x140007920
   1400076ab:	48 8b 05 76 4f 00 00 	mov    rax,QWORD PTR [rip+0x4f76]        # 0x14000c628
   1400076b2:	48 23 c2             	and    rax,rdx
   1400076b5:	48 89 84 24 80 00 00 	mov    QWORD PTR [rsp+0x80],rax
   1400076bc:	00 
   1400076bd:	4c 3b 15 bc 4f 00 00 	cmp    r10,QWORD PTR [rip+0x4fbc]        # 0x14000c680
   1400076c4:	49 8b ca             	mov    rcx,r10
   1400076c7:	7f 2e                	jg     0x1400076f7
   1400076c9:	4c 8b 0d b8 4f 00 00 	mov    r9,QWORD PTR [rip+0x4fb8]        # 0x14000c688
   1400076d0:	49 d3 e9             	shr    r9,cl
   1400076d3:	4d 23 cb             	and    r9,r11
   1400076d6:	0f 85 44 02 00 00    	jne    0x140007920
   1400076dc:	4c 8b 0d ad 4f 00 00 	mov    r9,QWORD PTR [rip+0x4fad]        # 0x14000c690
   1400076e3:	49 d3 e9             	shr    r9,cl
   1400076e6:	4d 23 cb             	and    r9,r11
   1400076e9:	74 0c                	je     0x1400076f7
   1400076eb:	48 8b 05 fe 4e 00 00 	mov    rax,QWORD PTR [rip+0x4efe]        # 0x14000c5f0
   1400076f2:	48 89 44 24 70       	mov    QWORD PTR [rsp+0x70],rax
   1400076f7:	48 3b 15 62 4f 00 00 	cmp    rdx,QWORD PTR [rip+0x4f62]        # 0x14000c660
   1400076fe:	0f 84 bc 02 00 00    	je     0x1400079c0
   140007704:	48 3b 15 4d 4f 00 00 	cmp    rdx,QWORD PTR [rip+0x4f4d]        # 0x14000c658
   14000770b:	0f 84 bf 01 00 00    	je     0x1400078d0
   140007711:	4c 8b 0d e8 4e 00 00 	mov    r9,QWORD PTR [rip+0x4ee8]        # 0x14000c600
   140007718:	4c 23 ca             	and    r9,rdx
   14000771b:	4c 3b 0d de 4e 00 00 	cmp    r9,QWORD PTR [rip+0x4ede]        # 0x14000c600
   140007722:	0f 84 38 03 00 00    	je     0x140007a60
   140007728:	f2 0f 10 84 24 80 00 	movsd  xmm0,QWORD PTR [rsp+0x80]
   14000772f:	00 00 
   140007731:	e9 a8 fa ff ff       	jmp    0x1400071de
   140007736:	66 66 0f 1f 84 00 00 	data16 nop WORD PTR [rax+rax*1+0x0]
   14000773d:	00 00 00 
   140007740:	f2 0f 10 c1          	movsd  xmm0,xmm1
   140007744:	f2 0f 5c ca          	subsd  xmm1,xmm2
   140007748:	f2 0f 10 e1          	movsd  xmm4,xmm1
   14000774c:	f2 43 0f 10 1c c1    	movsd  xmm3,QWORD PTR [r9+r8*8]
   140007752:	f2 42 0f 58 1c c2    	addsd  xmm3,QWORD PTR [rdx+r8*8]
   140007758:	f2 0f 59 e3          	mulsd  xmm4,xmm3
   14000775c:	66 0f 54 25 4c 4f 00 	andpd  xmm4,XMMWORD PTR [rip+0x4f4c]        # 0x14000c6b0
   140007763:	00 
   140007764:	f2 0f 10 ec          	movsd  xmm5,xmm4
   140007768:	f2 0f 59 e0          	mulsd  xmm4,xmm0
   14000776c:	f2 0f 5c cc          	subsd  xmm1,xmm4
   140007770:	f2 0f 59 cb          	mulsd  xmm1,xmm3
   140007774:	f2 0f 10 f9          	movsd  xmm7,xmm1
   140007778:	f2 0f 58 cd          	addsd  xmm1,xmm5
   14000777c:	f2 0f 10 d1          	movsd  xmm2,xmm1
   140007780:	f2 0f 10 c1          	movsd  xmm0,xmm1
   140007784:	4c 8d 0d c5 50 00 00 	lea    r9,[rip+0x50c5]        # 0x14000c850
   14000778b:	f2 0f 10 1d 6d 50 00 	movsd  xmm3,QWORD PTR [rip+0x506d]        # 0x14000c800
   140007792:	00 
   140007793:	f2 0f 10 0d 35 50 00 	movsd  xmm1,QWORD PTR [rip+0x5035]        # 0x14000c7d0
   14000779a:	00 
   14000779b:	f2 0f 59 da          	mulsd  xmm3,xmm2
   14000779f:	f2 0f 59 ca          	mulsd  xmm1,xmm2
   1400077a3:	f2 0f 59 c2          	mulsd  xmm0,xmm2
   1400077a7:	f2 0f 10 e0          	movsd  xmm4,xmm0
   1400077ab:	f2 0f 58 1d 3d 50 00 	addsd  xmm3,QWORD PTR [rip+0x503d]        # 0x14000c7f0
   1400077b2:	00 
   1400077b3:	f2 0f 58 0d 05 50 00 	addsd  xmm1,QWORD PTR [rip+0x5005]        # 0x14000c7c0
   1400077ba:	00 
   1400077bb:	f2 0f 59 e0          	mulsd  xmm4,xmm0
   1400077bf:	f2 0f 59 da          	mulsd  xmm3,xmm2
   1400077c3:	f2 0f 59 ca          	mulsd  xmm1,xmm2
   1400077c7:	f2 0f 58 1d 11 50 00 	addsd  xmm3,QWORD PTR [rip+0x5011]        # 0x14000c7e0
   1400077ce:	00 
   1400077cf:	f2 0f 59 da          	mulsd  xmm3,xmm2
   1400077d3:	f2 0f 59 c8          	mulsd  xmm1,xmm0
   1400077d7:	f2 0f 59 dc          	mulsd  xmm3,xmm4
   1400077db:	f2 0f 10 d5          	movsd  xmm2,xmm5
   1400077df:	f2 0f 10 c7          	movsd  xmm0,xmm7
   1400077e3:	f2 0f 59 c0          	mulsd  xmm0,xmm0
   1400077e7:	f2 0f 59 05 c1 4f 00 	mulsd  xmm0,QWORD PTR [rip+0x4fc1]        # 0x14000c7b0
   1400077ee:	00 
   1400077ef:	f2 0f 59 ef          	mulsd  xmm5,xmm7
   1400077f3:	f2 0f 58 e8          	addsd  xmm5,xmm0
   1400077f7:	f2 0f 58 ef          	addsd  xmm5,xmm7
   1400077fb:	f2 0f 10 c2          	movsd  xmm0,xmm2
   1400077ff:	f2 0f 10 fa          	movsd  xmm7,xmm2
   140007803:	f2 0f 59 c0          	mulsd  xmm0,xmm0
   140007807:	f2 0f 59 05 a1 4f 00 	mulsd  xmm0,QWORD PTR [rip+0x4fa1]        # 0x14000c7b0
   14000780e:	00 
   14000780f:	f2 0f 10 e0          	movsd  xmm4,xmm0
   140007813:	f2 0f 58 d0          	addsd  xmm2,xmm0
   140007817:	f2 0f 5c fa          	subsd  xmm7,xmm2
   14000781b:	f2 0f 58 fc          	addsd  xmm7,xmm4
   14000781f:	f2 0f 58 df          	addsd  xmm3,xmm7
   140007823:	f2 0f 10 25 35 4f 00 	movsd  xmm4,QWORD PTR [rip+0x4f35]        # 0x14000c760
   14000782a:	00 
   14000782b:	f2 0f 58 cb          	addsd  xmm1,xmm3
   14000782f:	f2 0f 59 e6          	mulsd  xmm4,xmm6
   140007833:	48 8d 15 26 58 00 00 	lea    rdx,[rip+0x5826]        # 0x14000d060
   14000783a:	f2 0f 58 cd          	addsd  xmm1,xmm5
   14000783e:	f2 42 0f 58 24 c2    	addsd  xmm4,QWORD PTR [rdx+r8*8]
   140007844:	f2 0f 5c e1          	subsd  xmm4,xmm1
   140007848:	f2 0f 10 dc          	movsd  xmm3,xmm4
   14000784c:	f2 0f 10 cc          	movsd  xmm1,xmm4
   140007850:	f2 0f 5c da          	subsd  xmm3,xmm2
   140007854:	f2 43 0f 10 04 c1    	movsd  xmm0,QWORD PTR [r9+r8*8]
   14000785a:	f2 0f 10 3d ee 4e 00 	movsd  xmm7,QWORD PTR [rip+0x4eee]        # 0x14000c750
   140007861:	00 
   140007862:	f2 0f 59 fe          	mulsd  xmm7,xmm6
   140007866:	f2 0f 58 c7          	addsd  xmm0,xmm7
   14000786a:	e9 d8 fa ff ff       	jmp    0x140007347
   14000786f:	90                   	nop
   140007870:	e9 a3 fc ff ff       	jmp    0x140007518
   140007875:	66 66 66 0f 1f 84 00 	data16 data16 nop WORD PTR [rax+rax*1+0x0]
   14000787c:	00 00 00 00 
   140007880:	f2 0f 10 05 f8 4e 00 	movsd  xmm0,QWORD PTR [rip+0x4ef8]        # 0x14000c780
   140007887:	00 
   140007888:	e9 8b fc ff ff       	jmp    0x140007518
   14000788d:	0f 1f 00             	nop    DWORD PTR [rax]
   140007890:	48 33 c0             	xor    rax,rax
   140007893:	4c 8b da             	mov    r11,rdx
   140007896:	4c 8b 0d 63 4d 00 00 	mov    r9,QWORD PTR [rip+0x4d63]        # 0x14000c600
   14000789d:	4c 23 ca             	and    r9,rdx
   1400078a0:	4c 3b 0d 59 4d 00 00 	cmp    r9,QWORD PTR [rip+0x4d59]        # 0x14000c600
   1400078a7:	48 0f 44 c2          	cmove  rax,rdx
   1400078ab:	4c 8b 0d 7e 4d 00 00 	mov    r9,QWORD PTR [rip+0x4d7e]        # 0x14000c630
   1400078b2:	4c 23 c8             	and    r9,rax
   1400078b5:	0f 85 05 03 00 00    	jne    0x140007bc0
   1400078bb:	66 48 0f 6e c2       	movq   xmm0,rdx
   1400078c0:	e9 53 fc ff ff       	jmp    0x140007518
   1400078c5:	66 66 66 0f 1f 84 00 	data16 data16 nop WORD PTR [rax+rax*1+0x0]
   1400078cc:	00 00 00 00 
   1400078d0:	48 8b 15 41 4d 00 00 	mov    rdx,QWORD PTR [rip+0x4d41]        # 0x14000c618
   1400078d7:	48 0b 54 24 70       	or     rdx,QWORD PTR [rsp+0x70]
   1400078dc:	48 33 c0             	xor    rax,rax
   1400078df:	4d 8b d8             	mov    r11,r8
   1400078e2:	4c 8b 15 17 4d 00 00 	mov    r10,QWORD PTR [rip+0x4d17]        # 0x14000c600
   1400078e9:	4d 23 d0             	and    r10,r8
   1400078ec:	4c 3b 15 0d 4d 00 00 	cmp    r10,QWORD PTR [rip+0x4d0d]        # 0x14000c600
   1400078f3:	49 0f 44 c0          	cmove  rax,r8
   1400078f7:	4c 8b 15 32 4d 00 00 	mov    r10,QWORD PTR [rip+0x4d32]        # 0x14000c630
   1400078fe:	4c 23 d0             	and    r10,rax
   140007901:	0f 85 09 03 00 00    	jne    0x140007c10
   140007907:	66 48 0f 6e c2       	movq   xmm0,rdx
   14000790c:	e9 07 fc ff ff       	jmp    0x140007518
   140007911:	66 66 66 66 66 66 66 	data16 data16 data16 data16 data16 data16 nop WORD PTR [rax+rax*1+0x0]
   140007918:	0f 1f 84 00 00 00 00 
   14000791f:	00 
   140007920:	4c 8b 0d d9 4c 00 00 	mov    r9,QWORD PTR [rip+0x4cd9]        # 0x14000c600
   140007927:	4c 23 ca             	and    r9,rdx
   14000792a:	4c 3b 0d cf 4c 00 00 	cmp    r9,QWORD PTR [rip+0x4ccf]        # 0x14000c600
   140007931:	0f 84 29 01 00 00    	je     0x140007a60
   140007937:	48 3b 15 22 4d 00 00 	cmp    rdx,QWORD PTR [rip+0x4d22]        # 0x14000c660
   14000793e:	0f 84 7c 00 00 00    	je     0x1400079c0
   140007944:	f2 0f 10 44 24 40    	movsd  xmm0,QWORD PTR [rsp+0x40]
   14000794a:	f2 0f 10 4c 24 50    	movsd  xmm1,QWORD PTR [rsp+0x50]
   140007950:	f2 0f 10 15 e8 4c 00 	movsd  xmm2,QWORD PTR [rip+0x4ce8]        # 0x14000c640
   140007957:	00 
   140007958:	44 8b 0d 65 4c 00 00 	mov    r9d,DWORD PTR [rip+0x4c65]        # 0x14000c5c4
   14000795f:	e8 2c ee ff ff       	call   0x140006790
   140007964:	e9 af fb ff ff       	jmp    0x140007518
   140007969:	0f 1f 80 00 00 00 00 	nop    DWORD PTR [rax+0x0]
   140007970:	4c 8b 0d 89 4c 00 00 	mov    r9,QWORD PTR [rip+0x4c89]        # 0x14000c600
   140007977:	4c 23 ca             	and    r9,rdx
   14000797a:	4c 3b 0d 7f 4c 00 00 	cmp    r9,QWORD PTR [rip+0x4c7f]        # 0x14000c600
   140007981:	0f 84 d9 00 00 00    	je     0x140007a60
   140007987:	4c 8b 0d 9a 4c 00 00 	mov    r9,QWORD PTR [rip+0x4c9a]        # 0x14000c628
   14000798e:	4c 23 ca             	and    r9,rdx
   140007991:	74 2d                	je     0x1400079c0
   140007993:	48 3b 15 be 4c 00 00 	cmp    rdx,QWORD PTR [rip+0x4cbe]        # 0x14000c658
   14000799a:	0f 84 30 ff ff ff    	je     0x1400078d0
   1400079a0:	4c 8b ca             	mov    r9,rdx
   1400079a3:	4c 23 0d 7e 4c 00 00 	and    r9,QWORD PTR [rip+0x4c7e]        # 0x14000c628
   1400079aa:	4c 3b 0d 67 4c 00 00 	cmp    r9,QWORD PTR [rip+0x4c67]        # 0x14000c618
   1400079b1:	0f 8c 39 01 00 00    	jl     0x140007af0
   1400079b7:	e9 54 01 00 00       	jmp    0x140007b10
   1400079bc:	0f 1f 40 00          	nop    DWORD PTR [rax+0x0]
   1400079c0:	4c 8b 15 39 4c 00 00 	mov    r10,QWORD PTR [rip+0x4c39]        # 0x14000c600
   1400079c7:	48 33 c0             	xor    rax,rax
   1400079ca:	4d 23 d0             	and    r10,r8
   1400079cd:	4c 3b 15 2c 4c 00 00 	cmp    r10,QWORD PTR [rip+0x4c2c]        # 0x14000c600
   1400079d4:	74 5a                	je     0x140007a30
   1400079d6:	4c 8b 15 13 4c 00 00 	mov    r10,QWORD PTR [rip+0x4c13]        # 0x14000c5f0
   1400079dd:	4d 23 d0             	and    r10,r8
   1400079e0:	48 0f 45 05 28 4c 00 	cmovne rax,QWORD PTR [rip+0x4c28]        # 0x14000c610
   1400079e7:	00 
   1400079e8:	75 16                	jne    0x140007a00
   1400079ea:	66 48 0f 6e c0       	movq   xmm0,rax
   1400079ef:	66 0f 56 44 24 70    	orpd   xmm0,XMMWORD PTR [rsp+0x70]
   1400079f5:	e9 1e fb ff ff       	jmp    0x140007518
   1400079fa:	66 0f 1f 44 00 00    	nop    WORD PTR [rax+rax*1+0x0]
   140007a00:	f2 0f 10 44 24 40    	movsd  xmm0,QWORD PTR [rsp+0x40]
   140007a06:	f2 0f 10 4c 24 50    	movsd  xmm1,QWORD PTR [rsp+0x50]
   140007a0c:	66 48 0f 6e d0       	movq   xmm2,rax
   140007a11:	66 0f 56 54 24 70    	orpd   xmm2,XMMWORD PTR [rsp+0x70]
   140007a17:	44 8b 0d 96 4b 00 00 	mov    r9d,DWORD PTR [rip+0x4b96]        # 0x14000c5b4
   140007a1e:	e8 6d ed ff ff       	call   0x140006790
   140007a23:	e9 f0 fa ff ff       	jmp    0x140007518
   140007a28:	0f 1f 84 00 00 00 00 	nop    DWORD PTR [rax+rax*1+0x0]
   140007a2f:	00 
   140007a30:	4d 8b d8             	mov    r11,r8
   140007a33:	4c 3b 05 ce 4b 00 00 	cmp    r8,QWORD PTR [rip+0x4bce]        # 0x14000c608
   140007a3a:	48 0f 44 05 ce 4b 00 	cmove  rax,QWORD PTR [rip+0x4bce]        # 0x14000c610
   140007a41:	00 
   140007a42:	74 bc                	je     0x140007a00
   140007a44:	4c 8b 15 e5 4b 00 00 	mov    r10,QWORD PTR [rip+0x4be5]        # 0x14000c630
   140007a4b:	4d 23 d0             	and    r10,r8
   140007a4e:	0f 85 bc 01 00 00    	jne    0x140007c10
   140007a54:	66 48 0f 6e c0       	movq   xmm0,rax
   140007a59:	e9 ba fa ff ff       	jmp    0x140007518
   140007a5e:	66 90                	xchg   ax,ax
   140007a60:	4d 33 db             	xor    r11,r11
   140007a63:	4c 8b 15 86 4b 00 00 	mov    r10,QWORD PTR [rip+0x4b86]        # 0x14000c5f0
   140007a6a:	4d 23 d0             	and    r10,r8
   140007a6d:	4c 0f 44 1d 9b 4b 00 	cmove  r11,QWORD PTR [rip+0x4b9b]        # 0x14000c610
   140007a74:	00 
   140007a75:	48 8b c2             	mov    rax,rdx
   140007a78:	4c 8b 0d b1 4b 00 00 	mov    r9,QWORD PTR [rip+0x4bb1]        # 0x14000c630
   140007a7f:	4c 23 ca             	and    r9,rdx
   140007a82:	4c 0f 45 d8          	cmovne r11,rax
   140007a86:	0f 85 34 01 00 00    	jne    0x140007bc0
   140007a8c:	48 33 c0             	xor    rax,rax
   140007a8f:	4d 8b c8             	mov    r9,r8
   140007a92:	4c 8b 15 67 4b 00 00 	mov    r10,QWORD PTR [rip+0x4b67]        # 0x14000c600
   140007a99:	4d 23 d0             	and    r10,r8
   140007a9c:	4c 3b 15 5d 4b 00 00 	cmp    r10,QWORD PTR [rip+0x4b5d]        # 0x14000c600
   140007aa3:	49 0f 44 c0          	cmove  rax,r8
   140007aa7:	4c 8b 15 82 4b 00 00 	mov    r10,QWORD PTR [rip+0x4b82]        # 0x14000c630
   140007aae:	4c 23 d0             	and    r10,rax
   140007ab1:	4d 0f 45 d9          	cmovne r11,r9
   140007ab5:	0f 85 55 01 00 00    	jne    0x140007c10
   140007abb:	66 49 0f 6e c3       	movq   xmm0,r11
   140007ac0:	66 0f 56 44 24 70    	orpd   xmm0,XMMWORD PTR [rsp+0x70]
   140007ac6:	e9 4d fa ff ff       	jmp    0x140007518
   140007acb:	0f 1f 44 00 00       	nop    DWORD PTR [rax+rax*1+0x0]
   140007ad0:	f2 0f 10 05 40 4b 00 	movsd  xmm0,QWORD PTR [rip+0x4b40]        # 0x14000c618
   140007ad7:	00 
   140007ad8:	f2 0f 58 c1          	addsd  xmm0,xmm1
   140007adc:	e9 37 fa ff ff       	jmp    0x140007518
   140007ae1:	66 66 66 66 66 66 66 	data16 data16 data16 data16 data16 data16 nop WORD PTR [rax+rax*1+0x0]
   140007ae8:	0f 1f 84 00 00 00 00 
   140007aef:	00 
   140007af0:	4d 33 db             	xor    r11,r11
   140007af3:	4c 8b 15 f6 4a 00 00 	mov    r10,QWORD PTR [rip+0x4af6]        # 0x14000c5f0
   140007afa:	4d 23 d0             	and    r10,r8
   140007afd:	4c 0f 45 1d 0b 4b 00 	cmovne r11,QWORD PTR [rip+0x4b0b]        # 0x14000c610
   140007b04:	00 
   140007b05:	eb 29                	jmp    0x140007b30
   140007b07:	66 0f 1f 84 00 00 00 	nop    WORD PTR [rax+rax*1+0x0]
   140007b0e:	00 00 
   140007b10:	4d 33 db             	xor    r11,r11
   140007b13:	4c 8b 15 d6 4a 00 00 	mov    r10,QWORD PTR [rip+0x4ad6]        # 0x14000c5f0
   140007b1a:	4d 23 d0             	and    r10,r8
   140007b1d:	4c 0f 44 1d eb 4a 00 	cmove  r11,QWORD PTR [rip+0x4aeb]        # 0x14000c610
   140007b24:	00 
   140007b25:	66 66 66 0f 1f 84 00 	data16 data16 nop WORD PTR [rax+rax*1+0x0]
   140007b2c:	00 00 00 00 
   140007b30:	48 33 c0             	xor    rax,rax
   140007b33:	4d 8b c8             	mov    r9,r8
   140007b36:	4c 8b 15 c3 4a 00 00 	mov    r10,QWORD PTR [rip+0x4ac3]        # 0x14000c600
   140007b3d:	4d 23 d0             	and    r10,r8
   140007b40:	4c 3b 15 b9 4a 00 00 	cmp    r10,QWORD PTR [rip+0x4ab9]        # 0x14000c600
   140007b47:	49 0f 44 c0          	cmove  rax,r8
   140007b4b:	4c 8b 15 de 4a 00 00 	mov    r10,QWORD PTR [rip+0x4ade]        # 0x14000c630
   140007b52:	4c 23 d0             	and    r10,rax
   140007b55:	4d 0f 45 d9          	cmovne r11,r9
   140007b59:	0f 85 b1 00 00 00    	jne    0x140007c10
   140007b5f:	48 85 c0             	test   rax,rax
   140007b62:	75 4c                	jne    0x140007bb0
   140007b64:	66 66 66 66 0f 1f 84 	data16 data16 data16 nop WORD PTR [rax+rax*1+0x0]
   140007b6b:	00 00 00 00 00 
   140007b70:	44 8b 0d 51 4a 00 00 	mov    r9d,DWORD PTR [rip+0x4a51]        # 0x14000c5c8
   140007b77:	4c 85 1d aa 4a 00 00 	test   QWORD PTR [rip+0x4aaa],r11        # 0x14000c628
   140007b7e:	44 0f 45 0d 4a 4a 00 	cmovne r9d,DWORD PTR [rip+0x4a4a]        # 0x14000c5d0
   140007b85:	00 
   140007b86:	f2 0f 10 44 24 40    	movsd  xmm0,QWORD PTR [rsp+0x40]
   140007b8c:	f2 0f 10 4c 24 50    	movsd  xmm1,QWORD PTR [rsp+0x50]
   140007b92:	66 49 0f 6e d3       	movq   xmm2,r11
   140007b97:	e8 f4 eb ff ff       	call   0x140006790
   140007b9c:	e9 77 f9 ff ff       	jmp    0x140007518
   140007ba1:	66 66 66 66 66 66 66 	data16 data16 data16 data16 data16 data16 nop WORD PTR [rax+rax*1+0x0]
   140007ba8:	0f 1f 84 00 00 00 00 
   140007baf:	00 
   140007bb0:	66 49 0f 6e c3       	movq   xmm0,r11
   140007bb5:	e9 5e f9 ff ff       	jmp    0x140007518
   140007bba:	66 0f 1f 44 00 00    	nop    WORD PTR [rax+rax*1+0x0]
   140007bc0:	48 33 c0             	xor    rax,rax
   140007bc3:	4c 8b 15 36 4a 00 00 	mov    r10,QWORD PTR [rip+0x4a36]        # 0x14000c600
   140007bca:	4d 23 d0             	and    r10,r8
   140007bcd:	4c 3b 15 2c 4a 00 00 	cmp    r10,QWORD PTR [rip+0x4a2c]        # 0x14000c600
   140007bd4:	49 0f 44 c0          	cmove  rax,r8
   140007bd8:	4c 8b 15 51 4a 00 00 	mov    r10,QWORD PTR [rip+0x4a51]        # 0x14000c630
   140007bdf:	4c 23 d0             	and    r10,rax
   140007be2:	75 5c                	jne    0x140007c40
   140007be4:	f2 0f 10 44 24 40    	movsd  xmm0,QWORD PTR [rsp+0x40]
   140007bea:	f2 0f 10 4c 24 50    	movsd  xmm1,QWORD PTR [rsp+0x50]
   140007bf0:	66 49 0f 6e d3       	movq   xmm2,r11
   140007bf5:	44 8b 0d bc 49 00 00 	mov    r9d,DWORD PTR [rip+0x49bc]        # 0x14000c5b8
   140007bfc:	e8 8f eb ff ff       	call   0x140006790
   140007c01:	e9 12 f9 ff ff       	jmp    0x140007518
   140007c06:	66 66 0f 1f 84 00 00 	data16 nop WORD PTR [rax+rax*1+0x0]
   140007c0d:	00 00 00 
   140007c10:	f2 0f 10 44 24 40    	movsd  xmm0,QWORD PTR [rsp+0x40]
   140007c16:	f2 0f 10 4c 24 50    	movsd  xmm1,QWORD PTR [rsp+0x50]
   140007c1c:	66 49 0f 6e d3       	movq   xmm2,r11
   140007c21:	44 8b 0d 94 49 00 00 	mov    r9d,DWORD PTR [rip+0x4994]        # 0x14000c5bc
   140007c28:	e8 63 eb ff ff       	call   0x140006790
   140007c2d:	e9 e6 f8 ff ff       	jmp    0x140007518
   140007c32:	66 66 66 66 66 66 0f 	data16 data16 data16 data16 data16 nop WORD PTR [rax+rax*1+0x0]
   140007c39:	1f 84 00 00 00 00 00 
   140007c40:	4d 8b c8             	mov    r9,r8
   140007c43:	4c 3b 1d ee 49 00 00 	cmp    r11,QWORD PTR [rip+0x49ee]        # 0x14000c638
   140007c4a:	4d 0f 44 d9          	cmove  r11,r9
   140007c4e:	74 27                	je     0x140007c77
   140007c50:	4c 3b 0d e1 49 00 00 	cmp    r9,QWORD PTR [rip+0x49e1]        # 0x14000c638
   140007c57:	4d 0f 44 cb          	cmove  r9,r11
   140007c5b:	4d 8b d1             	mov    r10,r9
   140007c5e:	4c 23 15 8b 49 00 00 	and    r10,QWORD PTR [rip+0x498b]        # 0x14000c5f0
   140007c65:	4d 0f 45 cb          	cmovne r9,r11
   140007c69:	4d 8b d3             	mov    r10,r11
   140007c6c:	4c 23 15 7d 49 00 00 	and    r10,QWORD PTR [rip+0x497d]        # 0x14000c5f0
   140007c73:	4d 0f 45 d9          	cmovne r11,r9
   140007c77:	f2 0f 10 44 24 40    	movsd  xmm0,QWORD PTR [rsp+0x40]
   140007c7d:	f2 0f 10 4c 24 50    	movsd  xmm1,QWORD PTR [rsp+0x50]
   140007c83:	66 49 0f 6e d3       	movq   xmm2,r11
   140007c88:	44 8b 0d 31 49 00 00 	mov    r9d,DWORD PTR [rip+0x4931]        # 0x14000c5c0
   140007c8f:	e8 fc ea ff ff       	call   0x140006790
   140007c94:	e9 7f f8 ff ff       	jmp    0x140007518
   140007c99:	0f 1f 80 00 00 00 00 	nop    DWORD PTR [rax+0x0]
   140007ca0:	f2 0f 10 d0          	movsd  xmm2,xmm0
   140007ca4:	f2 0f 10 44 24 40    	movsd  xmm0,QWORD PTR [rsp+0x40]
   140007caa:	f2 0f 10 4c 24 50    	movsd  xmm1,QWORD PTR [rsp+0x50]
   140007cb0:	44 8b 0d 15 49 00 00 	mov    r9d,DWORD PTR [rip+0x4915]        # 0x14000c5cc
   140007cb7:	e8 d4 ea ff ff       	call   0x140006790
   140007cbc:	e9 57 f8 ff ff       	jmp    0x140007518
   140007cc1:	cc                   	int3
   140007cc2:	cc                   	int3
   140007cc3:	cc                   	int3
   140007cc4:	cc                   	int3
   140007cc5:	cc                   	int3
   140007cc6:	cc                   	int3
   140007cc7:	cc                   	int3
   140007cc8:	cc                   	int3
   140007cc9:	cc                   	int3
   140007cca:	cc                   	int3
   140007ccb:	cc                   	int3
   140007ccc:	cc                   	int3
   140007ccd:	cc                   	int3
   140007cce:	cc                   	int3
   140007ccf:	cc                   	int3
   140007cd0:	cc                   	int3
   140007cd1:	cc                   	int3
   140007cd2:	cc                   	int3
   140007cd3:	cc                   	int3
   140007cd4:	cc                   	int3
   140007cd5:	cc                   	int3
   140007cd6:	66 66 0f 1f 84 00 00 	data16 nop WORD PTR [rax+rax*1+0x0]
   140007cdd:	00 00 00 
   140007ce0:	ff e0                	jmp    rax
   140007ce2:	cc                   	int3
   140007ce3:	cc                   	int3
   140007ce4:	cc                   	int3
   140007ce5:	cc                   	int3
   140007ce6:	cc                   	int3
   140007ce7:	cc                   	int3
   140007ce8:	cc                   	int3
   140007ce9:	cc                   	int3
   140007cea:	cc                   	int3
   140007ceb:	cc                   	int3
   140007cec:	cc                   	int3
   140007ced:	cc                   	int3
   140007cee:	cc                   	int3
   140007cef:	cc                   	int3
   140007cf0:	cc                   	int3
   140007cf1:	cc                   	int3
   140007cf2:	cc                   	int3
   140007cf3:	cc                   	int3
   140007cf4:	cc                   	int3
   140007cf5:	cc                   	int3
   140007cf6:	66 66 0f 1f 84 00 00 	data16 nop WORD PTR [rax+rax*1+0x0]
   140007cfd:	00 00 00 
   140007d00:	48 83 ec 08          	sub    rsp,0x8
   140007d04:	0f ae 1c 24          	stmxcsr DWORD PTR [rsp]
   140007d08:	8b 04 24             	mov    eax,DWORD PTR [rsp]
   140007d0b:	48 83 c4 08          	add    rsp,0x8
   140007d0f:	c3                   	ret
   140007d10:	cc                   	int3
   140007d11:	cc                   	int3
   140007d12:	cc                   	int3
   140007d13:	cc                   	int3
   140007d14:	cc                   	int3
   140007d15:	cc                   	int3
   140007d16:	cc                   	int3
   140007d17:	cc                   	int3
   140007d18:	cc                   	int3
   140007d19:	cc                   	int3
   140007d1a:	cc                   	int3
   140007d1b:	cc                   	int3
   140007d1c:	cc                   	int3
   140007d1d:	cc                   	int3
   140007d1e:	cc                   	int3
   140007d1f:	cc                   	int3
   140007d20:	cc                   	int3
   140007d21:	cc                   	int3
   140007d22:	cc                   	int3
   140007d23:	cc                   	int3
   140007d24:	cc                   	int3
   140007d25:	cc                   	int3
   140007d26:	cc                   	int3
   140007d27:	cc                   	int3
   140007d28:	cc                   	int3
   140007d29:	cc                   	int3
   140007d2a:	cc                   	int3
   140007d2b:	cc                   	int3
   140007d2c:	cc                   	int3
   140007d2d:	cc                   	int3
   140007d2e:	cc                   	int3
   140007d2f:	cc                   	int3
   140007d30:	cc                   	int3
   140007d31:	cc                   	int3
   140007d32:	cc                   	int3
   140007d33:	cc                   	int3
   140007d34:	cc                   	int3
   140007d35:	cc                   	int3
   140007d36:	cc                   	int3
   140007d37:	cc                   	int3
   140007d38:	cc                   	int3
   140007d39:	cc                   	int3
   140007d3a:	cc                   	int3
   140007d3b:	cc                   	int3
   140007d3c:	cc                   	int3
   140007d3d:	cc                   	int3
   140007d3e:	cc                   	int3
   140007d3f:	cc                   	int3
   140007d40:	48 8b c1             	mov    rax,rcx
   140007d43:	49 83 f8 08          	cmp    r8,0x8
   140007d47:	72 47                	jb     0x140007d90
   140007d49:	0f b6 d2             	movzx  edx,dl
   140007d4c:	49 b9 01 01 01 01 01 	movabs r9,0x101010101010101
   140007d53:	01 01 01 
   140007d56:	49 0f af d1          	imul   rdx,r9
   140007d5a:	49 83 f8 4f          	cmp    r8,0x4f
   140007d5e:	73 50                	jae    0x140007db0
   140007d60:	4d 8b c8             	mov    r9,r8
   140007d63:	49 83 e1 f8          	and    r9,0xfffffffffffffff8
   140007d67:	49 03 c9             	add    rcx,r9
   140007d6a:	66 0f 1f 44 00 00    	nop    WORD PTR [rax+rax*1+0x0]
   140007d70:	4a 89 54 08 f8       	mov    QWORD PTR [rax+r9*1-0x8],rdx
   140007d75:	49 83 e9 08          	sub    r9,0x8
   140007d79:	75 f5                	jne    0x140007d70
   140007d7b:	49 83 e0 07          	and    r8,0x7
   140007d7f:	74 05                	je     0x140007d86
   140007d81:	4a 89 54 01 f8       	mov    QWORD PTR [rcx+r8*1-0x8],rdx
   140007d86:	c3                   	ret
   140007d87:	66 0f 1f 84 00 00 00 	nop    WORD PTR [rax+rax*1+0x0]
   140007d8e:	00 00 
   140007d90:	49 83 e0 07          	and    r8,0x7
   140007d94:	74 0a                	je     0x140007da0
   140007d96:	42 88 54 00 ff       	mov    BYTE PTR [rax+r8*1-0x1],dl
   140007d9b:	49 ff c8             	dec    r8
   140007d9e:	75 f6                	jne    0x140007d96
   140007da0:	c3                   	ret
   140007da1:	66 66 66 66 66 66 66 	data16 data16 data16 data16 data16 data16 nop WORD PTR [rax+rax*1+0x0]
   140007da8:	0f 1f 84 00 00 00 00 
   140007daf:	00 
   140007db0:	66 48 0f 6e c2       	movq   xmm0,rdx
   140007db5:	0f 16 c0             	movlhps xmm0,xmm0
   140007db8:	0f 11 01             	movups XMMWORD PTR [rcx],xmm0
   140007dbb:	4c 03 c1             	add    r8,rcx
   140007dbe:	48 83 c1 10          	add    rcx,0x10
   140007dc2:	48 83 e1 f0          	and    rcx,0xfffffffffffffff0
   140007dc6:	4c 2b c1             	sub    r8,rcx
   140007dc9:	4d 8b c8             	mov    r9,r8
   140007dcc:	49 c1 e9 07          	shr    r9,0x7
   140007dd0:	74 2f                	je     0x140007e01
   140007dd2:	0f 29 01             	movaps XMMWORD PTR [rcx],xmm0
   140007dd5:	0f 29 41 10          	movaps XMMWORD PTR [rcx+0x10],xmm0
   140007dd9:	48 81 c1 80 00 00 00 	add    rcx,0x80
   140007de0:	0f 29 41 a0          	movaps XMMWORD PTR [rcx-0x60],xmm0
   140007de4:	0f 29 41 b0          	movaps XMMWORD PTR [rcx-0x50],xmm0
   140007de8:	49 ff c9             	dec    r9
   140007deb:	0f 29 41 c0          	movaps XMMWORD PTR [rcx-0x40],xmm0
   140007def:	0f 29 41 d0          	movaps XMMWORD PTR [rcx-0x30],xmm0
   140007df3:	0f 29 41 e0          	movaps XMMWORD PTR [rcx-0x20],xmm0
   140007df7:	0f 29 41 f0          	movaps XMMWORD PTR [rcx-0x10],xmm0
   140007dfb:	75 d5                	jne    0x140007dd2
   140007dfd:	49 83 e0 7f          	and    r8,0x7f
   140007e01:	4d 8b c8             	mov    r9,r8
   140007e04:	49 c1 e9 04          	shr    r9,0x4
   140007e08:	74 12                	je     0x140007e1c
   140007e0a:	66 0f 1f 44 00 00    	nop    WORD PTR [rax+rax*1+0x0]
   140007e10:	0f 11 01             	movups XMMWORD PTR [rcx],xmm0
   140007e13:	48 83 c1 10          	add    rcx,0x10
   140007e17:	49 ff c9             	dec    r9
   140007e1a:	75 f4                	jne    0x140007e10
   140007e1c:	49 83 e0 0f          	and    r8,0xf
   140007e20:	74 06                	je     0x140007e28
   140007e22:	42 0f 11 44 01 f0    	movups XMMWORD PTR [rcx+r8*1-0x10],xmm0
   140007e28:	c3                   	ret
   140007e29:	cc                   	int3
   140007e2a:	cc                   	int3
   140007e2b:	cc                   	int3
   140007e2c:	cc                   	int3
   140007e2d:	cc                   	int3
   140007e2e:	cc                   	int3
   140007e2f:	cc                   	int3
   140007e30:	cc                   	int3
   140007e31:	cc                   	int3
   140007e32:	cc                   	int3
   140007e33:	cc                   	int3
   140007e34:	cc                   	int3
   140007e35:	cc                   	int3
   140007e36:	cc                   	int3
   140007e37:	cc                   	int3
   140007e38:	cc                   	int3
   140007e39:	cc                   	int3
   140007e3a:	cc                   	int3
   140007e3b:	cc                   	int3
   140007e3c:	cc                   	int3
   140007e3d:	cc                   	int3
   140007e3e:	cc                   	int3
   140007e3f:	cc                   	int3
   140007e40:	4c 8b d9             	mov    r11,rcx
   140007e43:	48 2b d1             	sub    rdx,rcx
   140007e46:	0f 82 a2 01 00 00    	jb     0x140007fee
   140007e4c:	49 83 f8 4f          	cmp    r8,0x4f
   140007e50:	73 58                	jae    0x140007eaa
   140007e52:	4d 8b c8             	mov    r9,r8
   140007e55:	49 c1 e9 03          	shr    r9,0x3
   140007e59:	74 16                	je     0x140007e71
   140007e5b:	0f 1f 44 00 00       	nop    DWORD PTR [rax+rax*1+0x0]
   140007e60:	48 8b 04 11          	mov    rax,QWORD PTR [rcx+rdx*1]
   140007e64:	48 83 c1 08          	add    rcx,0x8
   140007e68:	49 ff c9             	dec    r9
   140007e6b:	48 89 41 f8          	mov    QWORD PTR [rcx-0x8],rax
   140007e6f:	75 ef                	jne    0x140007e60
   140007e71:	49 83 e0 07          	and    r8,0x7
   140007e75:	74 17                	je     0x140007e8e
   140007e77:	66 0f 1f 84 00 00 00 	nop    WORD PTR [rax+rax*1+0x0]
   140007e7e:	00 00 
   140007e80:	8a 04 11             	mov    al,BYTE PTR [rcx+rdx*1]
   140007e83:	48 ff c1             	inc    rcx
   140007e86:	49 ff c8             	dec    r8
   140007e89:	88 41 ff             	mov    BYTE PTR [rcx-0x1],al
   140007e8c:	75 f2                	jne    0x140007e80
   140007e8e:	49 8b c3             	mov    rax,r11
   140007e91:	c3                   	ret
   140007e92:	66 66 66 66 66 66 0f 	data16 data16 data16 data16 data16 nop WORD PTR [rax+rax*1+0x0]
   140007e99:	1f 84 00 00 00 00 00 
   140007ea0:	90                   	nop
   140007ea1:	90                   	nop
   140007ea2:	90                   	nop
   140007ea3:	90                   	nop
   140007ea4:	90                   	nop
   140007ea5:	90                   	nop
   140007ea6:	90                   	nop
   140007ea7:	90                   	nop
   140007ea8:	90                   	nop
   140007ea9:	90                   	nop
   140007eaa:	48 83 fa 10          	cmp    rdx,0x10
   140007eae:	72 70                	jb     0x140007f20
   140007eb0:	f7 d9                	neg    ecx
   140007eb2:	83 e1 0f             	and    ecx,0xf
   140007eb5:	74 0e                	je     0x140007ec5
   140007eb7:	4c 2b c1             	sub    r8,rcx
   140007eba:	f3 41 0f 6f 04 13    	movdqu xmm0,XMMWORD PTR [r11+rdx*1]
   140007ec0:	f3 41 0f 7f 03       	movdqu XMMWORD PTR [r11],xmm0
   140007ec5:	49 03 cb             	add    rcx,r11
   140007ec8:	4d 8b c8             	mov    r9,r8
   140007ecb:	49 c1 e9 05          	shr    r9,0x5
   140007ecf:	49 81 f9 00 20 00 00 	cmp    r9,0x2000
   140007ed6:	0f 87 76 00 00 00    	ja     0x140007f52
   140007edc:	49 83 e0 1f          	and    r8,0x1f
   140007ee0:	f3 0f 6f 04 11       	movdqu xmm0,XMMWORD PTR [rcx+rdx*1]
   140007ee5:	f3 0f 6f 4c 11 10    	movdqu xmm1,XMMWORD PTR [rcx+rdx*1+0x10]
   140007eeb:	48 83 c1 20          	add    rcx,0x20
   140007eef:	66 0f 7f 41 e0       	movdqa XMMWORD PTR [rcx-0x20],xmm0
   140007ef4:	66 0f 7f 49 f0       	movdqa XMMWORD PTR [rcx-0x10],xmm1
   140007ef9:	49 ff c9             	dec    r9
   140007efc:	75 e2                	jne    0x140007ee0
   140007efe:	e9 4f ff ff ff       	jmp    0x140007e52
   140007f03:	66 66 66 66 66 66 66 	data16 data16 data16 data16 data16 data16 nop WORD PTR [rax+rax*1+0x0]
   140007f0a:	0f 1f 84 00 00 00 00 
   140007f11:	00 
   140007f12:	66 66 66 66 66 66 0f 	data16 data16 data16 data16 data16 nop WORD PTR [rax+rax*1+0x0]
   140007f19:	1f 84 00 00 00 00 00 
   140007f20:	f6 c1 0f             	test   cl,0xf
   140007f23:	74 a3                	je     0x140007ec8
   140007f25:	8a 04 11             	mov    al,BYTE PTR [rcx+rdx*1]
   140007f28:	49 ff c8             	dec    r8
   140007f2b:	88 01                	mov    BYTE PTR [rcx],al
   140007f2d:	48 ff c1             	inc    rcx
   140007f30:	f6 c1 0f             	test   cl,0xf
   140007f33:	75 f0                	jne    0x140007f25
   140007f35:	eb 91                	jmp    0x140007ec8
   140007f37:	66 0f 1f 84 00 00 00 	nop    WORD PTR [rax+rax*1+0x0]
   140007f3e:	00 00 
   140007f40:	90                   	nop
   140007f41:	90                   	nop
   140007f42:	90                   	nop
   140007f43:	90                   	nop
   140007f44:	90                   	nop
   140007f45:	90                   	nop
   140007f46:	90                   	nop
   140007f47:	90                   	nop
   140007f48:	90                   	nop
   140007f49:	90                   	nop
   140007f4a:	90                   	nop
   140007f4b:	90                   	nop
   140007f4c:	90                   	nop
   140007f4d:	90                   	nop
   140007f4e:	90                   	nop
   140007f4f:	90                   	nop
   140007f50:	90                   	nop
   140007f51:	90                   	nop
   140007f52:	48 81 fa 00 02 00 00 	cmp    rdx,0x200
   140007f59:	72 81                	jb     0x140007edc
   140007f5b:	b8 04 00 00 00       	mov    eax,0x4
   140007f60:	0f 18 04 11          	prefetchnta BYTE PTR [rcx+rdx*1]
   140007f64:	0f 18 44 11 40       	prefetchnta BYTE PTR [rcx+rdx*1+0x40]
   140007f69:	48 81 c1 80 00 00 00 	add    rcx,0x80
   140007f70:	ff c8                	dec    eax
   140007f72:	75 ec                	jne    0x140007f60
   140007f74:	48 81 e9 00 02 00 00 	sub    rcx,0x200
   140007f7b:	b8 08 00 00 00       	mov    eax,0x8
   140007f80:	f3 0f 6f 04 11       	movdqu xmm0,XMMWORD PTR [rcx+rdx*1]
   140007f85:	f3 0f 6f 4c 11 10    	movdqu xmm1,XMMWORD PTR [rcx+rdx*1+0x10]
   140007f8b:	66 0f e7 01          	movntdq XMMWORD PTR [rcx],xmm0
   140007f8f:	66 0f e7 49 10       	movntdq XMMWORD PTR [rcx+0x10],xmm1
   140007f94:	48 83 c1 40          	add    rcx,0x40
   140007f98:	f3 0f 6f 44 11 e0    	movdqu xmm0,XMMWORD PTR [rcx+rdx*1-0x20]
   140007f9e:	f3 0f 6f 4c 11 f0    	movdqu xmm1,XMMWORD PTR [rcx+rdx*1-0x10]
   140007fa4:	66 0f e7 41 e0       	movntdq XMMWORD PTR [rcx-0x20],xmm0
   140007fa9:	66 0f e7 49 f0       	movntdq XMMWORD PTR [rcx-0x10],xmm1
   140007fae:	ff c8                	dec    eax
   140007fb0:	75 ce                	jne    0x140007f80
   140007fb2:	49 81 e8 00 02 00 00 	sub    r8,0x200
   140007fb9:	49 81 f8 00 02 00 00 	cmp    r8,0x200
   140007fc0:	73 99                	jae    0x140007f5b
   140007fc2:	f0 80 0c 24 00       	lock or BYTE PTR [rsp],0x0
   140007fc7:	4d 8b c8             	mov    r9,r8
   140007fca:	49 c1 e9 05          	shr    r9,0x5
   140007fce:	0f 85 08 ff ff ff    	jne    0x140007edc
   140007fd4:	e9 79 fe ff ff       	jmp    0x140007e52
   140007fd9:	0f 1f 80 00 00 00 00 	nop    DWORD PTR [rax+0x0]
   140007fe0:	90                   	nop
   140007fe1:	90                   	nop
   140007fe2:	90                   	nop
   140007fe3:	90                   	nop
   140007fe4:	90                   	nop
   140007fe5:	90                   	nop
   140007fe6:	90                   	nop
   140007fe7:	90                   	nop
   140007fe8:	90                   	nop
   140007fe9:	90                   	nop
   140007fea:	90                   	nop
   140007feb:	90                   	nop
   140007fec:	90                   	nop
   140007fed:	90                   	nop
   140007fee:	49 03 c8             	add    rcx,r8
   140007ff1:	49 83 f8 4f          	cmp    r8,0x4f
   140007ff5:	73 4f                	jae    0x140008046
   140007ff7:	4d 8b c8             	mov    r9,r8
   140007ffa:	49 c1 e9 03          	shr    r9,0x3
   140007ffe:	74 11                	je     0x140008011
   140008000:	48 8b 44 11 f8       	mov    rax,QWORD PTR [rcx+rdx*1-0x8]
   140008005:	48 83 e9 08          	sub    rcx,0x8
   140008009:	49 ff c9             	dec    r9
   14000800c:	48 89 01             	mov    QWORD PTR [rcx],rax
   14000800f:	75 ef                	jne    0x140008000
   140008011:	49 83 e0 07          	and    r8,0x7
   140008015:	74 17                	je     0x14000802e
   140008017:	66 0f 1f 84 00 00 00 	nop    WORD PTR [rax+rax*1+0x0]
   14000801e:	00 00 
   140008020:	8a 44 11 ff          	mov    al,BYTE PTR [rcx+rdx*1-0x1]
   140008024:	48 ff c9             	dec    rcx
   140008027:	49 ff c8             	dec    r8
   14000802a:	88 01                	mov    BYTE PTR [rcx],al
   14000802c:	75 f2                	jne    0x140008020
   14000802e:	49 8b c3             	mov    rax,r11
   140008031:	c3                   	ret
   140008032:	66 66 66 66 66 66 0f 	data16 data16 data16 data16 data16 nop WORD PTR [rax+rax*1+0x0]
   140008039:	1f 84 00 00 00 00 00 
   140008040:	90                   	nop
   140008041:	90                   	nop
   140008042:	90                   	nop
   140008043:	90                   	nop
   140008044:	90                   	nop
   140008045:	90                   	nop
   140008046:	48 83 fa f0          	cmp    rdx,0xfffffffffffffff0
   14000804a:	77 74                	ja     0x1400080c0
   14000804c:	48 8b c1             	mov    rax,rcx
   14000804f:	83 e1 0f             	and    ecx,0xf
   140008052:	74 11                	je     0x140008065
   140008054:	4c 2b c1             	sub    r8,rcx
   140008057:	48 f7 d9             	neg    rcx
   14000805a:	f3 0f 6f 44 10 f0    	movdqu xmm0,XMMWORD PTR [rax+rdx*1-0x10]
   140008060:	f3 0f 7f 40 f0       	movdqu XMMWORD PTR [rax-0x10],xmm0
   140008065:	48 03 c8             	add    rcx,rax
   140008068:	4d 8b c8             	mov    r9,r8
   14000806b:	49 c1 e9 05          	shr    r9,0x5
   14000806f:	49 81 f9 00 20 00 00 	cmp    r9,0x2000
   140008076:	0f 87 76 00 00 00    	ja     0x1400080f2
   14000807c:	49 83 e0 1f          	and    r8,0x1f
   140008080:	f3 0f 6f 44 11 f0    	movdqu xmm0,XMMWORD PTR [rcx+rdx*1-0x10]
   140008086:	f3 0f 6f 4c 11 e0    	movdqu xmm1,XMMWORD PTR [rcx+rdx*1-0x20]
   14000808c:	48 83 e9 20          	sub    rcx,0x20
   140008090:	66 0f 7f 41 10       	movdqa XMMWORD PTR [rcx+0x10],xmm0
   140008095:	66 0f 7f 09          	movdqa XMMWORD PTR [rcx],xmm1
   140008099:	49 ff c9             	dec    r9
   14000809c:	75 e2                	jne    0x140008080
   14000809e:	e9 54 ff ff ff       	jmp    0x140007ff7
   1400080a3:	66 66 66 66 66 66 66 	data16 data16 data16 data16 data16 data16 nop WORD PTR [rax+rax*1+0x0]
   1400080aa:	0f 1f 84 00 00 00 00 
   1400080b1:	00 
   1400080b2:	66 66 66 66 66 66 0f 	data16 data16 data16 data16 data16 nop WORD PTR [rax+rax*1+0x0]
   1400080b9:	1f 84 00 00 00 00 00 
   1400080c0:	f6 c1 0f             	test   cl,0xf
   1400080c3:	74 a3                	je     0x140008068
   1400080c5:	48 ff c9             	dec    rcx
   1400080c8:	8a 04 11             	mov    al,BYTE PTR [rcx+rdx*1]
   1400080cb:	49 ff c8             	dec    r8
   1400080ce:	88 01                	mov    BYTE PTR [rcx],al
   1400080d0:	f6 c1 0f             	test   cl,0xf
   1400080d3:	75 f0                	jne    0x1400080c5
   1400080d5:	eb 91                	jmp    0x140008068
   1400080d7:	66 0f 1f 84 00 00 00 	nop    WORD PTR [rax+rax*1+0x0]
   1400080de:	00 00 
   1400080e0:	90                   	nop
   1400080e1:	90                   	nop
   1400080e2:	90                   	nop
   1400080e3:	90                   	nop
   1400080e4:	90                   	nop
   1400080e5:	90                   	nop
   1400080e6:	90                   	nop
   1400080e7:	90                   	nop
   1400080e8:	90                   	nop
   1400080e9:	90                   	nop
   1400080ea:	90                   	nop
   1400080eb:	90                   	nop
   1400080ec:	90                   	nop
   1400080ed:	90                   	nop
   1400080ee:	90                   	nop
   1400080ef:	90                   	nop
   1400080f0:	90                   	nop
   1400080f1:	90                   	nop
   1400080f2:	48 81 fa 00 fe ff ff 	cmp    rdx,0xfffffffffffffe00
   1400080f9:	77 81                	ja     0x14000807c
   1400080fb:	b8 04 00 00 00       	mov    eax,0x4
   140008100:	48 81 e9 80 00 00 00 	sub    rcx,0x80
   140008107:	0f 18 04 11          	prefetchnta BYTE PTR [rcx+rdx*1]
   14000810b:	0f 18 44 11 40       	prefetchnta BYTE PTR [rcx+rdx*1+0x40]
   140008110:	ff c8                	dec    eax
   140008112:	75 ec                	jne    0x140008100
   140008114:	48 81 c1 00 02 00 00 	add    rcx,0x200
   14000811b:	b8 08 00 00 00       	mov    eax,0x8
   140008120:	f3 0f 6f 44 11 f0    	movdqu xmm0,XMMWORD PTR [rcx+rdx*1-0x10]
   140008126:	f3 0f 6f 4c 11 e0    	movdqu xmm1,XMMWORD PTR [rcx+rdx*1-0x20]
   14000812c:	66 0f e7 41 f0       	movntdq XMMWORD PTR [rcx-0x10],xmm0
   140008131:	66 0f e7 49 e0       	movntdq XMMWORD PTR [rcx-0x20],xmm1
   140008136:	48 83 e9 40          	sub    rcx,0x40
   14000813a:	f3 0f 6f 44 11 10    	movdqu xmm0,XMMWORD PTR [rcx+rdx*1+0x10]
   140008140:	f3 0f 6f 0c 11       	movdqu xmm1,XMMWORD PTR [rcx+rdx*1]
   140008145:	66 0f e7 41 10       	movntdq XMMWORD PTR [rcx+0x10],xmm0
   14000814a:	66 0f e7 09          	movntdq XMMWORD PTR [rcx],xmm1
   14000814e:	ff c8                	dec    eax
   140008150:	75 ce                	jne    0x140008120
   140008152:	49 81 e8 00 02 00 00 	sub    r8,0x200
   140008159:	49 81 f8 00 02 00 00 	cmp    r8,0x200
   140008160:	73 99                	jae    0x1400080fb
   140008162:	f0 80 0c 24 00       	lock or BYTE PTR [rsp],0x0
   140008167:	4d 8b c8             	mov    r9,r8
   14000816a:	49 c1 e9 05          	shr    r9,0x5
   14000816e:	0f 85 08 ff ff ff    	jne    0x14000807c
   140008174:	e9 7e fe ff ff       	jmp    0x140007ff7
   140008179:	cc                   	int3
   14000817a:	cc                   	int3
   14000817b:	cc                   	int3
   14000817c:	cc                   	int3
   14000817d:	cc                   	int3
   14000817e:	cc                   	int3
   14000817f:	cc                   	int3
   140008180:	52                   	push   rdx
   140008181:	00 74 00 6c          	add    BYTE PTR [rax+rax*1+0x6c],dh
   140008185:	00 51 00             	add    BYTE PTR [rcx+0x0],dl
   140008188:	75 00                	jne    0x14000818a
   14000818a:	65 00 72 00          	add    BYTE PTR gs:[rdx+0x0],dh
   14000818e:	79 00                	jns    0x140008190
   140008190:	52                   	push   rdx
   140008191:	00 65 00             	add    BYTE PTR [rbp+0x0],ah
   140008194:	67 00 69 00          	add    BYTE PTR [ecx+0x0],ch
   140008198:	73 00                	jae    0x14000819a
   14000819a:	74 00                	je     0x14000819c
   14000819c:	72 00                	jb     0x14000819e
   14000819e:	79 00                	jns    0x1400081a0
   1400081a0:	56                   	push   rsi
   1400081a1:	00 61 00             	add    BYTE PTR [rcx+0x0],ah
   1400081a4:	6c                   	ins    BYTE PTR es:[rdi],dx
   1400081a5:	00 75 00             	add    BYTE PTR [rbp+0x0],dh
   1400081a8:	65 00 73 00          	add    BYTE PTR gs:[rbx+0x0],dh
   1400081ac:	45 00 78 00          	add    BYTE PTR [r8+0x0],r15b
   1400081b0:	00 00                	add    BYTE PTR [rax],al
   1400081b2:	cc                   	int3
   1400081b3:	cc                   	int3
   1400081b4:	cc                   	int3
   1400081b5:	cc                   	int3
   1400081b6:	cc                   	int3
   1400081b7:	cc                   	int3
   1400081b8:	cc                   	int3
   1400081b9:	cc                   	int3
   1400081ba:	cc                   	int3
   1400081bb:	cc                   	int3
   1400081bc:	cc                   	int3
   1400081bd:	cc                   	int3
   1400081be:	cc                   	int3
   1400081bf:	cc                   	int3
   1400081c0:	5c                   	pop    rsp
   1400081c1:	00 44 00 65          	add    BYTE PTR [rax+rax*1+0x65],al
   1400081c5:	00 76 00             	add    BYTE PTR [rsi+0x0],dh
   1400081c8:	69 00 63 00 65 00    	imul   eax,DWORD PTR [rax],0x650063
   1400081ce:	5c                   	pop    rsp
   1400081cf:	00 41 00             	add    BYTE PTR [rcx+0x0],al
   1400081d2:	70 00                	jo     0x1400081d4
   1400081d4:	70 00                	jo     0x1400081d6
   1400081d6:	6c                   	ins    BYTE PTR es:[rdi],dx
   1400081d7:	00 65 00             	add    BYTE PTR [rbp+0x0],ah
   1400081da:	42 00 6c 00 75       	add    BYTE PTR [rax+r8*1+0x75],bpl
   1400081df:	00 65 00             	add    BYTE PTR [rbp+0x0],ah
   1400081e2:	74 00                	je     0x1400081e4
   1400081e4:	6f                   	outs   dx,DWORD PTR ds:[rsi]
   1400081e5:	00 6f 00             	add    BYTE PTR [rdi+0x0],ch
   1400081e8:	74 00                	je     0x1400081ea
   1400081ea:	68 00 4d 00 75       	push   0x75004d00
   1400081ef:	00 6c 00 74          	add    BYTE PTR [rax+rax*1+0x74],ch
   1400081f3:	00 69 00             	add    BYTE PTR [rcx+0x0],ch
   1400081f6:	74 00                	je     0x1400081f8
   1400081f8:	6f                   	outs   dx,DWORD PTR ds:[rsi]
   1400081f9:	00 75 00             	add    BYTE PTR [rbp+0x0],dh
   1400081fc:	63 00                	movsxd eax,DWORD PTR [rax]
   1400081fe:	68 00 00 00 cc       	push   0xffffffffcc000000
   140008203:	cc                   	int3
   140008204:	cc                   	int3
   140008205:	cc                   	int3
   140008206:	cc                   	int3
   140008207:	cc                   	int3
   140008208:	cc                   	int3
   140008209:	cc                   	int3
   14000820a:	cc                   	int3
   14000820b:	cc                   	int3
   14000820c:	cc                   	int3
   14000820d:	cc                   	int3
   14000820e:	cc                   	int3
   14000820f:	cc                   	int3
   140008210:	5c                   	pop    rsp
   140008211:	00 44 00 6f          	add    BYTE PTR [rax+rax*1+0x6f],al
   140008215:	00 73 00             	add    BYTE PTR [rbx+0x0],dh
   140008218:	44 00 65 00          	add    BYTE PTR [rbp+0x0],r12b
   14000821c:	76 00                	jbe    0x14000821e
   14000821e:	69 00 63 00 65 00    	imul   eax,DWORD PTR [rax],0x650063
   140008224:	73 00                	jae    0x140008226
   140008226:	5c                   	pop    rsp
   140008227:	00 41 00             	add    BYTE PTR [rcx+0x0],al
   14000822a:	70 00                	jo     0x14000822c
   14000822c:	70 00                	jo     0x14000822e
   14000822e:	6c                   	ins    BYTE PTR es:[rdi],dx
   14000822f:	00 65 00             	add    BYTE PTR [rbp+0x0],ah
   140008232:	42 00 6c 00 75       	add    BYTE PTR [rax+r8*1+0x75],bpl
   140008237:	00 65 00             	add    BYTE PTR [rbp+0x0],ah
   14000823a:	74 00                	je     0x14000823c
   14000823c:	6f                   	outs   dx,DWORD PTR ds:[rsi]
   14000823d:	00 6f 00             	add    BYTE PTR [rdi+0x0],ch
   140008240:	74 00                	je     0x140008242
   140008242:	68 00 4d 00 75       	push   0x75004d00
   140008247:	00 6c 00 74          	add    BYTE PTR [rax+rax*1+0x74],ch
   14000824b:	00 69 00             	add    BYTE PTR [rcx+0x0],ch
   14000824e:	74 00                	je     0x140008250
   140008250:	6f                   	outs   dx,DWORD PTR ds:[rsi]
   140008251:	00 75 00             	add    BYTE PTR [rbp+0x0],dh
   140008254:	63 00                	movsxd eax,DWORD PTR [rax]
   140008256:	68 00 00 00 cc       	push   0xffffffffcc000000
   14000825b:	cc                   	int3
   14000825c:	cc                   	int3
   14000825d:	cc                   	int3
   14000825e:	cc                   	int3
   14000825f:	cc                   	int3
   140008260:	5c                   	pop    rsp
   140008261:	00 52 00             	add    BYTE PTR [rdx+0x0],dl
   140008264:	65 00 67 00          	add    BYTE PTR gs:[rdi+0x0],ah
   140008268:	69 00 73 00 74 00    	imul   eax,DWORD PTR [rax],0x740073
   14000826e:	72 00                	jb     0x140008270
   140008270:	79 00                	jns    0x140008272
   140008272:	5c                   	pop    rsp
   140008273:	00 55 00             	add    BYTE PTR [rbp+0x0],dl
   140008276:	73 00                	jae    0x140008278
   140008278:	65 00 72 00          	add    BYTE PTR gs:[rdx+0x0],dh
   14000827c:	5c                   	pop    rsp
   14000827d:	00 00                	add    BYTE PTR [rax],al
   14000827f:	00 5c 00 43          	add    BYTE PTR [rax+rax*1+0x43],bl
   140008283:	00 6f 00             	add    BYTE PTR [rdi+0x0],ch
   140008286:	6e                   	outs   dx,BYTE PTR ds:[rsi]
   140008287:	00 74 00 72          	add    BYTE PTR [rax+rax*1+0x72],dh
   14000828b:	00 6f 00             	add    BYTE PTR [rdi+0x0],ch
   14000828e:	6c                   	ins    BYTE PTR es:[rdi],dx
   14000828f:	00 20                	add    BYTE PTR [rax],ah
   140008291:	00 50 00             	add    BYTE PTR [rax+0x0],dl
   140008294:	61                   	(bad)
   140008295:	00 6e 00             	add    BYTE PTR [rsi+0x0],ch
   140008298:	65 00 6c 00 5c       	add    BYTE PTR gs:[rax+rax*1+0x5c],ch
   14000829d:	00 4d 00             	add    BYTE PTR [rbp+0x0],cl
   1400082a0:	6f                   	outs   dx,DWORD PTR ds:[rsi]
   1400082a1:	00 75 00             	add    BYTE PTR [rbp+0x0],dh
   1400082a4:	73 00                	jae    0x1400082a6
   1400082a6:	65 00 00             	add    BYTE PTR gs:[rax],al
   1400082a9:	00 cc                	add    ah,cl
   1400082ab:	cc                   	int3
   1400082ac:	cc                   	int3
   1400082ad:	cc                   	int3
   1400082ae:	cc                   	int3
   1400082af:	cc                   	int3
   1400082b0:	53                   	push   rbx
   1400082b1:	00 77 00             	add    BYTE PTR [rdi+0x0],dh
   1400082b4:	61                   	(bad)
   1400082b5:	00 70 00             	add    BYTE PTR [rax+0x0],dh
   1400082b8:	4d 00 6f 00          	rex.WRB add BYTE PTR [r15+0x0],r13b
   1400082bc:	75 00                	jne    0x1400082be
   1400082be:	73 00                	jae    0x1400082c0
   1400082c0:	65 00 42 00          	add    BYTE PTR gs:[rdx+0x0],al
   1400082c4:	75 00                	jne    0x1400082c6
   1400082c6:	74 00                	je     0x1400082c8
   1400082c8:	74 00                	je     0x1400082ca
   1400082ca:	6f                   	outs   dx,DWORD PTR ds:[rsi]
   1400082cb:	00 6e 00             	add    BYTE PTR [rsi+0x0],ch
   1400082ce:	73 00                	jae    0x1400082d0
   1400082d0:	00 00                	add    BYTE PTR [rax],al
   1400082d2:	cc                   	int3
   1400082d3:	cc                   	int3
   1400082d4:	cc                   	int3
   1400082d5:	cc                   	int3
   1400082d6:	cc                   	int3
   1400082d7:	cc                   	int3
   1400082d8:	cc                   	int3
   1400082d9:	cc                   	int3
   1400082da:	cc                   	int3
   1400082db:	cc                   	int3
   1400082dc:	cc                   	int3
   1400082dd:	cc                   	int3
   1400082de:	cc                   	int3
   1400082df:	cc                   	int3
   1400082e0:	30 00                	xor    BYTE PTR [rax],al
   1400082e2:	00 00                	add    BYTE PTR [rax],al
   1400082e4:	cc                   	int3
   1400082e5:	cc                   	int3
   1400082e6:	cc                   	int3
   1400082e7:	cc                   	int3
   1400082e8:	cc                   	int3
   1400082e9:	cc                   	int3
   1400082ea:	cc                   	int3
   1400082eb:	cc                   	int3
   1400082ec:	cc                   	int3
   1400082ed:	cc                   	int3
   1400082ee:	cc                   	int3
   1400082ef:	cc                   	int3
   1400082f0:	5c                   	pop    rsp
   1400082f1:	00 53 00             	add    BYTE PTR [rbx+0x0],dl
   1400082f4:	6f                   	outs   dx,DWORD PTR ds:[rsi]
   1400082f5:	00 66 00             	add    BYTE PTR [rsi+0x0],ah
   1400082f8:	74 00                	je     0x1400082fa
   1400082fa:	77 00                	ja     0x1400082fc
   1400082fc:	61                   	(bad)
   1400082fd:	00 72 00             	add    BYTE PTR [rdx+0x0],dh
   140008300:	65 00 5c 00 41       	add    BYTE PTR gs:[rax+rax*1+0x41],bl
   140008305:	00 70 00             	add    BYTE PTR [rax+0x0],dh
   140008308:	70 00                	jo     0x14000830a
   14000830a:	6c                   	ins    BYTE PTR es:[rdi],dx
   14000830b:	00 65 00             	add    BYTE PTR [rbp+0x0],ah
   14000830e:	20 00                	and    BYTE PTR [rax],al
   140008310:	49 00 6e 00          	rex.WB add BYTE PTR [r14+0x0],bpl
   140008314:	63 00                	movsxd eax,DWORD PTR [rax]
   140008316:	2e 00 5c 00 4d       	cs add BYTE PTR [rax+rax*1+0x4d],bl
   14000831b:	00 6f 00             	add    BYTE PTR [rdi+0x0],ch
   14000831e:	75 00                	jne    0x140008320
   140008320:	73 00                	jae    0x140008322
   140008322:	65 00 00             	add    BYTE PTR gs:[rax],al
   140008325:	00 cc                	add    ah,cl
   140008327:	cc                   	int3
   140008328:	cc                   	int3
   140008329:	cc                   	int3
   14000832a:	cc                   	int3
   14000832b:	cc                   	int3
   14000832c:	cc                   	int3
   14000832d:	cc                   	int3
   14000832e:	cc                   	int3
   14000832f:	cc                   	int3
   140008330:	45 00 6e 00          	add    BYTE PTR [r14+0x0],r13b
   140008334:	61                   	(bad)
   140008335:	00 62 00             	add    BYTE PTR [rdx+0x0],ah
   140008338:	6c                   	ins    BYTE PTR es:[rdi],dx
   140008339:	00 65 00             	add    BYTE PTR [rbp+0x0],ah
   14000833c:	54                   	push   rsp
   14000833d:	00 77 00             	add    BYTE PTR [rdi+0x0],dh
   140008340:	6f                   	outs   dx,DWORD PTR ds:[rsi]
   140008341:	00 42 00             	add    BYTE PTR [rdx+0x0],al
   140008344:	75 00                	jne    0x140008346
   140008346:	74 00                	je     0x140008348
   140008348:	74 00                	je     0x14000834a
   14000834a:	6f                   	outs   dx,DWORD PTR ds:[rsi]
   14000834b:	00 6e 00             	add    BYTE PTR [rsi+0x0],ch
   14000834e:	43 00 6c 00 69       	add    BYTE PTR [r8+r8*1+0x69],bpl
   140008353:	00 63 00             	add    BYTE PTR [rbx+0x0],ah
   140008356:	6b 00 00             	imul   eax,DWORD PTR [rax],0x0
   140008359:	00 cc                	add    ah,cl
   14000835b:	cc                   	int3
   14000835c:	cc                   	int3
   14000835d:	cc                   	int3
   14000835e:	cc                   	int3
   14000835f:	cc                   	int3
   140008360:	5c                   	pop    rsp
   140008361:	00 44 00 6f          	add    BYTE PTR [rax+rax*1+0x6f],al
   140008365:	00 73 00             	add    BYTE PTR [rbx+0x0],dh
   140008368:	44 00 65 00          	add    BYTE PTR [rbp+0x0],r12b
   14000836c:	76 00                	jbe    0x14000836e
   14000836e:	69 00 63 00 65 00    	imul   eax,DWORD PTR [rax],0x650063
   140008374:	73 00                	jae    0x140008376
   140008376:	5c                   	pop    rsp
   140008377:	00 4b 00             	add    BYTE PTR [rbx+0x0],cl
   14000837a:	65 00 79 00          	add    BYTE PTR gs:[rcx+0x0],bh
   14000837e:	4d 00 61 00          	rex.WRB add BYTE PTR [r9+0x0],r12b
   140008382:	6e                   	outs   dx,BYTE PTR ds:[rsi]
   140008383:	00 61 00             	add    BYTE PTR [rcx+0x0],ah
   140008386:	67 00 65 00          	add    BYTE PTR [ebp+0x0],ah
   14000838a:	72 00                	jb     0x14000838c
   14000838c:	00 00                	add    BYTE PTR [rax],al
   14000838e:	cc                   	int3
   14000838f:	cc                   	int3
   140008390:	5c                   	pop    rsp
   140008391:	00 44 00 6f          	add    BYTE PTR [rax+rax*1+0x6f],al
   140008395:	00 73 00             	add    BYTE PTR [rbx+0x0],dh
   140008398:	44 00 65 00          	add    BYTE PTR [rbp+0x0],r12b
   14000839c:	76 00                	jbe    0x14000839e
   14000839e:	69 00 63 00 65 00    	imul   eax,DWORD PTR [rax],0x650063
   1400083a4:	73 00                	jae    0x1400083a6
   1400083a6:	5c                   	pop    rsp
   1400083a7:	00 4b 00             	add    BYTE PTR [rbx+0x0],cl
   1400083aa:	65 00 79 00          	add    BYTE PTR gs:[rcx+0x0],bh
   1400083ae:	41 00 67 00          	add    BYTE PTR [r15+0x0],spl
   1400083b2:	65 00 6e 00          	add    BYTE PTR gs:[rsi+0x0],ch
   1400083b6:	74 00                	je     0x1400083b8
   1400083b8:	00 00                	add    BYTE PTR [rax],al
   1400083ba:	cc                   	int3
   1400083bb:	cc                   	int3
   1400083bc:	cc                   	int3
   1400083bd:	cc                   	int3
   1400083be:	cc                   	int3
   1400083bf:	cc                   	int3
   1400083c0:	56                   	push   rsi
   1400083c1:	00 49 00             	add    BYTE PTR [rcx+0x0],cl
   1400083c4:	44 00 26             	add    BYTE PTR [rsi],r12b
   1400083c7:	00 30                	add    BYTE PTR [rax],dh
   1400083c9:	00 30                	add    BYTE PTR [rax],dh
   1400083cb:	00 30                	add    BYTE PTR [rax],dh
   1400083cd:	00 32                	add    BYTE PTR [rdx],dh
   1400083cf:	00 30                	add    BYTE PTR [rax],dh
   1400083d1:	00 35 00 61 00 63    	add    BYTE PTR [rip+0x63006100],dh        # 0x1a300e4d7
   1400083d7:	00 5f 00             	add    BYTE PTR [rdi+0x0],bl
   1400083da:	50                   	push   rax
   1400083db:	00 49 00             	add    BYTE PTR [rcx+0x0],cl
   1400083de:	44 00 26             	add    BYTE PTR [rsi],r12b
   1400083e1:	00 30                	add    BYTE PTR [rax],dh
   1400083e3:	00 33                	add    BYTE PTR [rbx],dh
   1400083e5:	00 30                	add    BYTE PTR [rax],dh
   1400083e7:	00 64 00 00          	add    BYTE PTR [rax+rax*1+0x0],ah
   1400083eb:	00 cc                	add    ah,cl
   1400083ed:	cc                   	int3
   1400083ee:	cc                   	int3
   1400083ef:	cc                   	int3
   1400083f0:	56                   	push   rsi
   1400083f1:	00 49 00             	add    BYTE PTR [rcx+0x0],cl
   1400083f4:	44 00 26             	add    BYTE PTR [rsi],r12b
   1400083f7:	00 30                	add    BYTE PTR [rax],dh
   1400083f9:	00 30                	add    BYTE PTR [rax],dh
   1400083fb:	00 30                	add    BYTE PTR [rax],dh
   1400083fd:	00 32                	add    BYTE PTR [rdx],dh
   1400083ff:	00 30                	add    BYTE PTR [rax],dh
   140008401:	00 35 00 61 00 63    	add    BYTE PTR [rip+0x63006100],dh        # 0x1a300e507
   140008407:	00 5f 00             	add    BYTE PTR [rdi+0x0],bl
   14000840a:	50                   	push   rax
   14000840b:	00 49 00             	add    BYTE PTR [rcx+0x0],cl
   14000840e:	44 00 26             	add    BYTE PTR [rsi],r12b
   140008411:	00 30                	add    BYTE PTR [rax],dh
   140008413:	00 33                	add    BYTE PTR [rbx],dh
   140008415:	00 31                	add    BYTE PTR [rcx],dh
   140008417:	00 30                	add    BYTE PTR [rax],dh
   140008419:	00 00                	add    BYTE PTR [rax],al
   14000841b:	00 40 55             	add    BYTE PTR [rax+0x55],al
   14000841e:	48 83 ec 20          	sub    rsp,0x20
   140008422:	48 8b ea             	mov    rbp,rdx
   140008425:	48 8b 01             	mov    rax,QWORD PTR [rcx]
   140008428:	8b 08                	mov    ecx,DWORD PTR [rax]
   14000842a:	81 f9 05 00 00 c0    	cmp    ecx,0xc0000005
   140008430:	74 0c                	je     0x14000843e
   140008432:	81 f9 1d 00 00 c0    	cmp    ecx,0xc000001d
   140008438:	74 04                	je     0x14000843e
   14000843a:	33 c0                	xor    eax,eax
   14000843c:	eb 05                	jmp    0x140008443
   14000843e:	b8 01 00 00 00       	mov    eax,0x1
   140008443:	48 83 c4 20          	add    rsp,0x20
   140008447:	5d                   	pop    rbp
   140008448:	c3                   	ret
   140008449:	cc                   	int3

Disassembly of section NONPAGE:

0000000140009000 <NONPAGE>:
   140009000:	48 89 5c 24 08       	mov    QWORD PTR [rsp+0x8],rbx
   140009005:	48 89 54 24 10       	mov    QWORD PTR [rsp+0x10],rdx
   14000900a:	55                   	push   rbp
   14000900b:	56                   	push   rsi
   14000900c:	57                   	push   rdi
   14000900d:	41 56                	push   r14
   14000900f:	41 57                	push   r15
   140009011:	48 8d ac 24 70 ff ff 	lea    rbp,[rsp-0x90]
   140009018:	ff 
   140009019:	48 81 ec 90 01 00 00 	sub    rsp,0x190
   140009020:	48 8b ca             	mov    rcx,rdx
   140009023:	e8 1c 8d ff ff       	call   0x140001d44
   140009028:	48 8b 0d b9 5f 00 00 	mov    rcx,QWORD PTR [rip+0x5fb9]        # 0x14000efe8
   14000902f:	40 8a f0             	mov    sil,al
   140009032:	48 8b 95 c8 00 00 00 	mov    rdx,QWORD PTR [rbp+0xc8]
   140009039:	48 8b 81 08 04 00 00 	mov    rax,QWORD PTR [rcx+0x408]
   140009040:	48 8b 0d a9 5f 00 00 	mov    rcx,QWORD PTR [rip+0x5fa9]        # 0x14000eff0
   140009047:	ff 15 f3 20 00 00    	call   QWORD PTR [rip+0x20f3]        # 0x14000b140
   14000904d:	bb 90 00 00 00       	mov    ebx,0x90
   140009052:	48 8d 4d 00          	lea    rcx,[rbp+0x0]
   140009056:	44 8b c3             	mov    r8d,ebx
   140009059:	33 d2                	xor    edx,edx
   14000905b:	e8 e0 ec ff ff       	call   0x140007d40
   140009060:	48 8b 95 c8 00 00 00 	mov    rdx,QWORD PTR [rbp+0xc8]
   140009067:	48 8d 05 d2 86 ff ff 	lea    rax,[rip+0xffffffffffff86d2]        # 0x140001740
   14000906e:	48 8b 0d 7b 5f 00 00 	mov    rcx,QWORD PTR [rip+0x5f7b]        # 0x14000eff0
   140009075:	4c 8d 45 00          	lea    r8,[rbp+0x0]
   140009079:	48 89 45 28          	mov    QWORD PTR [rbp+0x28],rax
   14000907d:	48 8d 05 0c 87 ff ff 	lea    rax,[rip+0xffffffffffff870c]        # 0x140001790
   140009084:	48 89 45 30          	mov    QWORD PTR [rbp+0x30],rax
   140009088:	48 8d 05 21 86 ff ff 	lea    rax,[rip+0xffffffffffff8621]        # 0x1400016b0
   14000908f:	48 89 45 08          	mov    QWORD PTR [rbp+0x8],rax
   140009093:	48 8d 05 76 86 ff ff 	lea    rax,[rip+0xffffffffffff8676]        # 0x140001710
   14000909a:	48 89 45 18          	mov    QWORD PTR [rbp+0x18],rax
   14000909e:	48 8d 05 db 86 ff ff 	lea    rax,[rip+0xffffffffffff86db]        # 0x140001780
   1400090a5:	48 89 45 68          	mov    QWORD PTR [rbp+0x68],rax
   1400090a9:	48 8b 05 38 5f 00 00 	mov    rax,QWORD PTR [rip+0x5f38]        # 0x14000efe8
   1400090b0:	89 5d 00             	mov    DWORD PTR [rbp+0x0],ebx
   1400090b3:	48 8b 80 b8 01 00 00 	mov    rax,QWORD PTR [rax+0x1b8]
   1400090ba:	ff 15 80 20 00 00    	call   QWORD PTR [rip+0x2080]        # 0x14000b140
   1400090c0:	48 8b 05 51 2f 00 00 	mov    rax,QWORD PTR [rip+0x2f51]        # 0x14000c018
   1400090c7:	4c 8d 8d d0 00 00 00 	lea    r9,[rbp+0xd0]
   1400090ce:	48 8b 0d 1b 5f 00 00 	mov    rcx,QWORD PTR [rip+0x5f1b]        # 0x14000eff0
   1400090d5:	4c 8d 44 24 68       	lea    r8,[rsp+0x68]
   1400090da:	48 89 45 98          	mov    QWORD PTR [rbp-0x68],rax
   1400090de:	48 8d 95 c8 00 00 00 	lea    rdx,[rbp+0xc8]
   1400090e5:	33 db                	xor    ebx,ebx
   1400090e7:	48 c7 44 24 68 38 00 	mov    QWORD PTR [rsp+0x68],0x38
   1400090ee:	00 00 
   1400090f0:	48 8d 05 29 03 00 00 	lea    rax,[rip+0x329]        # 0x140009420
   1400090f7:	48 89 5c 24 78       	mov    QWORD PTR [rsp+0x78],rbx
   1400090fc:	48 89 44 24 70       	mov    QWORD PTR [rsp+0x70],rax
   140009101:	0f 57 c0             	xorps  xmm0,xmm0
   140009104:	48 8b 05 dd 5e 00 00 	mov    rax,QWORD PTR [rip+0x5edd]        # 0x14000efe8
   14000910b:	44 8d 73 01          	lea    r14d,[rbx+0x1]
   14000910f:	f3 0f 7f 45 88       	movdqu XMMWORD PTR [rbp-0x78],xmm0
   140009114:	44 89 75 80          	mov    DWORD PTR [rbp-0x80],r14d
   140009118:	44 8d 7b 38          	lea    r15d,[rbx+0x38]
   14000911c:	44 89 75 84          	mov    DWORD PTR [rbp-0x7c],r14d
   140009120:	48 8b 80 58 02 00 00 	mov    rax,QWORD PTR [rax+0x258]
   140009127:	ff 15 13 20 00 00    	call   QWORD PTR [rip+0x2013]        # 0x14000b140
   14000912d:	85 c0                	test   eax,eax
   14000912f:	0f 88 d0 02 00 00    	js     0x140009405
   140009135:	48 8b 05 ac 5e 00 00 	mov    rax,QWORD PTR [rip+0x5eac]        # 0x14000efe8
   14000913c:	4c 8b 05 d5 2e 00 00 	mov    r8,QWORD PTR [rip+0x2ed5]        # 0x14000c018
   140009143:	48 8b 95 d0 00 00 00 	mov    rdx,QWORD PTR [rbp+0xd0]
   14000914a:	48 8b 0d 9f 5e 00 00 	mov    rcx,QWORD PTR [rip+0x5e9f]        # 0x14000eff0
   140009151:	48 8b 80 50 06 00 00 	mov    rax,QWORD PTR [rax+0x650]
   140009158:	ff 15 e2 1f 00 00    	call   QWORD PTR [rip+0x1fe2]        # 0x14000b140
   14000915e:	33 d2                	xor    edx,edx
   140009160:	41 b8 2e 18 00 00    	mov    r8d,0x182e
   140009166:	48 8b c8             	mov    rcx,rax
   140009169:	48 8b f8             	mov    rdi,rax
   14000916c:	e8 cf eb ff ff       	call   0x140007d40
   140009171:	48 8b 8d d0 00 00 00 	mov    rcx,QWORD PTR [rbp+0xd0]
   140009178:	45 33 c0             	xor    r8d,r8d
   14000917b:	48 89 0f             	mov    QWORD PTR [rdi],rcx
   14000917e:	33 d2                	xor    edx,edx
   140009180:	48 8d 4f 29          	lea    rcx,[rdi+0x29]
   140009184:	66 c7 87 12 18 00 00 	mov    WORD PTR [rdi+0x1812],0x103
   14000918b:	03 01 
   14000918d:	ff 15 a5 1e 00 00    	call   QWORD PTR [rip+0x1ea5]        # 0x14000b038
   140009193:	48 8d 4f 41          	lea    rcx,[rdi+0x41]
   140009197:	45 33 c0             	xor    r8d,r8d
   14000919a:	41 8b d6             	mov    edx,r14d
   14000919d:	ff 15 95 1e 00 00    	call   QWORD PTR [rip+0x1e95]        # 0x14000b038
   1400091a3:	48 8d 4f 59          	lea    rcx,[rdi+0x59]
   1400091a7:	45 33 c0             	xor    r8d,r8d
   1400091aa:	41 8b d6             	mov    edx,r14d
   1400091ad:	ff 15 85 1e 00 00    	call   QWORD PTR [rip+0x1e85]        # 0x14000b038
   1400091b3:	48 8d 4f 71          	lea    rcx,[rdi+0x71]
   1400091b7:	45 33 c0             	xor    r8d,r8d
   1400091ba:	41 8b d6             	mov    edx,r14d
   1400091bd:	ff 15 75 1e 00 00    	call   QWORD PTR [rip+0x1e75]        # 0x14000b038
   1400091c3:	48 8d 8f 89 00 00 00 	lea    rcx,[rdi+0x89]
   1400091ca:	45 33 c0             	xor    r8d,r8d
   1400091cd:	33 d2                	xor    edx,edx
   1400091cf:	ff 15 63 1e 00 00    	call   QWORD PTR [rip+0x1e63]        # 0x14000b038
   1400091d5:	48 8d 8f a1 00 00 00 	lea    rcx,[rdi+0xa1]
   1400091dc:	45 33 c0             	xor    r8d,r8d
   1400091df:	33 d2                	xor    edx,edx
   1400091e1:	ff 15 51 1e 00 00    	call   QWORD PTR [rip+0x1e51]        # 0x14000b038
   1400091e7:	48 8d 8f b9 00 00 00 	lea    rcx,[rdi+0xb9]
   1400091ee:	45 33 c0             	xor    r8d,r8d
   1400091f1:	33 d2                	xor    edx,edx
   1400091f3:	ff 15 3f 1e 00 00    	call   QWORD PTR [rip+0x1e3f]        # 0x14000b038
   1400091f9:	48 8d 8f d1 00 00 00 	lea    rcx,[rdi+0xd1]
   140009200:	45 33 c0             	xor    r8d,r8d
   140009203:	33 d2                	xor    edx,edx
   140009205:	ff 15 2d 1e 00 00    	call   QWORD PTR [rip+0x1e2d]        # 0x14000b038
   14000920b:	48 8d 8f e9 00 00 00 	lea    rcx,[rdi+0xe9]
   140009212:	45 33 c0             	xor    r8d,r8d
   140009215:	33 d2                	xor    edx,edx
   140009217:	ff 15 1b 1e 00 00    	call   QWORD PTR [rip+0x1e1b]        # 0x14000b038
   14000921d:	48 8b cf             	mov    rcx,rdi
   140009220:	66 c7 87 0a 18 00 00 	mov    WORD PTR [rdi+0x180a],0x3201
   140009227:	01 32 
   140009229:	40 88 b7 2c 18 00 00 	mov    BYTE PTR [rdi+0x182c],sil
   140009230:	e8 cb 7d ff ff       	call   0x140001000
   140009235:	85 c0                	test   eax,eax
   140009237:	0f 88 c8 01 00 00    	js     0x140009405
   14000923d:	8d 73 60             	lea    esi,[rbx+0x60]
   140009240:	33 d2                	xor    edx,edx
   140009242:	44 8b c6             	mov    r8d,esi
   140009245:	48 8d 4d a0          	lea    rcx,[rbp-0x60]
   140009249:	e8 f2 ea ff ff       	call   0x140007d40
   14000924e:	83 4d f0 ff          	or     DWORD PTR [rbp-0x10],0xffffffff
   140009252:	8d 43 02             	lea    eax,[rbx+0x2]
   140009255:	48 8b 95 d0 00 00 00 	mov    rdx,QWORD PTR [rbp+0xd0]
   14000925c:	4c 8d 45 a0          	lea    r8,[rbp-0x60]
   140009260:	48 8b 0d 89 5d 00 00 	mov    rcx,QWORD PTR [rip+0x5d89]        # 0x14000eff0
   140009267:	45 33 c9             	xor    r9d,r9d
   14000926a:	89 45 a8             	mov    DWORD PTR [rbp-0x58],eax
   14000926d:	89 45 a4             	mov    DWORD PTR [rbp-0x5c],eax
   140009270:	48 8d 05 69 05 00 00 	lea    rax,[rip+0x569]        # 0x1400097e0
   140009277:	48 89 45 d0          	mov    QWORD PTR [rbp-0x30],rax
   14000927b:	48 8d 05 7e 02 00 00 	lea    rax,[rip+0x27e]        # 0x140009500
   140009282:	48 89 45 c8          	mov    QWORD PTR [rbp-0x38],rax
   140009286:	48 8d 05 43 85 ff ff 	lea    rax,[rip+0xffffffffffff8543]        # 0x1400017d0
   14000928d:	48 89 45 e8          	mov    QWORD PTR [rbp-0x18],rax
   140009291:	48 8b 05 50 5d 00 00 	mov    rax,QWORD PTR [rip+0x5d50]        # 0x14000efe8
   140009298:	89 75 a0             	mov    DWORD PTR [rbp-0x60],esi
   14000929b:	44 88 75 ad          	mov    BYTE PTR [rbp-0x53],r14b
   14000929f:	48 89 5c 24 20       	mov    QWORD PTR [rsp+0x20],rbx
   1400092a4:	48 8b 80 c0 04 00 00 	mov    rax,QWORD PTR [rax+0x4c0]
   1400092ab:	ff 15 8f 1e 00 00    	call   QWORD PTR [rip+0x1e8f]        # 0x14000b140
   1400092b1:	85 c0                	test   eax,eax
   1400092b3:	0f 88 4c 01 00 00    	js     0x140009405
   1400092b9:	48 8b 05 28 5d 00 00 	mov    rax,QWORD PTR [rip+0x5d28]        # 0x14000efe8
   1400092c0:	48 8b 15 41 5d 00 00 	mov    rdx,QWORD PTR [rip+0x5d41]        # 0x14000f008
   1400092c7:	48 8b 0d 22 5d 00 00 	mov    rcx,QWORD PTR [rip+0x5d22]        # 0x14000eff0
   1400092ce:	48 8b 80 e0 09 00 00 	mov    rax,QWORD PTR [rax+0x9e0]
   1400092d5:	ff 15 65 1e 00 00    	call   QWORD PTR [rip+0x1e65]        # 0x14000b140
   1400092db:	48 8b 05 06 5d 00 00 	mov    rax,QWORD PTR [rip+0x5d06]        # 0x14000efe8
   1400092e2:	48 8b 15 2f 5d 00 00 	mov    rdx,QWORD PTR [rip+0x5d2f]        # 0x14000f018
   1400092e9:	4c 8b 85 d0 00 00 00 	mov    r8,QWORD PTR [rbp+0xd0]
   1400092f0:	48 8b 0d f9 5c 00 00 	mov    rcx,QWORD PTR [rip+0x5cf9]        # 0x14000eff0
   1400092f7:	48 8b 40 78          	mov    rax,QWORD PTR [rax+0x78]
   1400092fb:	ff 15 3f 1e 00 00    	call   QWORD PTR [rip+0x1e3f]        # 0x14000b140
   140009301:	48 8b 15 00 5d 00 00 	mov    rdx,QWORD PTR [rip+0x5d00]        # 0x14000f008
   140009308:	8b f0                	mov    esi,eax
   14000930a:	85 c0                	test   eax,eax
   14000930c:	79 22                	jns    0x140009330
   14000930e:	48 8b 0d d3 5c 00 00 	mov    rcx,QWORD PTR [rip+0x5cd3]        # 0x14000efe8
   140009315:	48 8b 81 e8 09 00 00 	mov    rax,QWORD PTR [rcx+0x9e8]
   14000931c:	48 8b 0d cd 5c 00 00 	mov    rcx,QWORD PTR [rip+0x5ccd]        # 0x14000eff0
   140009323:	ff 15 17 1e 00 00    	call   QWORD PTR [rip+0x1e17]        # 0x14000b140
   140009329:	8b c6                	mov    eax,esi
   14000932b:	e9 d5 00 00 00       	jmp    0x140009405
   140009330:	48 8b 05 b1 5c 00 00 	mov    rax,QWORD PTR [rip+0x5cb1]        # 0x14000efe8
   140009337:	48 8b 0d b2 5c 00 00 	mov    rcx,QWORD PTR [rip+0x5cb2]        # 0x14000eff0
   14000933e:	48 8b 80 e8 09 00 00 	mov    rax,QWORD PTR [rax+0x9e8]
   140009345:	ff 15 f5 1d 00 00    	call   QWORD PTR [rip+0x1df5]        # 0x14000b140
   14000934b:	4d 8b c7             	mov    r8,r15
   14000934e:	48 8d 4c 24 30       	lea    rcx,[rsp+0x30]
   140009353:	33 d2                	xor    edx,edx
   140009355:	e8 e6 e9 ff ff       	call   0x140007d40
   14000935a:	48 8b 85 d0 00 00 00 	mov    rax,QWORD PTR [rbp+0xd0]
   140009361:	4c 8d 87 e3 17 00 00 	lea    r8,[rdi+0x17e3]
   140009368:	48 8b 0d 81 5c 00 00 	mov    rcx,QWORD PTR [rip+0x5c81]        # 0x14000eff0
   14000936f:	48 8d 54 24 30       	lea    rdx,[rsp+0x30]
   140009374:	48 89 44 24 50       	mov    QWORD PTR [rsp+0x50],rax
   140009379:	48 8b 05 68 5c 00 00 	mov    rax,QWORD PTR [rip+0x5c68]        # 0x14000efe8
   140009380:	44 89 7c 24 30       	mov    DWORD PTR [rsp+0x30],r15d
   140009385:	44 89 74 24 48       	mov    DWORD PTR [rsp+0x48],r14d
   14000938a:	44 89 74 24 4c       	mov    DWORD PTR [rsp+0x4c],r14d
   14000938f:	48 8b 80 d8 09 00 00 	mov    rax,QWORD PTR [rax+0x9d8]
   140009396:	ff 15 a4 1d 00 00    	call   QWORD PTR [rip+0x1da4]        # 0x14000b140
   14000939c:	85 c0                	test   eax,eax
   14000939e:	78 65                	js     0x140009405
   1400093a0:	4d 8b c7             	mov    r8,r15
   1400093a3:	48 8d 4c 24 30       	lea    rcx,[rsp+0x30]
   1400093a8:	33 d2                	xor    edx,edx
   1400093aa:	e8 91 e9 ff ff       	call   0x140007d40
   1400093af:	48 8b 85 d0 00 00 00 	mov    rax,QWORD PTR [rbp+0xd0]
   1400093b6:	4c 8d 47 10          	lea    r8,[rdi+0x10]
   1400093ba:	48 8b 0d 2f 5c 00 00 	mov    rcx,QWORD PTR [rip+0x5c2f]        # 0x14000eff0
   1400093c1:	48 8d 54 24 30       	lea    rdx,[rsp+0x30]
   1400093c6:	48 89 44 24 50       	mov    QWORD PTR [rsp+0x50],rax
   1400093cb:	48 8b 05 16 5c 00 00 	mov    rax,QWORD PTR [rip+0x5c16]        # 0x14000efe8
   1400093d2:	44 89 7c 24 30       	mov    DWORD PTR [rsp+0x30],r15d
   1400093d7:	44 89 74 24 48       	mov    DWORD PTR [rsp+0x48],r14d
   1400093dc:	44 89 74 24 4c       	mov    DWORD PTR [rsp+0x4c],r14d
   1400093e1:	48 8b 80 d8 09 00 00 	mov    rax,QWORD PTR [rax+0x9d8]
   1400093e8:	ff 15 52 1d 00 00    	call   QWORD PTR [rip+0x1d52]        # 0x14000b140
   1400093ee:	85 c0                	test   eax,eax
   1400093f0:	78 13                	js     0x140009405
   1400093f2:	48 8b 8d d0 00 00 00 	mov    rcx,QWORD PTR [rbp+0xd0]
   1400093f9:	e8 da 7e ff ff       	call   0x1400012d8
   1400093fe:	85 c0                	test   eax,eax
   140009400:	0f 48 d8             	cmovs  ebx,eax
   140009403:	8b c3                	mov    eax,ebx
   140009405:	48 8b 9c 24 c0 01 00 	mov    rbx,QWORD PTR [rsp+0x1c0]
   14000940c:	00 
   14000940d:	48 81 c4 90 01 00 00 	add    rsp,0x190
   140009414:	41 5f                	pop    r15
   140009416:	41 5e                	pop    r14
   140009418:	5f                   	pop    rdi
   140009419:	5e                   	pop    rsi
   14000941a:	5d                   	pop    rbp
   14000941b:	c3                   	ret
   14000941c:	cc                   	int3
   14000941d:	cc                   	int3
   14000941e:	cc                   	int3
   14000941f:	cc                   	int3
   140009420:	48 89 5c 24 08       	mov    QWORD PTR [rsp+0x8],rbx
   140009425:	57                   	push   rdi
   140009426:	48 83 ec 20          	sub    rsp,0x20
   14000942a:	48 8b 05 b7 5b 00 00 	mov    rax,QWORD PTR [rip+0x5bb7]        # 0x14000efe8
   140009431:	48 8b d9             	mov    rbx,rcx
   140009434:	4c 8b 05 dd 2b 00 00 	mov    r8,QWORD PTR [rip+0x2bdd]        # 0x14000c018
   14000943b:	48 8b d1             	mov    rdx,rcx
   14000943e:	48 8b 0d ab 5b 00 00 	mov    rcx,QWORD PTR [rip+0x5bab]        # 0x14000eff0
   140009445:	48 8b 80 50 06 00 00 	mov    rax,QWORD PTR [rax+0x650]
   14000944c:	ff 15 ee 1c 00 00    	call   QWORD PTR [rip+0x1cee]        # 0x14000b140
   140009452:	48 8b 15 8f 5b 00 00 	mov    rdx,QWORD PTR [rip+0x5b8f]        # 0x14000efe8
   140009459:	48 8b f8             	mov    rdi,rax
   14000945c:	48 8b 0d 8d 5b 00 00 	mov    rcx,QWORD PTR [rip+0x5b8d]        # 0x14000eff0
   140009463:	48 8b 82 e0 09 00 00 	mov    rax,QWORD PTR [rdx+0x9e0]
   14000946a:	48 8b 15 97 5b 00 00 	mov    rdx,QWORD PTR [rip+0x5b97]        # 0x14000f008
   140009471:	ff 15 c9 1c 00 00    	call   QWORD PTR [rip+0x1cc9]        # 0x14000b140
   140009477:	48 8b 0d 6a 5b 00 00 	mov    rcx,QWORD PTR [rip+0x5b6a]        # 0x14000efe8
   14000947e:	48 8b 15 93 5b 00 00 	mov    rdx,QWORD PTR [rip+0x5b93]        # 0x14000f018
   140009485:	48 8b 41 70          	mov    rax,QWORD PTR [rcx+0x70]
   140009489:	48 8b 0d 60 5b 00 00 	mov    rcx,QWORD PTR [rip+0x5b60]        # 0x14000eff0
   140009490:	ff 15 aa 1c 00 00    	call   QWORD PTR [rip+0x1caa]        # 0x14000b140
   140009496:	85 c0                	test   eax,eax
   140009498:	74 25                	je     0x1400094bf
   14000949a:	48 8b 05 47 5b 00 00 	mov    rax,QWORD PTR [rip+0x5b47]        # 0x14000efe8
   1400094a1:	4c 8b c3             	mov    r8,rbx
   1400094a4:	48 8b 15 6d 5b 00 00 	mov    rdx,QWORD PTR [rip+0x5b6d]        # 0x14000f018
   1400094ab:	48 8b 0d 3e 5b 00 00 	mov    rcx,QWORD PTR [rip+0x5b3e]        # 0x14000eff0
   1400094b2:	48 8b 80 80 00 00 00 	mov    rax,QWORD PTR [rax+0x80]
   1400094b9:	ff 15 81 1c 00 00    	call   QWORD PTR [rip+0x1c81]        # 0x14000b140
   1400094bf:	48 8b 05 22 5b 00 00 	mov    rax,QWORD PTR [rip+0x5b22]        # 0x14000efe8
   1400094c6:	48 8b 15 3b 5b 00 00 	mov    rdx,QWORD PTR [rip+0x5b3b]        # 0x14000f008
   1400094cd:	48 8b 0d 1c 5b 00 00 	mov    rcx,QWORD PTR [rip+0x5b1c]        # 0x14000eff0
   1400094d4:	48 8b 80 e8 09 00 00 	mov    rax,QWORD PTR [rax+0x9e8]
   1400094db:	ff 15 5f 1c 00 00    	call   QWORD PTR [rip+0x1c5f]        # 0x14000b140
   1400094e1:	48 8b cf             	mov    rcx,rdi
   1400094e4:	e8 27 8a ff ff       	call   0x140001f10
   1400094e9:	48 8b cb             	mov    rcx,rbx
   1400094ec:	48 8b 5c 24 30       	mov    rbx,QWORD PTR [rsp+0x30]
   1400094f1:	48 83 c4 20          	add    rsp,0x20
   1400094f5:	5f                   	pop    rdi
   1400094f6:	e9 79 81 ff ff       	jmp    0x140001674
   1400094fb:	cc                   	int3
   1400094fc:	cc                   	int3
   1400094fd:	cc                   	int3
   1400094fe:	cc                   	int3
   1400094ff:	cc                   	int3
   140009500:	48 85 d2             	test   rdx,rdx
   140009503:	0f 84 cb 02 00 00    	je     0x1400097d4
   140009509:	48 89 5c 24 18       	mov    QWORD PTR [rsp+0x18],rbx
   14000950e:	55                   	push   rbp
   14000950f:	56                   	push   rsi
   140009510:	57                   	push   rdi
   140009511:	48 83 ec 50          	sub    rsp,0x50
   140009515:	48 8b 05 54 30 00 00 	mov    rax,QWORD PTR [rip+0x3054]        # 0x14000c570
   14000951c:	48 33 c4             	xor    rax,rsp
   14000951f:	48 89 44 24 48       	mov    QWORD PTR [rsp+0x48],rax
   140009524:	48 8b 05 bd 5a 00 00 	mov    rax,QWORD PTR [rip+0x5abd]        # 0x14000efe8
   14000952b:	48 8b da             	mov    rbx,rdx
   14000952e:	48 8b d1             	mov    rdx,rcx
   140009531:	48 8b 0d b8 5a 00 00 	mov    rcx,QWORD PTR [rip+0x5ab8]        # 0x14000eff0
   140009538:	48 8b 80 e8 04 00 00 	mov    rax,QWORD PTR [rax+0x4e8]
   14000953f:	ff 15 fb 1b 00 00    	call   QWORD PTR [rip+0x1bfb]        # 0x14000b140
   140009545:	48 8b e8             	mov    rbp,rax
   140009548:	48 85 c0             	test   rax,rax
   14000954b:	0f 84 67 02 00 00    	je     0x1400097b8
   140009551:	48 8b 0d 90 5a 00 00 	mov    rcx,QWORD PTR [rip+0x5a90]        # 0x14000efe8
   140009558:	45 33 c0             	xor    r8d,r8d
   14000955b:	48 8b 15 b6 5a 00 00 	mov    rdx,QWORD PTR [rip+0x5ab6]        # 0x14000f018
   140009562:	48 8b 81 90 00 00 00 	mov    rax,QWORD PTR [rcx+0x90]
   140009569:	48 8b 0d 80 5a 00 00 	mov    rcx,QWORD PTR [rip+0x5a80]        # 0x14000eff0
   140009570:	ff 15 ca 1b 00 00    	call   QWORD PTR [rip+0x1bca]        # 0x14000b140
   140009576:	48 8b d0             	mov    rdx,rax
   140009579:	48 85 c0             	test   rax,rax
   14000957c:	0f 84 36 02 00 00    	je     0x1400097b8
   140009582:	48 8b 0d 5f 5a 00 00 	mov    rcx,QWORD PTR [rip+0x5a5f]        # 0x14000efe8
   140009589:	4c 8b 05 88 2a 00 00 	mov    r8,QWORD PTR [rip+0x2a88]        # 0x14000c018
   140009590:	48 8b 81 50 06 00 00 	mov    rax,QWORD PTR [rcx+0x650]
   140009597:	48 8b 0d 52 5a 00 00 	mov    rcx,QWORD PTR [rip+0x5a52]        # 0x14000eff0
   14000959e:	ff 15 9c 1b 00 00    	call   QWORD PTR [rip+0x1b9c]        # 0x14000b140
   1400095a4:	48 8b 0d 3d 5a 00 00 	mov    rcx,QWORD PTR [rip+0x5a3d]        # 0x14000efe8
   1400095ab:	48 8b d3             	mov    rdx,rbx
   1400095ae:	48 8b f8             	mov    rdi,rax
   1400095b1:	48 8b 81 e8 08 00 00 	mov    rax,QWORD PTR [rcx+0x8e8]
   1400095b8:	48 8b 0d 31 5a 00 00 	mov    rcx,QWORD PTR [rip+0x5a31]        # 0x14000eff0
   1400095bf:	ff 15 7b 1b 00 00    	call   QWORD PTR [rip+0x1b7b]        # 0x14000b140
   1400095c5:	8b b4 24 90 00 00 00 	mov    esi,DWORD PTR [rsp+0x90]
   1400095cc:	81 fe 00 20 0f 00    	cmp    esi,0xf2000
   1400095d2:	0f 85 92 00 00 00    	jne    0x14000966a
   1400095d8:	48 8b 0d 09 5a 00 00 	mov    rcx,QWORD PTR [rip+0x5a09]        # 0x14000efe8
   1400095df:	4c 8d 4c 24 30       	lea    r9,[rsp+0x30]
   1400095e4:	48 83 64 24 20 00    	and    QWORD PTR [rsp+0x20],0x0
   1400095ea:	41 b8 04 00 00 00    	mov    r8d,0x4
   1400095f0:	48 8b d3             	mov    rdx,rbx
   1400095f3:	48 8b 81 68 08 00 00 	mov    rax,QWORD PTR [rcx+0x868]
   1400095fa:	48 8b 0d ef 59 00 00 	mov    rcx,QWORD PTR [rip+0x59ef]        # 0x14000eff0
   140009601:	ff 15 39 1b 00 00    	call   QWORD PTR [rip+0x1b39]        # 0x14000b140
   140009607:	8b f0                	mov    esi,eax
   140009609:	85 c0                	test   eax,eax
   14000960b:	78 34                	js     0x140009641
   14000960d:	48 8b 4c 24 30       	mov    rcx,QWORD PTR [rsp+0x30]
   140009612:	83 39 01             	cmp    DWORD PTR [rcx],0x1
   140009615:	75 21                	jne    0x140009638
   140009617:	e8 b8 81 ff ff       	call   0x1400017d4
   14000961c:	fe c0                	inc    al
   14000961e:	88 87 0a 18 00 00    	mov    BYTE PTR [rdi+0x180a],al
   140009624:	e8 a3 84 ff ff       	call   0x140001acc
   140009629:	88 87 11 18 00 00    	mov    BYTE PTR [rdi+0x1811],al
   14000962f:	c6 87 0b 18 00 00 37 	mov    BYTE PTR [rdi+0x180b],0x37
   140009636:	eb 09                	jmp    0x140009641
   140009638:	66 c7 87 0a 18 00 00 	mov    WORD PTR [rdi+0x180a],0x3201
   14000963f:	01 32 
   140009641:	48 8b 05 a0 59 00 00 	mov    rax,QWORD PTR [rip+0x59a0]        # 0x14000efe8
   140009648:	45 33 c9             	xor    r9d,r9d
   14000964b:	48 8b 0d 9e 59 00 00 	mov    rcx,QWORD PTR [rip+0x599e]        # 0x14000eff0
   140009652:	44 8b c6             	mov    r8d,esi
   140009655:	48 8b d3             	mov    rdx,rbx
   140009658:	48 8b 80 48 08 00 00 	mov    rax,QWORD PTR [rax+0x848]
   14000965f:	ff 15 db 1a 00 00    	call   QWORD PTR [rip+0x1adb]        # 0x14000b140
   140009665:	e9 4e 01 00 00       	jmp    0x1400097b8
   14000966a:	48 8b 05 77 59 00 00 	mov    rax,QWORD PTR [rip+0x5977]        # 0x14000efe8
   140009671:	48 8b d5             	mov    rdx,rbp
   140009674:	48 8b 0d 75 59 00 00 	mov    rcx,QWORD PTR [rip+0x5975]        # 0x14000eff0
   14000967b:	48 8b 80 50 01 00 00 	mov    rax,QWORD PTR [rax+0x150]
   140009682:	ff 15 b8 1a 00 00    	call   QWORD PTR [rip+0x1ab8]        # 0x14000b140
   140009688:	48 8b f8             	mov    rdi,rax
   14000968b:	48 85 c0             	test   rax,rax
   14000968e:	75 19                	jne    0x1400096a9
   140009690:	48 8b 05 51 59 00 00 	mov    rax,QWORD PTR [rip+0x5951]        # 0x14000efe8
   140009697:	41 b8 01 00 00 c0    	mov    r8d,0xc0000001
   14000969d:	48 8b 80 38 08 00 00 	mov    rax,QWORD PTR [rax+0x838]
   1400096a4:	e9 ff 00 00 00       	jmp    0x1400097a8
   1400096a9:	81 fe 10 02 41 00    	cmp    esi,0x410210
   1400096af:	74 57                	je     0x140009708
   1400096b1:	81 fe c0 0f 22 00    	cmp    esi,0x220fc0
   1400096b7:	74 4f                	je     0x140009708
   1400096b9:	48 8b 05 28 59 00 00 	mov    rax,QWORD PTR [rip+0x5928]        # 0x14000efe8
   1400096c0:	48 8b d5             	mov    rdx,rbp
   1400096c3:	48 83 64 24 40 00    	and    QWORD PTR [rsp+0x40],0x0
   1400096c9:	48 8b 0d 20 59 00 00 	mov    rcx,QWORD PTR [rip+0x5920]        # 0x14000eff0
   1400096d0:	c7 44 24 38 10 00 00 	mov    DWORD PTR [rsp+0x38],0x10
   1400096d7:	00 
   1400096d8:	c7 44 24 3c 08 00 00 	mov    DWORD PTR [rsp+0x3c],0x8
   1400096df:	00 
   1400096e0:	48 8b 80 50 01 00 00 	mov    rax,QWORD PTR [rax+0x150]
   1400096e7:	ff 15 53 1a 00 00    	call   QWORD PTR [rip+0x1a53]        # 0x14000b140
   1400096ed:	48 8b 0d f4 58 00 00 	mov    rcx,QWORD PTR [rip+0x58f4]        # 0x14000efe8
   1400096f4:	4c 8d 4c 24 38       	lea    r9,[rsp+0x38]
   1400096f9:	4c 8b c0             	mov    r8,rax
   1400096fc:	4c 8b 91 e8 07 00 00 	mov    r10,QWORD PTR [rcx+0x7e8]
   140009703:	49 8b c2             	mov    rax,r10
   140009706:	eb 5a                	jmp    0x140009762
   140009708:	48 8b 05 d9 58 00 00 	mov    rax,QWORD PTR [rip+0x58d9]        # 0x14000efe8
   14000970f:	48 8b d3             	mov    rdx,rbx
   140009712:	48 8b 0d d7 58 00 00 	mov    rcx,QWORD PTR [rip+0x58d7]        # 0x14000eff0
   140009719:	48 8b 80 d8 07 00 00 	mov    rax,QWORD PTR [rax+0x7d8]
   140009720:	ff 15 1a 1a 00 00    	call   QWORD PTR [rip+0x1a1a]        # 0x14000b140
   140009726:	48 8b 05 bb 58 00 00 	mov    rax,QWORD PTR [rip+0x58bb]        # 0x14000efe8
   14000972d:	4c 8d 05 0c 0d 00 00 	lea    r8,[rip+0xd0c]        # 0x14000a440
   140009734:	48 8b 0d b5 58 00 00 	mov    rcx,QWORD PTR [rip+0x58b5]        # 0x14000eff0
   14000973b:	4c 8b cd             	mov    r9,rbp
   14000973e:	48 8b d3             	mov    rdx,rbx
   140009741:	48 8b 80 20 08 00 00 	mov    rax,QWORD PTR [rax+0x820]
   140009748:	ff 15 f2 19 00 00    	call   QWORD PTR [rip+0x19f2]        # 0x14000b140
   14000974e:	48 8b 05 93 58 00 00 	mov    rax,QWORD PTR [rip+0x5893]        # 0x14000efe8
   140009755:	45 33 c9             	xor    r9d,r9d
   140009758:	4c 8b c7             	mov    r8,rdi
   14000975b:	48 8b 80 e8 07 00 00 	mov    rax,QWORD PTR [rax+0x7e8]
   140009762:	48 8b 0d 87 58 00 00 	mov    rcx,QWORD PTR [rip+0x5887]        # 0x14000eff0
   140009769:	48 8b d3             	mov    rdx,rbx
   14000976c:	ff 15 ce 19 00 00    	call   QWORD PTR [rip+0x19ce]        # 0x14000b140
   140009772:	84 c0                	test   al,al
   140009774:	75 42                	jne    0x1400097b8
   140009776:	48 8b 05 6b 58 00 00 	mov    rax,QWORD PTR [rip+0x586b]        # 0x14000efe8
   14000977d:	48 8b d3             	mov    rdx,rbx
   140009780:	48 8b 0d 69 58 00 00 	mov    rcx,QWORD PTR [rip+0x5869]        # 0x14000eff0
   140009787:	48 8b 80 f0 07 00 00 	mov    rax,QWORD PTR [rax+0x7f0]
   14000978e:	ff 15 ac 19 00 00    	call   QWORD PTR [rip+0x19ac]        # 0x14000b140
   140009794:	48 8b 0d 4d 58 00 00 	mov    rcx,QWORD PTR [rip+0x584d]        # 0x14000efe8
   14000979b:	44 8b c0             	mov    r8d,eax
   14000979e:	4c 8b 89 38 08 00 00 	mov    r9,QWORD PTR [rcx+0x838]
   1400097a5:	49 8b c1             	mov    rax,r9
   1400097a8:	48 8b 0d 41 58 00 00 	mov    rcx,QWORD PTR [rip+0x5841]        # 0x14000eff0
   1400097af:	48 8b d3             	mov    rdx,rbx
   1400097b2:	ff 15 88 19 00 00    	call   QWORD PTR [rip+0x1988]        # 0x14000b140
   1400097b8:	48 8b 4c 24 48       	mov    rcx,QWORD PTR [rsp+0x48]
   1400097bd:	48 33 cc             	xor    rcx,rsp
   1400097c0:	e8 5b d5 ff ff       	call   0x140006d20
   1400097c5:	48 8b 9c 24 80 00 00 	mov    rbx,QWORD PTR [rsp+0x80]
   1400097cc:	00 
   1400097cd:	48 83 c4 50          	add    rsp,0x50
   1400097d1:	5f                   	pop    rdi
   1400097d2:	5e                   	pop    rsi
   1400097d3:	5d                   	pop    rbp
   1400097d4:	c3                   	ret
   1400097d5:	cc                   	int3
   1400097d6:	cc                   	int3
   1400097d7:	cc                   	int3
   1400097d8:	cc                   	int3
   1400097d9:	cc                   	int3
   1400097da:	cc                   	int3
   1400097db:	cc                   	int3
   1400097dc:	cc                   	int3
   1400097dd:	cc                   	int3
   1400097de:	cc                   	int3
   1400097df:	cc                   	int3
   1400097e0:	48 89 5c 24 18       	mov    QWORD PTR [rsp+0x18],rbx
   1400097e5:	55                   	push   rbp
   1400097e6:	56                   	push   rsi
   1400097e7:	57                   	push   rdi
   1400097e8:	48 83 ec 50          	sub    rsp,0x50
   1400097ec:	48 8b 05 7d 2d 00 00 	mov    rax,QWORD PTR [rip+0x2d7d]        # 0x14000c570
   1400097f3:	48 33 c4             	xor    rax,rsp
   1400097f6:	48 89 44 24 40       	mov    QWORD PTR [rsp+0x40],rax
   1400097fb:	48 8b 05 e6 57 00 00 	mov    rax,QWORD PTR [rip+0x57e6]        # 0x14000efe8
   140009802:	48 8b da             	mov    rbx,rdx
   140009805:	48 8b d1             	mov    rdx,rcx
   140009808:	48 8b 0d e1 57 00 00 	mov    rcx,QWORD PTR [rip+0x57e1]        # 0x14000eff0
   14000980f:	48 8b 80 e8 04 00 00 	mov    rax,QWORD PTR [rax+0x4e8]
   140009816:	ff 15 24 19 00 00    	call   QWORD PTR [rip+0x1924]        # 0x14000b140
   14000981c:	48 8b 0d c5 57 00 00 	mov    rcx,QWORD PTR [rip+0x57c5]        # 0x14000efe8
   140009823:	48 8b f0             	mov    rsi,rax
   140009826:	4c 8b 05 eb 27 00 00 	mov    r8,QWORD PTR [rip+0x27eb]        # 0x14000c018
   14000982d:	48 8b d6             	mov    rdx,rsi
   140009830:	48 8b 81 50 06 00 00 	mov    rax,QWORD PTR [rcx+0x650]
   140009837:	48 8b 0d b2 57 00 00 	mov    rcx,QWORD PTR [rip+0x57b2]        # 0x14000eff0
   14000983e:	ff 15 fc 18 00 00    	call   QWORD PTR [rip+0x18fc]        # 0x14000b140
   140009844:	48 8b 0d 9d 57 00 00 	mov    rcx,QWORD PTR [rip+0x579d]        # 0x14000efe8
   14000984b:	48 8b d3             	mov    rdx,rbx
   14000984e:	48 8b f8             	mov    rdi,rax
   140009851:	48 8b 81 e8 08 00 00 	mov    rax,QWORD PTR [rcx+0x8e8]
   140009858:	48 8b 0d 91 57 00 00 	mov    rcx,QWORD PTR [rip+0x5791]        # 0x14000eff0
   14000985f:	ff 15 db 18 00 00    	call   QWORD PTR [rip+0x18db]        # 0x14000b140
   140009865:	48 8b 0d 7c 57 00 00 	mov    rcx,QWORD PTR [rip+0x577c]        # 0x14000efe8
   14000986c:	48 8b d6             	mov    rdx,rsi
   14000986f:	48 8b a8 b8 00 00 00 	mov    rbp,QWORD PTR [rax+0xb8]
   140009876:	48 8b 81 f8 00 00 00 	mov    rax,QWORD PTR [rcx+0xf8]
   14000987d:	48 8b 0d 6c 57 00 00 	mov    rcx,QWORD PTR [rip+0x576c]        # 0x14000eff0
   140009884:	ff 15 b6 18 00 00    	call   QWORD PTR [rip+0x18b6]        # 0x14000b140
   14000988a:	81 bc 24 90 00 00 00 	cmp    DWORD PTR [rsp+0x90],0x410003
   140009891:	03 00 41 00 
   140009895:	0f 85 db 02 00 00    	jne    0x140009b76
   14000989b:	48 85 ed             	test   rbp,rbp
   14000989e:	0f 84 d2 02 00 00    	je     0x140009b76
   1400098a4:	48 8b 4d 08          	mov    rcx,QWORD PTR [rbp+0x8]
   1400098a8:	48 85 c9             	test   rcx,rcx
   1400098ab:	0f 84 c5 02 00 00    	je     0x140009b76
   1400098b1:	0f b7 41 16          	movzx  eax,WORD PTR [rcx+0x16]
   1400098b5:	ba 05 01 00 00       	mov    edx,0x105
   1400098ba:	66 3b c2             	cmp    ax,dx
   1400098bd:	75 7a                	jne    0x140009939
   1400098bf:	48 8b 47 20          	mov    rax,QWORD PTR [rdi+0x20]
   1400098c3:	48 39 41 78          	cmp    QWORD PTR [rcx+0x78],rax
   1400098c7:	0f 85 a9 02 00 00    	jne    0x140009b76
   1400098cd:	48 8b 05 14 57 00 00 	mov    rax,QWORD PTR [rip+0x5714]        # 0x14000efe8
   1400098d4:	48 8b d3             	mov    rdx,rbx
   1400098d7:	48 8b 0d 12 57 00 00 	mov    rcx,QWORD PTR [rip+0x5712]        # 0x14000eff0
   1400098de:	48 8b 80 d8 07 00 00 	mov    rax,QWORD PTR [rax+0x7d8]
   1400098e5:	ff 15 55 18 00 00    	call   QWORD PTR [rip+0x1855]        # 0x14000b140
   1400098eb:	4c 8d 05 6e 05 00 00 	lea    r8,[rip+0x56e]        # 0x140009e60
   1400098f2:	48 8b 05 ef 56 00 00 	mov    rax,QWORD PTR [rip+0x56ef]        # 0x14000efe8
   1400098f9:	4c 8b ce             	mov    r9,rsi
   1400098fc:	48 8b 0d ed 56 00 00 	mov    rcx,QWORD PTR [rip+0x56ed]        # 0x14000eff0
   140009903:	48 8b d3             	mov    rdx,rbx
   140009906:	48 8b 80 20 08 00 00 	mov    rax,QWORD PTR [rax+0x820]
   14000990d:	ff 15 2d 18 00 00    	call   QWORD PTR [rip+0x182d]        # 0x14000b140
   140009913:	48 8b 05 ce 56 00 00 	mov    rax,QWORD PTR [rip+0x56ce]        # 0x14000efe8
   14000991a:	48 8b d6             	mov    rdx,rsi
   14000991d:	48 8b 0d cc 56 00 00 	mov    rcx,QWORD PTR [rip+0x56cc]        # 0x14000eff0
   140009924:	48 8b 80 50 01 00 00 	mov    rax,QWORD PTR [rax+0x150]
   14000992b:	ff 15 0f 18 00 00    	call   QWORD PTR [rip+0x180f]        # 0x14000b140
   140009931:	45 33 c9             	xor    r9d,r9d
   140009934:	e9 76 02 00 00       	jmp    0x140009baf
   140009939:	b9 04 01 00 00       	mov    ecx,0x104
   14000993e:	66 3b c1             	cmp    ax,cx
   140009941:	0f 85 fe 00 00 00    	jne    0x140009a45
   140009947:	48 8b 05 9a 56 00 00 	mov    rax,QWORD PTR [rip+0x569a]        # 0x14000efe8
   14000994e:	48 8b d3             	mov    rdx,rbx
   140009951:	48 8b 0d 98 56 00 00 	mov    rcx,QWORD PTR [rip+0x5698]        # 0x14000eff0
   140009958:	48 8b 80 d8 07 00 00 	mov    rax,QWORD PTR [rax+0x7d8]
   14000995f:	ff 15 db 17 00 00    	call   QWORD PTR [rip+0x17db]        # 0x14000b140
   140009965:	48 8b 05 7c 56 00 00 	mov    rax,QWORD PTR [rip+0x567c]        # 0x14000efe8
   14000996c:	4c 8d 05 cd 02 00 00 	lea    r8,[rip+0x2cd]        # 0x140009c40
   140009973:	48 8b 0d 76 56 00 00 	mov    rcx,QWORD PTR [rip+0x5676]        # 0x14000eff0
   14000997a:	4c 8b ce             	mov    r9,rsi
   14000997d:	48 8b d3             	mov    rdx,rbx
   140009980:	48 8b 80 20 08 00 00 	mov    rax,QWORD PTR [rax+0x820]
   140009987:	ff 15 b3 17 00 00    	call   QWORD PTR [rip+0x17b3]        # 0x14000b140
   14000998d:	48 8b 05 54 56 00 00 	mov    rax,QWORD PTR [rip+0x5654]        # 0x14000efe8
   140009994:	48 8b d6             	mov    rdx,rsi
   140009997:	48 8b 0d 52 56 00 00 	mov    rcx,QWORD PTR [rip+0x5652]        # 0x14000eff0
   14000999e:	48 8b 80 50 01 00 00 	mov    rax,QWORD PTR [rax+0x150]
   1400099a5:	ff 15 95 17 00 00    	call   QWORD PTR [rip+0x1795]        # 0x14000b140
   1400099ab:	48 8b 0d 36 56 00 00 	mov    rcx,QWORD PTR [rip+0x5636]        # 0x14000efe8
   1400099b2:	45 33 c9             	xor    r9d,r9d
   1400099b5:	4c 8b c0             	mov    r8,rax
   1400099b8:	48 8b d3             	mov    rdx,rbx
   1400099bb:	4c 8b 91 e8 07 00 00 	mov    r10,QWORD PTR [rcx+0x7e8]
   1400099c2:	48 8b 0d 27 56 00 00 	mov    rcx,QWORD PTR [rip+0x5627]        # 0x14000eff0
   1400099c9:	49 8b c2             	mov    rax,r10
   1400099cc:	ff 15 6e 17 00 00    	call   QWORD PTR [rip+0x176e]        # 0x14000b140
   1400099d2:	84 c0                	test   al,al
   1400099d4:	75 42                	jne    0x140009a18
   1400099d6:	48 8b 05 0b 56 00 00 	mov    rax,QWORD PTR [rip+0x560b]        # 0x14000efe8
   1400099dd:	48 8b d3             	mov    rdx,rbx
   1400099e0:	48 8b 0d 09 56 00 00 	mov    rcx,QWORD PTR [rip+0x5609]        # 0x14000eff0
   1400099e7:	48 8b 80 f0 07 00 00 	mov    rax,QWORD PTR [rax+0x7f0]
   1400099ee:	ff 15 4c 17 00 00    	call   QWORD PTR [rip+0x174c]        # 0x14000b140
   1400099f4:	48 8b 0d ed 55 00 00 	mov    rcx,QWORD PTR [rip+0x55ed]        # 0x14000efe8
   1400099fb:	48 8b d3             	mov    rdx,rbx
   1400099fe:	44 8b c0             	mov    r8d,eax
   140009a01:	4c 8b 89 38 08 00 00 	mov    r9,QWORD PTR [rcx+0x838]
   140009a08:	48 8b 0d e1 55 00 00 	mov    rcx,QWORD PTR [rip+0x55e1]        # 0x14000eff0
   140009a0f:	49 8b c1             	mov    rax,r9
   140009a12:	ff 15 28 17 00 00    	call   QWORD PTR [rip+0x1728]        # 0x14000b140
   140009a18:	45 33 c0             	xor    r8d,r8d
   140009a1b:	48 8d 8f d1 00 00 00 	lea    rcx,[rdi+0xd1]
   140009a22:	33 d2                	xor    edx,edx
   140009a24:	38 97 13 18 00 00    	cmp    BYTE PTR [rdi+0x1813],dl
   140009a2a:	75 07                	jne    0x140009a33
   140009a2c:	48 8d 8f e9 00 00 00 	lea    rcx,[rdi+0xe9]
   140009a33:	ff 15 0f 16 00 00    	call   QWORD PTR [rip+0x160f]        # 0x14000b048
   140009a39:	c6 87 2d 18 00 00 00 	mov    BYTE PTR [rdi+0x182d],0x0
   140009a40:	e9 d4 01 00 00       	jmp    0x140009c19
   140009a45:	b9 02 01 00 00       	mov    ecx,0x102
   140009a4a:	66 3b c1             	cmp    ax,cx
   140009a4d:	75 2a                	jne    0x140009a79
   140009a4f:	48 8b 05 92 55 00 00 	mov    rax,QWORD PTR [rip+0x5592]        # 0x14000efe8
   140009a56:	48 8b d3             	mov    rdx,rbx
   140009a59:	48 8b 0d 90 55 00 00 	mov    rcx,QWORD PTR [rip+0x5590]        # 0x14000eff0
   140009a60:	48 8b 80 d8 07 00 00 	mov    rax,QWORD PTR [rax+0x7d8]
   140009a67:	ff 15 d3 16 00 00    	call   QWORD PTR [rip+0x16d3]        # 0x14000b140
   140009a6d:	4c 8d 05 cc 02 00 00 	lea    r8,[rip+0x2cc]        # 0x140009d40
   140009a74:	e9 79 fe ff ff       	jmp    0x1400098f2
   140009a79:	b9 03 01 00 00       	mov    ecx,0x103
   140009a7e:	66 3b c1             	cmp    ax,cx
   140009a81:	0f 85 ef 00 00 00    	jne    0x140009b76
   140009a87:	48 8b 05 5a 55 00 00 	mov    rax,QWORD PTR [rip+0x555a]        # 0x14000efe8
   140009a8e:	48 8b d3             	mov    rdx,rbx
   140009a91:	48 8b 0d 58 55 00 00 	mov    rcx,QWORD PTR [rip+0x5558]        # 0x14000eff0
   140009a98:	48 8b 80 d8 07 00 00 	mov    rax,QWORD PTR [rax+0x7d8]
   140009a9f:	ff 15 9b 16 00 00    	call   QWORD PTR [rip+0x169b]        # 0x14000b140
   140009aa5:	48 8b 05 3c 55 00 00 	mov    rax,QWORD PTR [rip+0x553c]        # 0x14000efe8
   140009aac:	4c 8d 05 8d 02 00 00 	lea    r8,[rip+0x28d]        # 0x140009d40
   140009ab3:	48 8b 0d 36 55 00 00 	mov    rcx,QWORD PTR [rip+0x5536]        # 0x14000eff0
   140009aba:	4c 8b ce             	mov    r9,rsi
   140009abd:	48 8b d3             	mov    rdx,rbx
   140009ac0:	48 8b 80 20 08 00 00 	mov    rax,QWORD PTR [rax+0x820]
   140009ac7:	ff 15 73 16 00 00    	call   QWORD PTR [rip+0x1673]        # 0x14000b140
   140009acd:	48 8b 05 14 55 00 00 	mov    rax,QWORD PTR [rip+0x5514]        # 0x14000efe8
   140009ad4:	48 8b d6             	mov    rdx,rsi
   140009ad7:	48 8b 0d 12 55 00 00 	mov    rcx,QWORD PTR [rip+0x5512]        # 0x14000eff0
   140009ade:	48 8b 80 50 01 00 00 	mov    rax,QWORD PTR [rax+0x150]
   140009ae5:	ff 15 55 16 00 00    	call   QWORD PTR [rip+0x1655]        # 0x14000b140
   140009aeb:	48 8b 0d f6 54 00 00 	mov    rcx,QWORD PTR [rip+0x54f6]        # 0x14000efe8
   140009af2:	45 33 c9             	xor    r9d,r9d
   140009af5:	4c 8b c0             	mov    r8,rax
   140009af8:	48 8b d3             	mov    rdx,rbx
   140009afb:	4c 8b 91 e8 07 00 00 	mov    r10,QWORD PTR [rcx+0x7e8]
   140009b02:	48 8b 0d e7 54 00 00 	mov    rcx,QWORD PTR [rip+0x54e7]        # 0x14000eff0
   140009b09:	49 8b c2             	mov    rax,r10
   140009b0c:	ff 15 2e 16 00 00    	call   QWORD PTR [rip+0x162e]        # 0x14000b140
   140009b12:	84 c0                	test   al,al
   140009b14:	75 42                	jne    0x140009b58
   140009b16:	48 8b 05 cb 54 00 00 	mov    rax,QWORD PTR [rip+0x54cb]        # 0x14000efe8
   140009b1d:	48 8b d3             	mov    rdx,rbx
   140009b20:	48 8b 0d c9 54 00 00 	mov    rcx,QWORD PTR [rip+0x54c9]        # 0x14000eff0
   140009b27:	48 8b 80 f0 07 00 00 	mov    rax,QWORD PTR [rax+0x7f0]
   140009b2e:	ff 15 0c 16 00 00    	call   QWORD PTR [rip+0x160c]        # 0x14000b140
   140009b34:	48 8b 0d ad 54 00 00 	mov    rcx,QWORD PTR [rip+0x54ad]        # 0x14000efe8
   140009b3b:	48 8b d3             	mov    rdx,rbx
   140009b3e:	44 8b c0             	mov    r8d,eax
   140009b41:	4c 8b 89 38 08 00 00 	mov    r9,QWORD PTR [rcx+0x838]
   140009b48:	48 8b 0d a1 54 00 00 	mov    rcx,QWORD PTR [rip+0x54a1]        # 0x14000eff0
   140009b4f:	49 8b c1             	mov    rax,r9
   140009b52:	ff 15 e8 15 00 00    	call   QWORD PTR [rip+0x15e8]        # 0x14000b140
   140009b58:	48 8d 8f b9 00 00 00 	lea    rcx,[rdi+0xb9]
   140009b5f:	c6 87 13 18 00 00 01 	mov    BYTE PTR [rdi+0x1813],0x1
   140009b66:	45 33 c0             	xor    r8d,r8d
   140009b69:	33 d2                	xor    edx,edx
   140009b6b:	ff 15 d7 14 00 00    	call   QWORD PTR [rip+0x14d7]        # 0x14000b048
   140009b71:	e9 a3 00 00 00       	jmp    0x140009c19
   140009b76:	48 8b 05 6b 54 00 00 	mov    rax,QWORD PTR [rip+0x546b]        # 0x14000efe8
   140009b7d:	48 8b d6             	mov    rdx,rsi
   140009b80:	48 83 64 24 38 00    	and    QWORD PTR [rsp+0x38],0x0
   140009b86:	48 8b 0d 63 54 00 00 	mov    rcx,QWORD PTR [rip+0x5463]        # 0x14000eff0
   140009b8d:	c7 44 24 30 10 00 00 	mov    DWORD PTR [rsp+0x30],0x10
   140009b94:	00 
   140009b95:	c7 44 24 34 08 00 00 	mov    DWORD PTR [rsp+0x34],0x8
   140009b9c:	00 
   140009b9d:	48 8b 80 50 01 00 00 	mov    rax,QWORD PTR [rax+0x150]
   140009ba4:	ff 15 96 15 00 00    	call   QWORD PTR [rip+0x1596]        # 0x14000b140
   140009baa:	4c 8d 4c 24 30       	lea    r9,[rsp+0x30]
   140009baf:	48 8b 0d 32 54 00 00 	mov    rcx,QWORD PTR [rip+0x5432]        # 0x14000efe8
   140009bb6:	4c 8b c0             	mov    r8,rax
   140009bb9:	48 8b d3             	mov    rdx,rbx
   140009bbc:	4c 8b 91 e8 07 00 00 	mov    r10,QWORD PTR [rcx+0x7e8]
   140009bc3:	48 8b 0d 26 54 00 00 	mov    rcx,QWORD PTR [rip+0x5426]        # 0x14000eff0
   140009bca:	49 8b c2             	mov    rax,r10
   140009bcd:	ff 15 6d 15 00 00    	call   QWORD PTR [rip+0x156d]        # 0x14000b140
   140009bd3:	84 c0                	test   al,al
   140009bd5:	75 42                	jne    0x140009c19
   140009bd7:	48 8b 05 0a 54 00 00 	mov    rax,QWORD PTR [rip+0x540a]        # 0x14000efe8
   140009bde:	48 8b d3             	mov    rdx,rbx
   140009be1:	48 8b 0d 08 54 00 00 	mov    rcx,QWORD PTR [rip+0x5408]        # 0x14000eff0
   140009be8:	48 8b 80 f0 07 00 00 	mov    rax,QWORD PTR [rax+0x7f0]
   140009bef:	ff 15 4b 15 00 00    	call   QWORD PTR [rip+0x154b]        # 0x14000b140
   140009bf5:	48 8b 0d ec 53 00 00 	mov    rcx,QWORD PTR [rip+0x53ec]        # 0x14000efe8
   140009bfc:	48 8b d3             	mov    rdx,rbx
   140009bff:	44 8b c0             	mov    r8d,eax
   140009c02:	4c 8b 89 38 08 00 00 	mov    r9,QWORD PTR [rcx+0x838]
   140009c09:	48 8b 0d e0 53 00 00 	mov    rcx,QWORD PTR [rip+0x53e0]        # 0x14000eff0
   140009c10:	49 8b c1             	mov    rax,r9
   140009c13:	ff 15 27 15 00 00    	call   QWORD PTR [rip+0x1527]        # 0x14000b140
   140009c19:	48 8b 4c 24 40       	mov    rcx,QWORD PTR [rsp+0x40]
   140009c1e:	48 33 cc             	xor    rcx,rsp
   140009c21:	e8 fa d0 ff ff       	call   0x140006d20
   140009c26:	48 8b 9c 24 80 00 00 	mov    rbx,QWORD PTR [rsp+0x80]
   140009c2d:	00 
   140009c2e:	48 83 c4 50          	add    rsp,0x50
   140009c32:	5f                   	pop    rdi
   140009c33:	5e                   	pop    rsi
   140009c34:	5d                   	pop    rbp
   140009c35:	c3                   	ret
   140009c36:	cc                   	int3
   140009c37:	cc                   	int3
   140009c38:	cc                   	int3
   140009c39:	cc                   	int3
   140009c3a:	cc                   	int3
   140009c3b:	cc                   	int3
   140009c3c:	cc                   	int3
   140009c3d:	cc                   	int3
   140009c3e:	cc                   	int3
   140009c3f:	cc                   	int3
   140009c40:	48 89 5c 24 08       	mov    QWORD PTR [rsp+0x8],rbx
   140009c45:	48 89 74 24 10       	mov    QWORD PTR [rsp+0x10],rsi
   140009c4a:	57                   	push   rdi
   140009c4b:	48 83 ec 20          	sub    rsp,0x20
   140009c4f:	48 8b 05 92 53 00 00 	mov    rax,QWORD PTR [rip+0x5392]        # 0x14000efe8
   140009c56:	49 8b f8             	mov    rdi,r8
   140009c59:	4c 8b 05 b8 23 00 00 	mov    r8,QWORD PTR [rip+0x23b8]        # 0x14000c018
   140009c60:	48 8b f1             	mov    rsi,rcx
   140009c63:	48 8b 0d 86 53 00 00 	mov    rcx,QWORD PTR [rip+0x5386]        # 0x14000eff0
   140009c6a:	49 8b d1             	mov    rdx,r9
   140009c6d:	48 8b 80 50 06 00 00 	mov    rax,QWORD PTR [rax+0x650]
   140009c74:	ff 15 c6 14 00 00    	call   QWORD PTR [rip+0x14c6]        # 0x14000b140
   140009c7a:	48 8b 15 67 53 00 00 	mov    rdx,QWORD PTR [rip+0x5367]        # 0x14000efe8
   140009c81:	48 8b d8             	mov    rbx,rax
   140009c84:	48 8b 0d 65 53 00 00 	mov    rcx,QWORD PTR [rip+0x5365]        # 0x14000eff0
   140009c8b:	48 8b 82 e8 08 00 00 	mov    rax,QWORD PTR [rdx+0x8e8]
   140009c92:	48 8b d6             	mov    rdx,rsi
   140009c95:	ff 15 a5 14 00 00    	call   QWORD PTR [rip+0x14a5]        # 0x14000b140
   140009c9b:	48 8b 88 b8 00 00 00 	mov    rcx,QWORD PTR [rax+0xb8]
   140009ca2:	48 85 c9             	test   rcx,rcx
   140009ca5:	74 5e                	je     0x140009d05
   140009ca7:	48 83 79 08 00       	cmp    QWORD PTR [rcx+0x8],0x0
   140009cac:	74 57                	je     0x140009d05
   140009cae:	83 7f 08 00          	cmp    DWORD PTR [rdi+0x8],0x0
   140009cb2:	7c 51                	jl     0x140009d05
   140009cb4:	48 8b 05 2d 53 00 00 	mov    rax,QWORD PTR [rip+0x532d]        # 0x14000efe8
   140009cbb:	48 8b 53 10          	mov    rdx,QWORD PTR [rbx+0x10]
   140009cbf:	48 8b 0d 2a 53 00 00 	mov    rcx,QWORD PTR [rip+0x532a]        # 0x14000eff0
   140009cc6:	48 8b 80 e0 09 00 00 	mov    rax,QWORD PTR [rax+0x9e0]
   140009ccd:	ff 15 6d 14 00 00    	call   QWORD PTR [rip+0x146d]        # 0x14000b140
   140009cd3:	8a 43 28             	mov    al,BYTE PTR [rbx+0x28]
   140009cd6:	84 c0                	test   al,al
   140009cd8:	74 0c                	je     0x140009ce6
   140009cda:	0f b6 c0             	movzx  eax,al
   140009cdd:	48 83 64 c3 10 00    	and    QWORD PTR [rbx+rax*8+0x10],0x0
   140009ce3:	fe 4b 28             	dec    BYTE PTR [rbx+0x28]
   140009ce6:	48 8b 05 fb 52 00 00 	mov    rax,QWORD PTR [rip+0x52fb]        # 0x14000efe8
   140009ced:	48 8b 53 10          	mov    rdx,QWORD PTR [rbx+0x10]
   140009cf1:	48 8b 0d f8 52 00 00 	mov    rcx,QWORD PTR [rip+0x52f8]        # 0x14000eff0
   140009cf8:	48 8b 80 e8 09 00 00 	mov    rax,QWORD PTR [rax+0x9e8]
   140009cff:	ff 15 3b 14 00 00    	call   QWORD PTR [rip+0x143b]        # 0x14000b140
   140009d05:	48 8b 05 dc 52 00 00 	mov    rax,QWORD PTR [rip+0x52dc]        # 0x14000efe8
   140009d0c:	48 8b d6             	mov    rdx,rsi
   140009d0f:	44 8b 47 08          	mov    r8d,DWORD PTR [rdi+0x8]
   140009d13:	48 8b 0d d6 52 00 00 	mov    rcx,QWORD PTR [rip+0x52d6]        # 0x14000eff0
   140009d1a:	48 8b 80 38 08 00 00 	mov    rax,QWORD PTR [rax+0x838]
   140009d21:	48 8b 5c 24 30       	mov    rbx,QWORD PTR [rsp+0x30]
   140009d26:	48 8b 74 24 38       	mov    rsi,QWORD PTR [rsp+0x38]
   140009d2b:	48 83 c4 20          	add    rsp,0x20
   140009d2f:	5f                   	pop    rdi
   140009d30:	48 ff 25 09 14 00 00 	rex.W jmp QWORD PTR [rip+0x1409]        # 0x14000b140
   140009d37:	cc                   	int3
   140009d38:	cc                   	int3
   140009d39:	cc                   	int3
   140009d3a:	cc                   	int3
   140009d3b:	cc                   	int3
   140009d3c:	cc                   	int3
   140009d3d:	cc                   	int3
   140009d3e:	cc                   	int3
   140009d3f:	cc                   	int3
   140009d40:	48 89 5c 24 08       	mov    QWORD PTR [rsp+0x8],rbx
   140009d45:	48 89 6c 24 10       	mov    QWORD PTR [rsp+0x10],rbp
   140009d4a:	48 89 74 24 18       	mov    QWORD PTR [rsp+0x18],rsi
   140009d4f:	57                   	push   rdi
   140009d50:	48 83 ec 20          	sub    rsp,0x20
   140009d54:	48 8b 05 8d 52 00 00 	mov    rax,QWORD PTR [rip+0x528d]        # 0x14000efe8
   140009d5b:	49 8b e8             	mov    rbp,r8
   140009d5e:	4c 8b 05 b3 22 00 00 	mov    r8,QWORD PTR [rip+0x22b3]        # 0x14000c018
   140009d65:	48 8b f1             	mov    rsi,rcx
   140009d68:	48 8b 0d 81 52 00 00 	mov    rcx,QWORD PTR [rip+0x5281]        # 0x14000eff0
   140009d6f:	49 8b d1             	mov    rdx,r9
   140009d72:	48 8b 80 50 06 00 00 	mov    rax,QWORD PTR [rax+0x650]
   140009d79:	ff 15 c1 13 00 00    	call   QWORD PTR [rip+0x13c1]        # 0x14000b140
   140009d7f:	48 8b 15 62 52 00 00 	mov    rdx,QWORD PTR [rip+0x5262]        # 0x14000efe8
   140009d86:	48 8b d8             	mov    rbx,rax
   140009d89:	48 8b 0d 60 52 00 00 	mov    rcx,QWORD PTR [rip+0x5260]        # 0x14000eff0
   140009d90:	48 8b 82 e8 08 00 00 	mov    rax,QWORD PTR [rdx+0x8e8]
   140009d97:	48 8b d6             	mov    rdx,rsi
   140009d9a:	ff 15 a0 13 00 00    	call   QWORD PTR [rip+0x13a0]        # 0x14000b140
   140009da0:	48 8b b8 b8 00 00 00 	mov    rdi,QWORD PTR [rax+0xb8]
   140009da7:	48 85 ff             	test   rdi,rdi
   140009daa:	74 74                	je     0x140009e20
   140009dac:	48 8b 7f 08          	mov    rdi,QWORD PTR [rdi+0x8]
   140009db0:	48 85 ff             	test   rdi,rdi
   140009db3:	74 6b                	je     0x140009e20
   140009db5:	83 7f 1c 00          	cmp    DWORD PTR [rdi+0x1c],0x0
   140009db9:	7c 65                	jl     0x140009e20
   140009dbb:	48 8b 05 26 52 00 00 	mov    rax,QWORD PTR [rip+0x5226]        # 0x14000efe8
   140009dc2:	48 8b 53 10          	mov    rdx,QWORD PTR [rbx+0x10]
   140009dc6:	48 8b 0d 23 52 00 00 	mov    rcx,QWORD PTR [rip+0x5223]        # 0x14000eff0
   140009dcd:	48 8b 80 e0 09 00 00 	mov    rax,QWORD PTR [rax+0x9e0]
   140009dd4:	ff 15 66 13 00 00    	call   QWORD PTR [rip+0x1366]        # 0x14000b140
   140009dda:	8a 43 28             	mov    al,BYTE PTR [rbx+0x28]
   140009ddd:	3c 02                	cmp    al,0x2
   140009ddf:	73 20                	jae    0x140009e01
   140009de1:	0f b6 c8             	movzx  ecx,al
   140009de4:	48 8b 47 70          	mov    rax,QWORD PTR [rdi+0x70]
   140009de8:	48 89 44 cb 18       	mov    QWORD PTR [rbx+rcx*8+0x18],rax
   140009ded:	fe 43 28             	inc    BYTE PTR [rbx+0x28]
   140009df0:	80 7b 28 02          	cmp    BYTE PTR [rbx+0x28],0x2
   140009df4:	75 0b                	jne    0x140009e01
   140009df6:	48 8b 87 80 00 00 00 	mov    rax,QWORD PTR [rdi+0x80]
   140009dfd:	48 89 43 08          	mov    QWORD PTR [rbx+0x8],rax
   140009e01:	48 8b 05 e0 51 00 00 	mov    rax,QWORD PTR [rip+0x51e0]        # 0x14000efe8
   140009e08:	48 8b 53 10          	mov    rdx,QWORD PTR [rbx+0x10]
   140009e0c:	48 8b 0d dd 51 00 00 	mov    rcx,QWORD PTR [rip+0x51dd]        # 0x14000eff0
   140009e13:	48 8b 80 e8 09 00 00 	mov    rax,QWORD PTR [rax+0x9e8]
   140009e1a:	ff 15 20 13 00 00    	call   QWORD PTR [rip+0x1320]        # 0x14000b140
   140009e20:	48 8b 05 c1 51 00 00 	mov    rax,QWORD PTR [rip+0x51c1]        # 0x14000efe8
   140009e27:	48 8b d6             	mov    rdx,rsi
   140009e2a:	44 8b 45 08          	mov    r8d,DWORD PTR [rbp+0x8]
   140009e2e:	48 8b 0d bb 51 00 00 	mov    rcx,QWORD PTR [rip+0x51bb]        # 0x14000eff0
   140009e35:	48 8b 80 38 08 00 00 	mov    rax,QWORD PTR [rax+0x838]
   140009e3c:	48 8b 5c 24 30       	mov    rbx,QWORD PTR [rsp+0x30]
   140009e41:	48 8b 6c 24 38       	mov    rbp,QWORD PTR [rsp+0x38]
   140009e46:	48 8b 74 24 40       	mov    rsi,QWORD PTR [rsp+0x40]
   140009e4b:	48 83 c4 20          	add    rsp,0x20
   140009e4f:	5f                   	pop    rdi
   140009e50:	48 ff 25 e9 12 00 00 	rex.W jmp QWORD PTR [rip+0x12e9]        # 0x14000b140
   140009e57:	cc                   	int3
   140009e58:	cc                   	int3
   140009e59:	cc                   	int3
   140009e5a:	cc                   	int3
   140009e5b:	cc                   	int3
   140009e5c:	cc                   	int3
   140009e5d:	cc                   	int3
   140009e5e:	cc                   	int3
   140009e5f:	cc                   	int3
   140009e60:	48 8b c4             	mov    rax,rsp
   140009e63:	48 89 58 08          	mov    QWORD PTR [rax+0x8],rbx
   140009e67:	48 89 68 10          	mov    QWORD PTR [rax+0x10],rbp
   140009e6b:	48 89 70 18          	mov    QWORD PTR [rax+0x18],rsi
   140009e6f:	48 89 78 20          	mov    QWORD PTR [rax+0x20],rdi
   140009e73:	41 54                	push   r12
   140009e75:	41 56                	push   r14
   140009e77:	41 57                	push   r15
   140009e79:	48 83 ec 20          	sub    rsp,0x20
   140009e7d:	48 8b 05 64 51 00 00 	mov    rax,QWORD PTR [rip+0x5164]        # 0x14000efe8
   140009e84:	49 8b d8             	mov    rbx,r8
   140009e87:	4c 8b 05 8a 21 00 00 	mov    r8,QWORD PTR [rip+0x218a]        # 0x14000c018
   140009e8e:	4c 8b f1             	mov    r14,rcx
   140009e91:	48 8b 0d 58 51 00 00 	mov    rcx,QWORD PTR [rip+0x5158]        # 0x14000eff0
   140009e98:	49 8b d1             	mov    rdx,r9
   140009e9b:	48 8b 80 50 06 00 00 	mov    rax,QWORD PTR [rax+0x650]
   140009ea2:	ff 15 98 12 00 00    	call   QWORD PTR [rip+0x1298]        # 0x14000b140
   140009ea8:	48 8b 15 39 51 00 00 	mov    rdx,QWORD PTR [rip+0x5139]        # 0x14000efe8
   140009eaf:	48 8b f8             	mov    rdi,rax
   140009eb2:	48 8b 0d 37 51 00 00 	mov    rcx,QWORD PTR [rip+0x5137]        # 0x14000eff0
   140009eb9:	48 8b 82 e8 08 00 00 	mov    rax,QWORD PTR [rdx+0x8e8]
   140009ec0:	49 8b d6             	mov    rdx,r14
   140009ec3:	ff 15 77 12 00 00    	call   QWORD PTR [rip+0x1277]        # 0x14000b140
   140009ec9:	8b 6b 08             	mov    ebp,DWORD PTR [rbx+0x8]
   140009ecc:	45 33 ff             	xor    r15d,r15d
   140009ecf:	48 8b 88 b8 00 00 00 	mov    rcx,QWORD PTR [rax+0xb8]
   140009ed6:	48 8b 71 08          	mov    rsi,QWORD PTR [rcx+0x8]
   140009eda:	48 85 ff             	test   rdi,rdi
   140009edd:	0f 84 1c 05 00 00    	je     0x14000a3ff
   140009ee3:	48 85 f6             	test   rsi,rsi
   140009ee6:	0f 84 13 05 00 00    	je     0x14000a3ff
   140009eec:	8b 8e 84 00 00 00    	mov    ecx,DWORD PTR [rsi+0x84]
   140009ef2:	45 8d 67 02          	lea    r12d,[r15+0x2]
   140009ef6:	41 3b cc             	cmp    ecx,r12d
   140009ef9:	0f 82 00 05 00 00    	jb     0x14000a3ff
   140009eff:	48 8b 86 88 00 00 00 	mov    rax,QWORD PTR [rsi+0x88]
   140009f06:	48 8b d8             	mov    rbx,rax
   140009f09:	83 f9 04             	cmp    ecx,0x4
   140009f0c:	75 25                	jne    0x140009f33
   140009f0e:	80 38 a1             	cmp    BYTE PTR [rax],0xa1
   140009f11:	75 20                	jne    0x140009f33
   140009f13:	80 78 01 13          	cmp    BYTE PTR [rax+0x1],0x13
   140009f17:	75 1a                	jne    0x140009f33
   140009f19:	44 38 78 02          	cmp    BYTE PTR [rax+0x2],r15b
   140009f1d:	75 14                	jne    0x140009f33
   140009f1f:	80 78 03 83          	cmp    BYTE PTR [rax+0x3],0x83
   140009f23:	75 0e                	jne    0x140009f33
   140009f25:	44 88 bf 13 18 00 00 	mov    BYTE PTR [rdi+0x1813],r15b
   140009f2c:	48 8b 9e 88 00 00 00 	mov    rbx,QWORD PTR [rsi+0x88]
   140009f33:	8a 43 01             	mov    al,BYTE PTR [rbx+0x1]
   140009f36:	41 3a c4             	cmp    al,r12b
   140009f39:	75 30                	jne    0x140009f6b
   140009f3b:	44 38 bf 2d 18 00 00 	cmp    BYTE PTR [rdi+0x182d],r15b
   140009f42:	75 16                	jne    0x140009f5a
   140009f44:	48 8d 4f 41          	lea    rcx,[rdi+0x41]
   140009f48:	45 33 c0             	xor    r8d,r8d
   140009f4b:	33 d2                	xor    edx,edx
   140009f4d:	ff 15 f5 10 00 00    	call   QWORD PTR [rip+0x10f5]        # 0x14000b048
   140009f53:	c6 87 2d 18 00 00 01 	mov    BYTE PTR [rdi+0x182d],0x1
   140009f5a:	66 44 89 7b 05       	mov    WORD PTR [rbx+0x5],r15w
   140009f5f:	44 01 a6 84 00 00 00 	add    DWORD PTR [rsi+0x84],r12d
   140009f66:	e9 8b 04 00 00       	jmp    0x14000a3f6
   140009f6b:	3c 10                	cmp    al,0x10
   140009f6d:	0f 84 c0 01 00 00    	je     0x14000a133
   140009f73:	3c 12                	cmp    al,0x12
   140009f75:	0f 85 94 02 00 00    	jne    0x14000a20f
   140009f7b:	83 be 84 00 00 00 09 	cmp    DWORD PTR [rsi+0x84],0x9
   140009f82:	0f 86 ab 01 00 00    	jbe    0x14000a133
   140009f88:	c6 03 a1             	mov    BYTE PTR [rbx],0xa1
   140009f8b:	48 8b 86 88 00 00 00 	mov    rax,QWORD PTR [rsi+0x88]
   140009f92:	44 88 60 01          	mov    BYTE PTR [rax+0x1],r12b
   140009f96:	48 8b 05 4b 50 00 00 	mov    rax,QWORD PTR [rip+0x504b]        # 0x14000efe8
   140009f9d:	48 8b 97 e3 17 00 00 	mov    rdx,QWORD PTR [rdi+0x17e3]
   140009fa4:	48 8b 0d 45 50 00 00 	mov    rcx,QWORD PTR [rip+0x5045]        # 0x14000eff0
   140009fab:	48 8b 80 e0 09 00 00 	mov    rax,QWORD PTR [rax+0x9e0]
   140009fb2:	ff 15 88 11 00 00    	call   QWORD PTR [rip+0x1188]        # 0x14000b140
   140009fb8:	8b 96 84 00 00 00    	mov    edx,DWORD PTR [rsi+0x84]
   140009fbe:	4c 8b c7             	mov    r8,rdi
   140009fc1:	48 8b 8e 88 00 00 00 	mov    rcx,QWORD PTR [rsi+0x88]
   140009fc8:	83 ea 09             	sub    edx,0x9
   140009fcb:	48 83 c1 09          	add    rcx,0x9
   140009fcf:	e8 30 ab ff ff       	call   0x140004b04
   140009fd4:	84 c0                	test   al,al
   140009fd6:	0f 84 1e 01 00 00    	je     0x14000a0fa
   140009fdc:	8a 8f dd 17 00 00    	mov    cl,BYTE PTR [rdi+0x17dd]
   140009fe2:	88 4b 02             	mov    BYTE PTR [rbx+0x2],cl
   140009fe5:	44 38 a7 0a 18 00 00 	cmp    BYTE PTR [rdi+0x180a],r12b
   140009fec:	75 1c                	jne    0x14000a00a
   140009fee:	8a c1                	mov    al,cl
   140009ff0:	24 fc                	and    al,0xfc
   140009ff2:	88 43 02             	mov    BYTE PTR [rbx+0x2],al
   140009ff5:	f6 c1 01             	test   cl,0x1
   140009ff8:	74 06                	je     0x14000a000
   140009ffa:	41 0a c4             	or     al,r12b
   140009ffd:	88 43 02             	mov    BYTE PTR [rbx+0x2],al
   14000a000:	41 84 cc             	test   r12b,cl
   14000a003:	74 05                	je     0x14000a00a
   14000a005:	0c 01                	or     al,0x1
   14000a007:	88 43 02             	mov    BYTE PTR [rbx+0x2],al
   14000a00a:	4c 8b 86 88 00 00 00 	mov    r8,QWORD PTR [rsi+0x88]
   14000a011:	41 0f bf 40 03       	movsx  eax,WORD PTR [r8+0x3]
   14000a016:	66 85 c0             	test   ax,ax
   14000a019:	78 05                	js     0x14000a020
   14000a01b:	83 c0 03             	add    eax,0x3
   14000a01e:	eb 03                	jmp    0x14000a023
   14000a020:	83 c0 fd             	add    eax,0xfffffffd
   14000a023:	99                   	cdq
   14000a024:	83 e2 03             	and    edx,0x3
   14000a027:	03 c2                	add    eax,edx
   14000a029:	c1 f8 02             	sar    eax,0x2
   14000a02c:	88 43 03             	mov    BYTE PTR [rbx+0x3],al
   14000a02f:	41 0f bf 40 05       	movsx  eax,WORD PTR [r8+0x5]
   14000a034:	8b c8                	mov    ecx,eax
   14000a036:	66 85 c0             	test   ax,ax
   14000a039:	78 05                	js     0x14000a040
   14000a03b:	83 c0 03             	add    eax,0x3
   14000a03e:	eb 03                	jmp    0x14000a043
   14000a040:	83 c0 fd             	add    eax,0xfffffffd
   14000a043:	99                   	cdq
   14000a044:	83 e2 03             	and    edx,0x3
   14000a047:	03 c2                	add    eax,edx
   14000a049:	c1 f8 02             	sar    eax,0x2
   14000a04c:	88 43 04             	mov    BYTE PTR [rbx+0x4],al
   14000a04f:	8a 8f e0 17 00 00    	mov    cl,BYTE PTR [rdi+0x17e0]
   14000a055:	88 4b 05             	mov    BYTE PTR [rbx+0x5],cl
   14000a058:	8a 87 e1 17 00 00    	mov    al,BYTE PTR [rdi+0x17e1]
   14000a05e:	88 43 06             	mov    BYTE PTR [rbx+0x6],al
   14000a061:	84 c0                	test   al,al
   14000a063:	74 49                	je     0x14000a0ae
   14000a065:	0f bf 87 08 18 00 00 	movsx  eax,WORD PTR [rdi+0x1808]
   14000a06c:	99                   	cdq
   14000a06d:	33 c2                	xor    eax,edx
   14000a06f:	2b c2                	sub    eax,edx
   14000a071:	0f b7 c8             	movzx  ecx,ax
   14000a074:	e8 77 a2 ff ff       	call   0x1400042f0
   14000a079:	44 8a 8f 04 18 00 00 	mov    r9b,BYTE PTR [rdi+0x1804]
   14000a080:	44 02 4b 06          	add    r9b,BYTE PTR [rbx+0x6]
   14000a084:	44 0f bf c0          	movsx  r8d,ax
   14000a088:	41 0f b7 c8          	movzx  ecx,r8w
   14000a08c:	41 0f be c1          	movsx  eax,r9b
   14000a090:	99                   	cdq
   14000a091:	f7 f9                	idiv   ecx
   14000a093:	41 0f be c9          	movsx  ecx,r9b
   14000a097:	0f bf d0             	movsx  edx,ax
   14000a09a:	41 0f af d0          	imul   edx,r8d
   14000a09e:	66 2b ca             	sub    cx,dx
   14000a0a1:	66 89 8f 04 18 00 00 	mov    WORD PTR [rdi+0x1804],cx
   14000a0a8:	8a 4b 05             	mov    cl,BYTE PTR [rbx+0x5]
   14000a0ab:	88 43 06             	mov    BYTE PTR [rbx+0x6],al
   14000a0ae:	84 c9                	test   cl,cl
   14000a0b0:	74 50                	je     0x14000a102
   14000a0b2:	0f bf 87 06 18 00 00 	movsx  eax,WORD PTR [rdi+0x1806]
   14000a0b9:	99                   	cdq
   14000a0ba:	33 c2                	xor    eax,edx
   14000a0bc:	2b c2                	sub    eax,edx
   14000a0be:	0f b7 c8             	movzx  ecx,ax
   14000a0c1:	e8 2a a2 ff ff       	call   0x1400042f0
   14000a0c6:	44 8a 8f 02 18 00 00 	mov    r9b,BYTE PTR [rdi+0x1802]
   14000a0cd:	44 02 4b 05          	add    r9b,BYTE PTR [rbx+0x5]
   14000a0d1:	44 0f bf c0          	movsx  r8d,ax
   14000a0d5:	41 0f b7 c8          	movzx  ecx,r8w
   14000a0d9:	41 0f be c1          	movsx  eax,r9b
   14000a0dd:	99                   	cdq
   14000a0de:	f7 f9                	idiv   ecx
   14000a0e0:	41 0f be c9          	movsx  ecx,r9b
   14000a0e4:	0f bf d0             	movsx  edx,ax
   14000a0e7:	41 0f af d0          	imul   edx,r8d
   14000a0eb:	66 2b ca             	sub    cx,dx
   14000a0ee:	66 89 8f 02 18 00 00 	mov    WORD PTR [rdi+0x1802],cx
   14000a0f5:	88 43 05             	mov    BYTE PTR [rbx+0x5],al
   14000a0f8:	eb 08                	jmp    0x14000a102
   14000a0fa:	44 89 7b 02          	mov    DWORD PTR [rbx+0x2],r15d
   14000a0fe:	44 88 7b 06          	mov    BYTE PTR [rbx+0x6],r15b
   14000a102:	48 8b 05 df 4e 00 00 	mov    rax,QWORD PTR [rip+0x4edf]        # 0x14000efe8
   14000a109:	48 8b 97 e3 17 00 00 	mov    rdx,QWORD PTR [rdi+0x17e3]
   14000a110:	48 8b 0d d9 4e 00 00 	mov    rcx,QWORD PTR [rip+0x4ed9]        # 0x14000eff0
   14000a117:	48 8b 80 e8 09 00 00 	mov    rax,QWORD PTR [rax+0x9e8]
   14000a11e:	ff 15 1c 10 00 00    	call   QWORD PTR [rip+0x101c]        # 0x14000b140
   14000a124:	c7 86 84 00 00 00 07 	mov    DWORD PTR [rsi+0x84],0x7
   14000a12b:	00 00 00 
   14000a12e:	e9 c3 02 00 00       	jmp    0x14000a3f6
   14000a133:	44 38 bf 2d 18 00 00 	cmp    BYTE PTR [rdi+0x182d],r15b
   14000a13a:	75 16                	jne    0x14000a152
   14000a13c:	45 33 c0             	xor    r8d,r8d
   14000a13f:	48 8d 4f 41          	lea    rcx,[rdi+0x41]
   14000a143:	33 d2                	xor    edx,edx
   14000a145:	ff 15 fd 0e 00 00    	call   QWORD PTR [rip+0xefd]        # 0x14000b048
   14000a14b:	c6 87 2d 18 00 00 01 	mov    BYTE PTR [rdi+0x182d],0x1
   14000a152:	44 38 a7 10 18 00 00 	cmp    BYTE PTR [rdi+0x1810],r12b
   14000a159:	75 28                	jne    0x14000a183
   14000a15b:	8a 43 02             	mov    al,BYTE PTR [rbx+0x2]
   14000a15e:	a8 03                	test   al,0x3
   14000a160:	74 21                	je     0x14000a183
   14000a162:	44 38 bf 11 18 00 00 	cmp    BYTE PTR [rdi+0x1811],r15b
   14000a169:	74 04                	je     0x14000a16f
   14000a16b:	0c 03                	or     al,0x3
   14000a16d:	eb 3b                	jmp    0x14000a1aa
   14000a16f:	44 38 a7 0a 18 00 00 	cmp    BYTE PTR [rdi+0x180a],r12b
   14000a176:	75 07                	jne    0x14000a17f
   14000a178:	24 fe                	and    al,0xfe
   14000a17a:	41 0a c4             	or     al,r12b
   14000a17d:	eb 2b                	jmp    0x14000a1aa
   14000a17f:	24 fd                	and    al,0xfd
   14000a181:	eb 25                	jmp    0x14000a1a8
   14000a183:	44 38 a7 0a 18 00 00 	cmp    BYTE PTR [rdi+0x180a],r12b
   14000a18a:	75 21                	jne    0x14000a1ad
   14000a18c:	8a 4b 02             	mov    cl,BYTE PTR [rbx+0x2]
   14000a18f:	8a c1                	mov    al,cl
   14000a191:	24 fc                	and    al,0xfc
   14000a193:	88 43 02             	mov    BYTE PTR [rbx+0x2],al
   14000a196:	8a d0                	mov    dl,al
   14000a198:	f6 c1 01             	test   cl,0x1
   14000a19b:	74 06                	je     0x14000a1a3
   14000a19d:	41 0a c4             	or     al,r12b
   14000a1a0:	88 43 02             	mov    BYTE PTR [rbx+0x2],al
   14000a1a3:	41 84 cc             	test   r12b,cl
   14000a1a6:	74 05                	je     0x14000a1ad
   14000a1a8:	0c 01                	or     al,0x1
   14000a1aa:	88 43 02             	mov    BYTE PTR [rbx+0x2],al
   14000a1ad:	4c 8b 86 88 00 00 00 	mov    r8,QWORD PTR [rsi+0x88]
   14000a1b4:	41 0f bf 40 03       	movsx  eax,WORD PTR [r8+0x3]
   14000a1b9:	66 85 c0             	test   ax,ax
   14000a1bc:	78 05                	js     0x14000a1c3
   14000a1be:	83 c0 03             	add    eax,0x3
   14000a1c1:	eb 03                	jmp    0x14000a1c6
   14000a1c3:	83 c0 fd             	add    eax,0xfffffffd
   14000a1c6:	99                   	cdq
   14000a1c7:	83 e2 03             	and    edx,0x3
   14000a1ca:	03 c2                	add    eax,edx
   14000a1cc:	c1 f8 02             	sar    eax,0x2
   14000a1cf:	88 43 03             	mov    BYTE PTR [rbx+0x3],al
   14000a1d2:	41 0f bf 40 05       	movsx  eax,WORD PTR [r8+0x5]
   14000a1d7:	66 85 c0             	test   ax,ax
   14000a1da:	78 05                	js     0x14000a1e1
   14000a1dc:	83 c0 03             	add    eax,0x3
   14000a1df:	eb 03                	jmp    0x14000a1e4
   14000a1e1:	83 c0 fd             	add    eax,0xfffffffd
   14000a1e4:	99                   	cdq
   14000a1e5:	83 e2 03             	and    edx,0x3
   14000a1e8:	03 c2                	add    eax,edx
   14000a1ea:	c1 f8 02             	sar    eax,0x2
   14000a1ed:	88 43 04             	mov    BYTE PTR [rbx+0x4],al
   14000a1f0:	66 44 89 7b 05       	mov    WORD PTR [rbx+0x5],r15w
   14000a1f5:	48 8b 86 88 00 00 00 	mov    rax,QWORD PTR [rsi+0x88]
   14000a1fc:	c6 00 a1             	mov    BYTE PTR [rax],0xa1
   14000a1ff:	48 8b 86 88 00 00 00 	mov    rax,QWORD PTR [rsi+0x88]
   14000a206:	44 88 60 01          	mov    BYTE PTR [rax+0x1],r12b
   14000a20a:	e9 e7 01 00 00       	jmp    0x14000a3f6
   14000a20f:	3c 27                	cmp    al,0x27
   14000a211:	0f 85 a1 00 00 00    	jne    0x14000a2b8
   14000a217:	c6 03 a1             	mov    BYTE PTR [rbx],0xa1
   14000a21a:	48 8b 86 88 00 00 00 	mov    rax,QWORD PTR [rsi+0x88]
   14000a221:	44 88 60 01          	mov    BYTE PTR [rax+0x1],r12b
   14000a225:	83 be 84 00 00 00 07 	cmp    DWORD PTR [rsi+0x84],0x7
   14000a22c:	0f 86 60 01 00 00    	jbe    0x14000a392
   14000a232:	48 8b 05 af 4d 00 00 	mov    rax,QWORD PTR [rip+0x4daf]        # 0x14000efe8
   14000a239:	48 8b 97 e3 17 00 00 	mov    rdx,QWORD PTR [rdi+0x17e3]
   14000a240:	48 8b 0d a9 4d 00 00 	mov    rcx,QWORD PTR [rip+0x4da9]        # 0x14000eff0
   14000a247:	48 8b 80 e0 09 00 00 	mov    rax,QWORD PTR [rax+0x9e0]
   14000a24e:	ff 15 ec 0e 00 00    	call   QWORD PTR [rip+0xeec]        # 0x14000b140
   14000a254:	8b 96 84 00 00 00    	mov    edx,DWORD PTR [rsi+0x84]
   14000a25a:	4c 8b c7             	mov    r8,rdi
   14000a25d:	48 8b 8e 88 00 00 00 	mov    rcx,QWORD PTR [rsi+0x88]
   14000a264:	ff ca                	dec    edx
   14000a266:	48 ff c1             	inc    rcx
   14000a269:	e8 ae a7 ff ff       	call   0x140004a1c
   14000a26e:	84 c0                	test   al,al
   14000a270:	0f 84 84 fe ff ff    	je     0x14000a0fa
   14000a276:	8a 8f dd 17 00 00    	mov    cl,BYTE PTR [rdi+0x17dd]
   14000a27c:	88 4b 02             	mov    BYTE PTR [rbx+0x2],cl
   14000a27f:	44 38 a7 0a 18 00 00 	cmp    BYTE PTR [rdi+0x180a],r12b
   14000a286:	75 1c                	jne    0x14000a2a4
   14000a288:	8a c1                	mov    al,cl
   14000a28a:	24 fc                	and    al,0xfc
   14000a28c:	88 43 02             	mov    BYTE PTR [rbx+0x2],al
   14000a28f:	f6 c1 01             	test   cl,0x1
   14000a292:	74 06                	je     0x14000a29a
   14000a294:	41 0a c4             	or     al,r12b
   14000a297:	88 43 02             	mov    BYTE PTR [rbx+0x2],al
   14000a29a:	41 84 cc             	test   r12b,cl
   14000a29d:	74 05                	je     0x14000a2a4
   14000a29f:	0c 01                	or     al,0x1
   14000a2a1:	88 43 02             	mov    BYTE PTR [rbx+0x2],al
   14000a2a4:	8a 87 de 17 00 00    	mov    al,BYTE PTR [rdi+0x17de]
   14000a2aa:	88 43 03             	mov    BYTE PTR [rbx+0x3],al
   14000a2ad:	8a 87 df 17 00 00    	mov    al,BYTE PTR [rdi+0x17df]
   14000a2b3:	e9 94 fd ff ff       	jmp    0x14000a04c
   14000a2b8:	3c 29                	cmp    al,0x29
   14000a2ba:	0f 85 d9 00 00 00    	jne    0x14000a399
   14000a2c0:	c6 03 a1             	mov    BYTE PTR [rbx],0xa1
   14000a2c3:	48 8b 86 88 00 00 00 	mov    rax,QWORD PTR [rsi+0x88]
   14000a2ca:	44 88 60 01          	mov    BYTE PTR [rax+0x1],r12b
   14000a2ce:	83 be 84 00 00 00 07 	cmp    DWORD PTR [rsi+0x84],0x7
   14000a2d5:	0f 82 b7 00 00 00    	jb     0x14000a392
   14000a2db:	48 8b 05 06 4d 00 00 	mov    rax,QWORD PTR [rip+0x4d06]        # 0x14000efe8
   14000a2e2:	48 8b 97 e3 17 00 00 	mov    rdx,QWORD PTR [rdi+0x17e3]
   14000a2e9:	48 8b 0d 00 4d 00 00 	mov    rcx,QWORD PTR [rip+0x4d00]        # 0x14000eff0
   14000a2f0:	48 8b 80 e0 09 00 00 	mov    rax,QWORD PTR [rax+0x9e0]
   14000a2f7:	ff 15 43 0e 00 00    	call   QWORD PTR [rip+0xe43]        # 0x14000b140
   14000a2fd:	8b 96 84 00 00 00    	mov    edx,DWORD PTR [rsi+0x84]
   14000a303:	4c 8b c7             	mov    r8,rdi
   14000a306:	48 8b 8e 88 00 00 00 	mov    rcx,QWORD PTR [rsi+0x88]
   14000a30d:	ff ca                	dec    edx
   14000a30f:	48 ff c1             	inc    rcx
   14000a312:	e8 ed a7 ff ff       	call   0x140004b04
   14000a317:	84 c0                	test   al,al
   14000a319:	0f 84 db fd ff ff    	je     0x14000a0fa
   14000a31f:	8a 87 dd 17 00 00    	mov    al,BYTE PTR [rdi+0x17dd]
   14000a325:	88 43 02             	mov    BYTE PTR [rbx+0x2],al
   14000a328:	44 38 a7 5f 05 00 00 	cmp    BYTE PTR [rdi+0x55f],r12b
   14000a32f:	75 2e                	jne    0x14000a35f
   14000a331:	a8 03                	test   al,0x3
   14000a333:	74 2a                	je     0x14000a35f
   14000a335:	44 38 bf 11 18 00 00 	cmp    BYTE PTR [rdi+0x1811],r15b
   14000a33c:	74 07                	je     0x14000a345
   14000a33e:	0c 03                	or     al,0x3
   14000a340:	e9 5c ff ff ff       	jmp    0x14000a2a1
   14000a345:	44 38 a7 0a 18 00 00 	cmp    BYTE PTR [rdi+0x180a],r12b
   14000a34c:	75 0a                	jne    0x14000a358
   14000a34e:	24 fe                	and    al,0xfe
   14000a350:	41 0a c4             	or     al,r12b
   14000a353:	e9 49 ff ff ff       	jmp    0x14000a2a1
   14000a358:	24 fd                	and    al,0xfd
   14000a35a:	e9 40 ff ff ff       	jmp    0x14000a29f
   14000a35f:	44 38 a7 0a 18 00 00 	cmp    BYTE PTR [rdi+0x180a],r12b
   14000a366:	0f 85 38 ff ff ff    	jne    0x14000a2a4
   14000a36c:	8a c8                	mov    cl,al
   14000a36e:	80 e1 fc             	and    cl,0xfc
   14000a371:	88 4b 02             	mov    BYTE PTR [rbx+0x2],cl
   14000a374:	a8 01                	test   al,0x1
   14000a376:	74 06                	je     0x14000a37e
   14000a378:	41 0a cc             	or     cl,r12b
   14000a37b:	88 4b 02             	mov    BYTE PTR [rbx+0x2],cl
   14000a37e:	41 84 c4             	test   r12b,al
   14000a381:	0f 84 1d ff ff ff    	je     0x14000a2a4
   14000a387:	80 c9 01             	or     cl,0x1
   14000a38a:	88 4b 02             	mov    BYTE PTR [rbx+0x2],cl
   14000a38d:	e9 12 ff ff ff       	jmp    0x14000a2a4
   14000a392:	bd 23 00 00 c0       	mov    ebp,0xc0000023
   14000a397:	eb 5d                	jmp    0x14000a3f6
   14000a399:	3c 60                	cmp    al,0x60
   14000a39b:	75 0f                	jne    0x14000a3ac
   14000a39d:	44 38 63 02          	cmp    BYTE PTR [rbx+0x2],r12b
   14000a3a1:	75 09                	jne    0x14000a3ac
   14000a3a3:	c6 87 12 18 00 00 04 	mov    BYTE PTR [rdi+0x1812],0x4
   14000a3aa:	eb 10                	jmp    0x14000a3bc
   14000a3ac:	3c 30                	cmp    al,0x30
   14000a3ae:	75 0c                	jne    0x14000a3bc
   14000a3b0:	0f b6 53 02          	movzx  edx,BYTE PTR [rbx+0x2]
   14000a3b4:	48 8b cf             	mov    rcx,rdi
   14000a3b7:	e8 c4 7e ff ff       	call   0x140002280
   14000a3bc:	48 8b 86 88 00 00 00 	mov    rax,QWORD PTR [rsi+0x88]
   14000a3c3:	33 c9                	xor    ecx,ecx
   14000a3c5:	c6 00 a1             	mov    BYTE PTR [rax],0xa1
   14000a3c8:	48 8b 86 88 00 00 00 	mov    rax,QWORD PTR [rsi+0x88]
   14000a3cf:	44 88 60 01          	mov    BYTE PTR [rax+0x1],r12b
   14000a3d3:	48 8b 86 88 00 00 00 	mov    rax,QWORD PTR [rsi+0x88]
   14000a3da:	42 89 0c 20          	mov    DWORD PTR [rax+r12*1],ecx
   14000a3de:	42 88 4c 20 04       	mov    BYTE PTR [rax+r12*1+0x4],cl
   14000a3e3:	c7 86 84 00 00 00 07 	mov    DWORD PTR [rsi+0x84],0x7
   14000a3ea:	00 00 00 
   14000a3ed:	8a 87 e2 17 00 00    	mov    al,BYTE PTR [rdi+0x17e2]
   14000a3f3:	88 43 02             	mov    BYTE PTR [rbx+0x2],al
   14000a3f6:	8a 43 02             	mov    al,BYTE PTR [rbx+0x2]
   14000a3f9:	88 87 e2 17 00 00    	mov    BYTE PTR [rdi+0x17e2],al
   14000a3ff:	48 8b 05 e2 4b 00 00 	mov    rax,QWORD PTR [rip+0x4be2]        # 0x14000efe8
   14000a406:	44 8b c5             	mov    r8d,ebp
   14000a409:	48 8b 0d e0 4b 00 00 	mov    rcx,QWORD PTR [rip+0x4be0]        # 0x14000eff0
   14000a410:	49 8b d6             	mov    rdx,r14
   14000a413:	48 8b 80 38 08 00 00 	mov    rax,QWORD PTR [rax+0x838]
   14000a41a:	48 8b 5c 24 40       	mov    rbx,QWORD PTR [rsp+0x40]
   14000a41f:	48 8b 6c 24 48       	mov    rbp,QWORD PTR [rsp+0x48]
   14000a424:	48 8b 74 24 50       	mov    rsi,QWORD PTR [rsp+0x50]
   14000a429:	48 8b 7c 24 58       	mov    rdi,QWORD PTR [rsp+0x58]
   14000a42e:	48 83 c4 20          	add    rsp,0x20
   14000a432:	41 5f                	pop    r15
   14000a434:	41 5e                	pop    r14
   14000a436:	41 5c                	pop    r12
   14000a438:	48 ff 25 01 0d 00 00 	rex.W jmp QWORD PTR [rip+0xd01]        # 0x14000b140
   14000a43f:	cc                   	int3
   14000a440:	48 8b c4             	mov    rax,rsp
   14000a443:	48 89 58 10          	mov    QWORD PTR [rax+0x10],rbx
   14000a447:	4c 89 40 18          	mov    QWORD PTR [rax+0x18],r8
   14000a44b:	48 89 48 08          	mov    QWORD PTR [rax+0x8],rcx
   14000a44f:	55                   	push   rbp
   14000a450:	56                   	push   rsi
   14000a451:	57                   	push   rdi
   14000a452:	41 54                	push   r12
   14000a454:	41 55                	push   r13
   14000a456:	41 56                	push   r14
   14000a458:	41 57                	push   r15
   14000a45a:	48 8d 68 a1          	lea    rbp,[rax-0x5f]
   14000a45e:	48 81 ec 90 00 00 00 	sub    rsp,0x90
   14000a465:	48 8b 05 7c 4b 00 00 	mov    rax,QWORD PTR [rip+0x4b7c]        # 0x14000efe8
   14000a46c:	45 33 e4             	xor    r12d,r12d
   14000a46f:	49 8b f8             	mov    rdi,r8
   14000a472:	4c 89 65 f7          	mov    QWORD PTR [rbp-0x9],r12
   14000a476:	4c 8b 05 9b 1b 00 00 	mov    r8,QWORD PTR [rip+0x1b9b]        # 0x14000c018
   14000a47d:	48 8b d9             	mov    rbx,rcx
   14000a480:	48 8b 0d 69 4b 00 00 	mov    rcx,QWORD PTR [rip+0x4b69]        # 0x14000eff0
   14000a487:	49 8b d1             	mov    rdx,r9
   14000a48a:	48 8b 80 50 06 00 00 	mov    rax,QWORD PTR [rax+0x650]
   14000a491:	45 8a ec             	mov    r13b,r12b
   14000a494:	44 89 65 db          	mov    DWORD PTR [rbp-0x25],r12d
   14000a498:	44 89 65 d7          	mov    DWORD PTR [rbp-0x29],r12d
   14000a49c:	44 89 65 e3          	mov    DWORD PTR [rbp-0x1d],r12d
   14000a4a0:	44 89 65 df          	mov    DWORD PTR [rbp-0x21],r12d
   14000a4a4:	44 89 65 eb          	mov    DWORD PTR [rbp-0x15],r12d
   14000a4a8:	44 89 65 e7          	mov    DWORD PTR [rbp-0x19],r12d
   14000a4ac:	44 89 65 0f          	mov    DWORD PTR [rbp+0xf],r12d
   14000a4b0:	44 89 65 ef          	mov    DWORD PTR [rbp-0x11],r12d
   14000a4b4:	44 89 65 cf          	mov    DWORD PTR [rbp-0x31],r12d
   14000a4b8:	44 89 65 cb          	mov    DWORD PTR [rbp-0x35],r12d
   14000a4bc:	ff 15 7e 0c 00 00    	call   QWORD PTR [rip+0xc7e]        # 0x14000b140
   14000a4c2:	48 8b 0d 1f 4b 00 00 	mov    rcx,QWORD PTR [rip+0x4b1f]        # 0x14000efe8
   14000a4c9:	48 8b d3             	mov    rdx,rbx
   14000a4cc:	8b 77 08             	mov    esi,DWORD PTR [rdi+0x8]
   14000a4cf:	4c 8b f0             	mov    r14,rax
   14000a4d2:	48 8b 81 e8 08 00 00 	mov    rax,QWORD PTR [rcx+0x8e8]
   14000a4d9:	48 8b 0d 10 4b 00 00 	mov    rcx,QWORD PTR [rip+0x4b10]        # 0x14000eff0
   14000a4e0:	ff 15 5a 0c 00 00    	call   QWORD PTR [rip+0xc5a]        # 0x14000b140
   14000a4e6:	48 8b d8             	mov    rbx,rax
   14000a4e9:	48 8b 88 b8 00 00 00 	mov    rcx,QWORD PTR [rax+0xb8]
   14000a4f0:	48 85 c9             	test   rcx,rcx
   14000a4f3:	0f 84 5d 08 00 00    	je     0x14000ad56
   14000a4f9:	8b 79 18             	mov    edi,DWORD PTR [rcx+0x18]
   14000a4fc:	48 8b 0d e5 4a 00 00 	mov    rcx,QWORD PTR [rip+0x4ae5]        # 0x14000efe8
   14000a503:	49 8b 16             	mov    rdx,QWORD PTR [r14]
   14000a506:	48 8b 81 00 01 00 00 	mov    rax,QWORD PTR [rcx+0x100]
   14000a50d:	48 8b 0d dc 4a 00 00 	mov    rcx,QWORD PTR [rip+0x4adc]        # 0x14000eff0
   14000a514:	ff 15 26 0c 00 00    	call   QWORD PTR [rip+0xc26]        # 0x14000b140
   14000a51a:	48 8b 5b 18          	mov    rbx,QWORD PTR [rbx+0x18]
   14000a51e:	4c 8b f8             	mov    r15,rax
   14000a521:	48 89 5d 17          	mov    QWORD PTR [rbp+0x17],rbx
   14000a525:	44 39 63 04          	cmp    DWORD PTR [rbx+0x4],r12d
   14000a529:	75 08                	jne    0x14000a533
   14000a52b:	83 03 74             	add    DWORD PTR [rbx],0x74
   14000a52e:	e9 23 08 00 00       	jmp    0x14000ad56
   14000a533:	48 8d 4b 08          	lea    rcx,[rbx+0x8]
   14000a537:	4c 8d 45 d3          	lea    r8,[rbp-0x2d]
   14000a53b:	48 8d 55 c7          	lea    rdx,[rbp-0x39]
   14000a53f:	e8 fc 7c ff ff       	call   0x140002240
   14000a544:	84 c0                	test   al,al
   14000a546:	0f 84 0a 08 00 00    	je     0x14000ad56
   14000a54c:	44 0f b6 65 c7       	movzx  r12d,BYTE PTR [rbp-0x39]
   14000a551:	4c 8d 45 0b          	lea    r8,[rbp+0xb]
   14000a555:	49 83 c4 09          	add    r12,0x9
   14000a559:	48 8d 55 c8          	lea    rdx,[rbp-0x38]
   14000a55d:	4c 03 e3             	add    r12,rbx
   14000a560:	49 8b cc             	mov    rcx,r12
   14000a563:	e8 d8 7c ff ff       	call   0x140002240
   14000a568:	84 c0                	test   al,al
   14000a56a:	0f 84 e6 07 00 00    	je     0x14000ad56
   14000a570:	81 ff 10 02 41 00    	cmp    edi,0x410210
   14000a576:	0f 85 da 07 00 00    	jne    0x14000ad56
   14000a57c:	41 8a 4f 4c          	mov    cl,BYTE PTR [r15+0x4c]
   14000a580:	33 d2                	xor    edx,edx
   14000a582:	fe c1                	inc    cl
   14000a584:	ff 15 56 0b 00 00    	call   QWORD PTR [rip+0xb56]        # 0x14000b0e0
   14000a58a:	48 8b d8             	mov    rbx,rax
   14000a58d:	48 85 c0             	test   rax,rax
   14000a590:	75 0a                	jne    0x14000a59c
   14000a592:	be 9a 00 00 c0       	mov    esi,0xc000009a
   14000a597:	e9 ba 07 00 00       	jmp    0x14000ad56
   14000a59c:	41 be 42 54 4d 54    	mov    r14d,0x544d5442
   14000a5a2:	be a0 00 00 00       	mov    esi,0xa0
   14000a5a7:	45 8b c6             	mov    r8d,r14d
   14000a5aa:	8b d6                	mov    edx,esi
   14000a5ac:	b9 00 02 00 00       	mov    ecx,0x200
   14000a5b1:	ff 15 a9 0a 00 00    	call   QWORD PTR [rip+0xaa9]        # 0x14000b060
   14000a5b7:	48 8b f8             	mov    rdi,rax
   14000a5ba:	48 85 c0             	test   rax,rax
   14000a5bd:	75 0b                	jne    0x14000a5ca
   14000a5bf:	48 8b cb             	mov    rcx,rbx
   14000a5c2:	ff 15 58 0b 00 00    	call   QWORD PTR [rip+0xb58]        # 0x14000b120
   14000a5c8:	eb c8                	jmp    0x14000a592
   14000a5ca:	4c 8b c6             	mov    r8,rsi
   14000a5cd:	33 d2                	xor    edx,edx
   14000a5cf:	48 8b cf             	mov    rcx,rdi
   14000a5d2:	e8 69 d7 ff ff       	call   0x140007d40
   14000a5d7:	48 8b 83 b8 00 00 00 	mov    rax,QWORD PTR [rbx+0xb8]
   14000a5de:	48 8d 0d 03 0c 00 00 	lea    rcx,[rip+0xc03]        # 0x14000b1e8
   14000a5e5:	45 8b c6             	mov    r8d,r14d
   14000a5e8:	ba 18 00 00 00       	mov    edx,0x18
   14000a5ed:	48 83 60 d8 00       	and    QWORD PTR [rax-0x28],0x0
   14000a5f2:	48 89 48 c0          	mov    QWORD PTR [rax-0x40],rcx
   14000a5f6:	b9 00 02 00 00       	mov    ecx,0x200
   14000a5fb:	66 c7 40 b8 1b 08    	mov    WORD PTR [rax-0x48],0x81b
   14000a601:	c7 40 c8 a0 00 00 01 	mov    DWORD PTR [rax-0x38],0x10000a0
   14000a608:	48 89 78 d0          	mov    QWORD PTR [rax-0x30],rdi
   14000a60c:	ff 15 4e 0a 00 00    	call   QWORD PTR [rip+0xa4e]        # 0x14000b060
   14000a612:	4c 8b f0             	mov    r14,rax
   14000a615:	48 85 c0             	test   rax,rax
   14000a618:	75 19                	jne    0x14000a633
   14000a61a:	48 8b cb             	mov    rcx,rbx
   14000a61d:	ff 15 fd 0a 00 00    	call   QWORD PTR [rip+0xafd]        # 0x14000b120
   14000a623:	33 d2                	xor    edx,edx
   14000a625:	48 8b cf             	mov    rcx,rdi
   14000a628:	ff 15 3a 0a 00 00    	call   QWORD PTR [rip+0xa3a]        # 0x14000b068
   14000a62e:	e9 5f ff ff ff       	jmp    0x14000a592
   14000a633:	45 33 c0             	xor    r8d,r8d
   14000a636:	33 d2                	xor    edx,edx
   14000a638:	49 8b ce             	mov    rcx,r14
   14000a63b:	ff 15 f7 09 00 00    	call   QWORD PTR [rip+0x9f7]        # 0x14000b038
   14000a641:	48 8b 83 b8 00 00 00 	mov    rax,QWORD PTR [rbx+0xb8]
   14000a648:	48 8d 0d 51 07 00 00 	lea    rcx,[rip+0x751]        # 0x14000ada0
   14000a64f:	48 8b d3             	mov    rdx,rbx
   14000a652:	48 89 48 f0          	mov    QWORD PTR [rax-0x10],rcx
   14000a656:	49 8b cf             	mov    rcx,r15
   14000a659:	4c 89 70 f8          	mov    QWORD PTR [rax-0x8],r14
   14000a65d:	c6 40 bb e0          	mov    BYTE PTR [rax-0x45],0xe0
   14000a661:	c7 43 30 bb 00 00 c0 	mov    DWORD PTR [rbx+0x30],0xc00000bb
   14000a668:	ff 15 1a 0a 00 00    	call   QWORD PTR [rip+0xa1a]        # 0x14000b088
   14000a66e:	8b f0                	mov    esi,eax
   14000a670:	3d 03 01 00 00       	cmp    eax,0x103
   14000a675:	75 1a                	jne    0x14000a691
   14000a677:	48 83 64 24 20 00    	and    QWORD PTR [rsp+0x20],0x0
   14000a67d:	45 33 c9             	xor    r9d,r9d
   14000a680:	45 33 c0             	xor    r8d,r8d
   14000a683:	33 d2                	xor    edx,edx
   14000a685:	49 8b ce             	mov    rcx,r14
   14000a688:	ff 15 ca 09 00 00    	call   QWORD PTR [rip+0x9ca]        # 0x14000b058
   14000a68e:	8b 73 30             	mov    esi,DWORD PTR [rbx+0x30]
   14000a691:	85 f6                	test   esi,esi
   14000a693:	79 24                	jns    0x14000a6b9
   14000a695:	48 8b cb             	mov    rcx,rbx
   14000a698:	ff 15 82 0a 00 00    	call   QWORD PTR [rip+0xa82]        # 0x14000b120
   14000a69e:	33 d2                	xor    edx,edx
   14000a6a0:	48 8b cf             	mov    rcx,rdi
   14000a6a3:	ff 15 bf 09 00 00    	call   QWORD PTR [rip+0x9bf]        # 0x14000b068
   14000a6a9:	33 d2                	xor    edx,edx
   14000a6ab:	49 8b ce             	mov    rcx,r14
   14000a6ae:	ff 15 b4 09 00 00    	call   QWORD PTR [rip+0x9b4]        # 0x14000b068
   14000a6b4:	e9 9d 06 00 00       	jmp    0x14000ad56
   14000a6b9:	48 8b 47 78          	mov    rax,QWORD PTR [rdi+0x78]
   14000a6bd:	48 8d 4d ff          	lea    rcx,[rbp-0x1]
   14000a6c1:	48 89 4c 24 20       	mov    QWORD PTR [rsp+0x20],rcx
   14000a6c6:	4c 8d 4d f7          	lea    r9,[rbp-0x9]
   14000a6ca:	48 8b 4d 17          	mov    rcx,QWORD PTR [rbp+0x17]
   14000a6ce:	45 33 c0             	xor    r8d,r8d
   14000a6d1:	8b 51 04             	mov    edx,DWORD PTR [rcx+0x4]
   14000a6d4:	49 8b cc             	mov    rcx,r12
   14000a6d7:	ff 15 63 0a 00 00    	call   QWORD PTR [rip+0xa63]        # 0x14000b140
   14000a6dd:	0f b6 4d c8          	movzx  ecx,BYTE PTR [rbp-0x38]
   14000a6e1:	ba 08 22 00 00       	mov    edx,0x2208
   14000a6e6:	44 0f b6 7d c7       	movzx  r15d,BYTE PTR [rbp-0x39]
   14000a6eb:	83 c1 02             	add    ecx,0x2
   14000a6ee:	44 03 f9             	add    r15d,ecx
   14000a6f1:	48 8b 4d f7          	mov    rcx,QWORD PTR [rbp-0x9]
   14000a6f5:	48 85 c9             	test   rcx,rcx
   14000a6f8:	74 59                	je     0x14000a753
   14000a6fa:	80 39 09             	cmp    BYTE PTR [rcx],0x9
   14000a6fd:	75 11                	jne    0x14000a710
   14000a6ff:	b8 02 06 00 00       	mov    eax,0x602
   14000a704:	66 39 41 01          	cmp    WORD PTR [rcx+0x1],ax
   14000a708:	75 06                	jne    0x14000a710
   14000a70a:	66 39 51 07          	cmp    WORD PTR [rcx+0x7],dx
   14000a70e:	74 40                	je     0x14000a750
   14000a710:	48 8b 45 17          	mov    rax,QWORD PTR [rbp+0x17]
   14000a714:	44 03 7d ff          	add    r15d,DWORD PTR [rbp-0x1]
   14000a718:	8b 50 04             	mov    edx,DWORD PTR [rax+0x4]
   14000a71b:	8d 42 fe             	lea    eax,[rdx-0x2]
   14000a71e:	44 3b f8             	cmp    r15d,eax
   14000a721:	73 30                	jae    0x14000a753
   14000a723:	48 8b 47 78          	mov    rax,QWORD PTR [rdi+0x78]
   14000a727:	4c 8d 45 ff          	lea    r8,[rbp-0x1]
   14000a72b:	4c 89 44 24 20       	mov    QWORD PTR [rsp+0x20],r8
   14000a730:	4c 8d 4d f7          	lea    r9,[rbp-0x9]
   14000a734:	4c 8b c1             	mov    r8,rcx
   14000a737:	49 8b cc             	mov    rcx,r12
   14000a73a:	ff 15 00 0a 00 00    	call   QWORD PTR [rip+0xa00]        # 0x14000b140
   14000a740:	48 8b 4d f7          	mov    rcx,QWORD PTR [rbp-0x9]
   14000a744:	48 85 c9             	test   rcx,rcx
   14000a747:	74 0a                	je     0x14000a753
   14000a749:	ba 08 22 00 00       	mov    edx,0x2208
   14000a74e:	eb aa                	jmp    0x14000a6fa
   14000a750:	41 b5 01             	mov    r13b,0x1
   14000a753:	48 8b cb             	mov    rcx,rbx
   14000a756:	ff 15 c4 09 00 00    	call   QWORD PTR [rip+0x9c4]        # 0x14000b120
   14000a75c:	33 d2                	xor    edx,edx
   14000a75e:	48 8b cf             	mov    rcx,rdi
   14000a761:	ff 15 01 09 00 00    	call   QWORD PTR [rip+0x901]        # 0x14000b068
   14000a767:	33 d2                	xor    edx,edx
   14000a769:	49 8b ce             	mov    rcx,r14
   14000a76c:	ff 15 f6 08 00 00    	call   QWORD PTR [rip+0x8f6]        # 0x14000b068
   14000a772:	45 84 ed             	test   r13b,r13b
   14000a775:	0f 84 db 05 00 00    	je     0x14000ad56
   14000a77b:	4c 8b 75 f7          	mov    r14,QWORD PTR [rbp-0x9]
   14000a77f:	4c 8d 45 07          	lea    r8,[rbp+0x7]
   14000a783:	48 8d 55 7f          	lea    rdx,[rbp+0x7f]
   14000a787:	49 8d 4e 03          	lea    rcx,[r14+0x3]
   14000a78b:	e8 b0 7a ff ff       	call   0x140002240
   14000a790:	84 c0                	test   al,al
   14000a792:	0f 84 be 05 00 00    	je     0x14000ad56
   14000a798:	0f b6 7d 7f          	movzx  edi,BYTE PTR [rbp+0x7f]
   14000a79c:	49 8d 4e 04          	lea    rcx,[r14+0x4]
   14000a7a0:	48 03 cf             	add    rcx,rdi
   14000a7a3:	4c 8d 45 03          	lea    r8,[rbp+0x3]
   14000a7a7:	48 8d 55 ca          	lea    rdx,[rbp-0x36]
   14000a7ab:	e8 90 7a ff ff       	call   0x140002240
   14000a7b0:	84 c0                	test   al,al
   14000a7b2:	0f 84 9e 05 00 00    	je     0x14000ad56
   14000a7b8:	0f b6 5d ca          	movzx  ebx,BYTE PTR [rbp-0x36]
   14000a7bc:	b9 08 22 00 00       	mov    ecx,0x2208
   14000a7c1:	8b c3                	mov    eax,ebx
   14000a7c3:	48 89 5d 1f          	mov    QWORD PTR [rbp+0x1f],rbx
   14000a7c7:	48 03 c7             	add    rax,rdi
   14000a7ca:	66 42 39 4c 30 05    	cmp    WORD PTR [rax+r14*1+0x5],cx
   14000a7d0:	0f 85 80 05 00 00    	jne    0x14000ad56
   14000a7d6:	49 8d 4e 07          	lea    rcx,[r14+0x7]
   14000a7da:	48 03 c8             	add    rcx,rax
   14000a7dd:	4c 8d 45 13          	lea    r8,[rbp+0x13]
   14000a7e1:	48 8d 55 c9          	lea    rdx,[rbp-0x37]
   14000a7e5:	e8 56 7a ff ff       	call   0x140002240
   14000a7ea:	84 c0                	test   al,al
   14000a7ec:	0f 84 64 05 00 00    	je     0x14000ad56
   14000a7f2:	8b 4d 13             	mov    ecx,DWORD PTR [rbp+0x13]
   14000a7f5:	b8 04 00 00 00       	mov    eax,0x4
   14000a7fa:	44 8b 65 d3          	mov    r12d,DWORD PTR [rbp-0x2d]
   14000a7fe:	44 8a 5d c9          	mov    r11b,BYTE PTR [rbp-0x37]
   14000a802:	89 45 d3             	mov    DWORD PTR [rbp-0x2d],eax
   14000a805:	83 f9 74             	cmp    ecx,0x74
   14000a808:	0f 83 fa 00 00 00    	jae    0x14000a908
   14000a80e:	8b 7d 03             	mov    edi,DWORD PTR [rbp+0x3]
   14000a811:	44 8d 48 70          	lea    r9d,[rax+0x70]
   14000a815:	44 2b c9             	sub    r9d,ecx
   14000a818:	44 8d 68 fe          	lea    r13d,[rax-0x2]
   14000a81c:	44 89 4d 0f          	mov    DWORD PTR [rbp+0xf],r9d
   14000a820:	45 8b c1             	mov    r8d,r9d
   14000a823:	44 89 4d eb          	mov    DWORD PTR [rbp-0x15],r9d
   14000a827:	ba ff 00 00 00       	mov    edx,0xff
   14000a82c:	b9 ff ff 00 00       	mov    ecx,0xffff
   14000a831:	80 fb 01             	cmp    bl,0x1
   14000a834:	75 0e                	jne    0x14000a844
   14000a836:	42 8d 04 0f          	lea    eax,[rdi+r9*1]
   14000a83a:	3b c2                	cmp    eax,edx
   14000a83c:	76 1b                	jbe    0x14000a859
   14000a83e:	45 8d 41 01          	lea    r8d,[r9+0x1]
   14000a842:	eb 11                	jmp    0x14000a855
   14000a844:	41 3a dd             	cmp    bl,r13b
   14000a847:	75 10                	jne    0x14000a859
   14000a849:	42 8d 04 0f          	lea    eax,[rdi+r9*1]
   14000a84d:	3b c1                	cmp    eax,ecx
   14000a84f:	76 08                	jbe    0x14000a859
   14000a851:	45 8d 41 02          	lea    r8d,[r9+0x2]
   14000a855:	44 89 45 eb          	mov    DWORD PTR [rbp-0x15],r8d
   14000a859:	80 7d 7f 01          	cmp    BYTE PTR [rbp+0x7f],0x1
   14000a85d:	45 8b c8             	mov    r9d,r8d
   14000a860:	44 8b 7d 07          	mov    r15d,DWORD PTR [rbp+0x7]
   14000a864:	44 89 45 e3          	mov    DWORD PTR [rbp-0x1d],r8d
   14000a868:	75 0e                	jne    0x14000a878
   14000a86a:	43 8d 04 07          	lea    eax,[r15+r8*1]
   14000a86e:	3b c2                	cmp    eax,edx
   14000a870:	76 1c                	jbe    0x14000a88e
   14000a872:	45 8d 48 01          	lea    r9d,[r8+0x1]
   14000a876:	eb 12                	jmp    0x14000a88a
   14000a878:	44 38 6d 7f          	cmp    BYTE PTR [rbp+0x7f],r13b
   14000a87c:	75 10                	jne    0x14000a88e
   14000a87e:	43 8d 04 07          	lea    eax,[r15+r8*1]
   14000a882:	3b c1                	cmp    eax,ecx
   14000a884:	76 08                	jbe    0x14000a88e
   14000a886:	45 8d 48 02          	lea    r9d,[r8+0x2]
   14000a88a:	44 89 4d e3          	mov    DWORD PTR [rbp-0x1d],r9d
   14000a88e:	80 7d c8 01          	cmp    BYTE PTR [rbp-0x38],0x1
   14000a892:	45 8b c1             	mov    r8d,r9d
   14000a895:	8b 5d 0b             	mov    ebx,DWORD PTR [rbp+0xb]
   14000a898:	44 89 4d db          	mov    DWORD PTR [rbp-0x25],r9d
   14000a89c:	75 0e                	jne    0x14000a8ac
   14000a89e:	42 8d 04 0b          	lea    eax,[rbx+r9*1]
   14000a8a2:	3b c2                	cmp    eax,edx
   14000a8a4:	76 1c                	jbe    0x14000a8c2
   14000a8a6:	45 8d 41 01          	lea    r8d,[r9+0x1]
   14000a8aa:	eb 12                	jmp    0x14000a8be
   14000a8ac:	44 38 6d c8          	cmp    BYTE PTR [rbp-0x38],r13b
   14000a8b0:	75 10                	jne    0x14000a8c2
   14000a8b2:	42 8d 04 0b          	lea    eax,[rbx+r9*1]
   14000a8b6:	3b c1                	cmp    eax,ecx
   14000a8b8:	76 08                	jbe    0x14000a8c2
   14000a8ba:	45 8d 41 02          	lea    r8d,[r9+0x2]
   14000a8be:	44 89 45 db          	mov    DWORD PTR [rbp-0x25],r8d
   14000a8c2:	80 7d c7 01          	cmp    BYTE PTR [rbp-0x39],0x1
   14000a8c6:	45 8b d0             	mov    r10d,r8d
   14000a8c9:	44 8b 4d cb          	mov    r9d,DWORD PTR [rbp-0x35]
   14000a8cd:	44 89 45 cf          	mov    DWORD PTR [rbp-0x31],r8d
   14000a8d1:	75 12                	jne    0x14000a8e5
   14000a8d3:	43 8d 04 04          	lea    eax,[r12+r8*1]
   14000a8d7:	3b c2                	cmp    eax,edx
   14000a8d9:	0f 86 5a 01 00 00    	jbe    0x14000aa39
   14000a8df:	45 8d 50 01          	lea    r10d,[r8+0x1]
   14000a8e3:	eb 1a                	jmp    0x14000a8ff
   14000a8e5:	44 38 6d c7          	cmp    BYTE PTR [rbp-0x39],r13b
   14000a8e9:	0f 85 4a 01 00 00    	jne    0x14000aa39
   14000a8ef:	43 8d 04 04          	lea    eax,[r12+r8*1]
   14000a8f3:	3b c1                	cmp    eax,ecx
   14000a8f5:	0f 86 3e 01 00 00    	jbe    0x14000aa39
   14000a8fb:	45 8d 50 02          	lea    r10d,[r8+0x2]
   14000a8ff:	44 89 55 cf          	mov    DWORD PTR [rbp-0x31],r10d
   14000a903:	e9 31 01 00 00       	jmp    0x14000aa39
   14000a908:	0f 86 d7 03 00 00    	jbe    0x14000ace5
   14000a90e:	41 bd 02 00 00 00    	mov    r13d,0x2
   14000a914:	44 8d 41 8c          	lea    r8d,[rcx-0x74]
   14000a918:	44 89 45 ef          	mov    DWORD PTR [rbp-0x11],r8d
   14000a91c:	45 3a dd             	cmp    r11b,r13b
   14000a91f:	75 07                	jne    0x14000a928
   14000a921:	41 ff c0             	inc    r8d
   14000a924:	44 89 45 ef          	mov    DWORD PTR [rbp-0x11],r8d
   14000a928:	44 3a d8             	cmp    r11b,al
   14000a92b:	75 08                	jne    0x14000a935
   14000a92d:	41 83 c0 03          	add    r8d,0x3
   14000a931:	44 89 45 ef          	mov    DWORD PTR [rbp-0x11],r8d
   14000a935:	8b 7d 03             	mov    edi,DWORD PTR [rbp+0x3]
   14000a938:	45 8b d0             	mov    r10d,r8d
   14000a93b:	44 89 45 e7          	mov    DWORD PTR [rbp-0x19],r8d
   14000a93f:	ba ff 00 00 00       	mov    edx,0xff
   14000a944:	b9 ff ff 00 00       	mov    ecx,0xffff
   14000a949:	41 3a dd             	cmp    bl,r13b
   14000a94c:	75 14                	jne    0x14000a962
   14000a94e:	8b c7                	mov    eax,edi
   14000a950:	41 2b c0             	sub    eax,r8d
   14000a953:	3b c2                	cmp    eax,edx
   14000a955:	b8 04 00 00 00       	mov    eax,0x4
   14000a95a:	77 20                	ja     0x14000a97c
   14000a95c:	45 8d 50 01          	lea    r10d,[r8+0x1]
   14000a960:	eb 16                	jmp    0x14000a978
   14000a962:	3a d8                	cmp    bl,al
   14000a964:	75 16                	jne    0x14000a97c
   14000a966:	8b c7                	mov    eax,edi
   14000a968:	41 2b c0             	sub    eax,r8d
   14000a96b:	3b c1                	cmp    eax,ecx
   14000a96d:	b8 04 00 00 00       	mov    eax,0x4
   14000a972:	77 08                	ja     0x14000a97c
   14000a974:	45 8d 50 02          	lea    r10d,[r8+0x2]
   14000a978:	44 89 55 e7          	mov    DWORD PTR [rbp-0x19],r10d
   14000a97c:	45 8b ca             	mov    r9d,r10d
   14000a97f:	44 8b 7d 07          	mov    r15d,DWORD PTR [rbp+0x7]
   14000a983:	44 89 55 df          	mov    DWORD PTR [rbp-0x21],r10d
   14000a987:	44 38 6d 7f          	cmp    BYTE PTR [rbp+0x7f],r13b
   14000a98b:	75 15                	jne    0x14000a9a2
   14000a98d:	41 8b c7             	mov    eax,r15d
   14000a990:	41 2b c2             	sub    eax,r10d
   14000a993:	3b c2                	cmp    eax,edx
   14000a995:	b8 04 00 00 00       	mov    eax,0x4
   14000a99a:	77 22                	ja     0x14000a9be
   14000a99c:	45 8d 4a 01          	lea    r9d,[r10+0x1]
   14000a9a0:	eb 18                	jmp    0x14000a9ba
   14000a9a2:	38 45 7f             	cmp    BYTE PTR [rbp+0x7f],al
   14000a9a5:	75 17                	jne    0x14000a9be
   14000a9a7:	41 8b c7             	mov    eax,r15d
   14000a9aa:	41 2b c2             	sub    eax,r10d
   14000a9ad:	3b c1                	cmp    eax,ecx
   14000a9af:	b8 04 00 00 00       	mov    eax,0x4
   14000a9b4:	77 08                	ja     0x14000a9be
   14000a9b6:	45 8d 4a 02          	lea    r9d,[r10+0x2]
   14000a9ba:	44 89 4d df          	mov    DWORD PTR [rbp-0x21],r9d
   14000a9be:	45 8b c1             	mov    r8d,r9d
   14000a9c1:	8b 5d 0b             	mov    ebx,DWORD PTR [rbp+0xb]
   14000a9c4:	44 89 4d d7          	mov    DWORD PTR [rbp-0x29],r9d
   14000a9c8:	44 38 6d c8          	cmp    BYTE PTR [rbp-0x38],r13b
   14000a9cc:	75 14                	jne    0x14000a9e2
   14000a9ce:	8b c3                	mov    eax,ebx
   14000a9d0:	41 2b c1             	sub    eax,r9d
   14000a9d3:	3b c2                	cmp    eax,edx
   14000a9d5:	b8 04 00 00 00       	mov    eax,0x4
   14000a9da:	77 21                	ja     0x14000a9fd
   14000a9dc:	45 8d 41 01          	lea    r8d,[r9+0x1]
   14000a9e0:	eb 17                	jmp    0x14000a9f9
   14000a9e2:	38 45 c8             	cmp    BYTE PTR [rbp-0x38],al
   14000a9e5:	75 16                	jne    0x14000a9fd
   14000a9e7:	8b c3                	mov    eax,ebx
   14000a9e9:	41 2b c1             	sub    eax,r9d
   14000a9ec:	3b c1                	cmp    eax,ecx
   14000a9ee:	b8 04 00 00 00       	mov    eax,0x4
   14000a9f3:	77 08                	ja     0x14000a9fd
   14000a9f5:	45 8d 41 02          	lea    r8d,[r9+0x2]
   14000a9f9:	44 89 45 d7          	mov    DWORD PTR [rbp-0x29],r8d
   14000a9fd:	45 8b c8             	mov    r9d,r8d
   14000aa00:	44 8b 55 cf          	mov    r10d,DWORD PTR [rbp-0x31]
   14000aa04:	44 89 45 cb          	mov    DWORD PTR [rbp-0x35],r8d
   14000aa08:	44 38 6d c7          	cmp    BYTE PTR [rbp-0x39],r13b
   14000aa0c:	75 14                	jne    0x14000aa22
   14000aa0e:	41 8b c4             	mov    eax,r12d
   14000aa11:	41 2b c0             	sub    eax,r8d
   14000aa14:	3b c2                	cmp    eax,edx
   14000aa16:	77 26                	ja     0x14000aa3e
   14000aa18:	45 8d 48 01          	lea    r9d,[r8+0x1]
   14000aa1c:	44 89 4d cb          	mov    DWORD PTR [rbp-0x35],r9d
   14000aa20:	eb 1c                	jmp    0x14000aa3e
   14000aa22:	38 45 c7             	cmp    BYTE PTR [rbp-0x39],al
   14000aa25:	75 17                	jne    0x14000aa3e
   14000aa27:	41 8b c4             	mov    eax,r12d
   14000aa2a:	41 2b c0             	sub    eax,r8d
   14000aa2d:	3b c1                	cmp    eax,ecx
   14000aa2f:	77 0d                	ja     0x14000aa3e
   14000aa31:	45 8d 48 02          	lea    r9d,[r8+0x2]
   14000aa35:	44 89 4d cb          	mov    DWORD PTR [rbp-0x35],r9d
   14000aa39:	45 85 d2             	test   r10d,r10d
   14000aa3c:	75 09                	jne    0x14000aa47
   14000aa3e:	45 85 c9             	test   r9d,r9d
   14000aa41:	0f 84 9a 02 00 00    	je     0x14000ace1
   14000aa47:	48 8b 4d 17          	mov    rcx,QWORD PTR [rbp+0x17]
   14000aa4b:	41 8b c2             	mov    eax,r10d
   14000aa4e:	41 2b c1             	sub    eax,r9d
   14000aa51:	03 41 04             	add    eax,DWORD PTR [rcx+0x4]
   14000aa54:	41 3b c5             	cmp    eax,r13d
   14000aa57:	0f 82 35 fb ff ff    	jb     0x14000a592
   14000aa5d:	8b d0                	mov    edx,eax
   14000aa5f:	b9 00 02 00 00       	mov    ecx,0x200
   14000aa64:	41 b8 42 54 4d 54    	mov    r8d,0x544d5442
   14000aa6a:	ff 15 f0 05 00 00    	call   QWORD PTR [rip+0x5f0]        # 0x14000b060
   14000aa70:	4c 8b f0             	mov    r14,rax
   14000aa73:	48 85 c0             	test   rax,rax
   14000aa76:	0f 84 16 fb ff ff    	je     0x14000a592
   14000aa7c:	44 2b 65 d7          	sub    r12d,DWORD PTR [rbp-0x29]
   14000aa80:	b9 ff 00 00 00       	mov    ecx,0xff
   14000aa85:	44 03 65 db          	add    r12d,DWORD PTR [rbp-0x25]
   14000aa89:	44 3b e1             	cmp    r12d,ecx
   14000aa8c:	77 15                	ja     0x14000aaa3
   14000aa8e:	ba 07 00 00 00       	mov    edx,0x7
   14000aa93:	c6 00 35             	mov    BYTE PTR [rax],0x35
   14000aa96:	44 88 60 01          	mov    BYTE PTR [rax+0x1],r12b
   14000aa9a:	49 8b c5             	mov    rax,r13
   14000aa9d:	44 8d 42 fe          	lea    r8d,[rdx-0x2]
   14000aaa1:	eb 48                	jmp    0x14000aaeb
   14000aaa3:	41 81 fc ff ff 00 00 	cmp    r12d,0xffff
   14000aaaa:	77 22                	ja     0x14000aace
   14000aaac:	ba 08 00 00 00       	mov    edx,0x8
   14000aab1:	66 41 c1 c4 08       	rol    r12w,0x8
   14000aab6:	c6 00 36             	mov    BYTE PTR [rax],0x36
   14000aab9:	66 44 89 60 01       	mov    WORD PTR [rax+0x1],r12w
   14000aabe:	c7 45 d3 05 00 00 00 	mov    DWORD PTR [rbp-0x2d],0x5
   14000aac5:	44 8d 42 fe          	lea    r8d,[rdx-0x2]
   14000aac9:	8d 42 fb             	lea    eax,[rdx-0x5]
   14000aacc:	eb 1d                	jmp    0x14000aaeb
   14000aace:	ba 0a 00 00 00       	mov    edx,0xa
   14000aad3:	c6 00 37             	mov    BYTE PTR [rax],0x37
   14000aad6:	41 0f cc             	bswap  r12d
   14000aad9:	44 89 60 01          	mov    DWORD PTR [rax+0x1],r12d
   14000aadd:	c7 45 d3 07 00 00 00 	mov    DWORD PTR [rbp-0x2d],0x7
   14000aae4:	8d 42 fb             	lea    eax,[rdx-0x5]
   14000aae7:	44 8d 42 fe          	lea    r8d,[rdx-0x2]
   14000aaeb:	2b 5d df             	sub    ebx,DWORD PTR [rbp-0x21]
   14000aaee:	41 bc ff ff 00 00    	mov    r12d,0xffff
   14000aaf4:	03 5d e3             	add    ebx,DWORD PTR [rbp-0x1d]
   14000aaf7:	3b d9                	cmp    ebx,ecx
   14000aaf9:	77 0c                	ja     0x14000ab07
   14000aafb:	41 c6 04 06 35       	mov    BYTE PTR [r14+rax*1],0x35
   14000ab00:	41 88 5c 06 01       	mov    BYTE PTR [r14+rax*1+0x1],bl
   14000ab05:	eb 29                	jmp    0x14000ab30
   14000ab07:	41 3b dc             	cmp    ebx,r12d
   14000ab0a:	77 15                	ja     0x14000ab21
   14000ab0c:	66 c1 c3 08          	rol    bx,0x8
   14000ab10:	66 41 89 5c 06 01    	mov    WORD PTR [r14+rax*1+0x1],bx
   14000ab16:	41 c6 04 06 36       	mov    BYTE PTR [r14+rax*1],0x36
   14000ab1b:	44 89 45 d3          	mov    DWORD PTR [rbp-0x2d],r8d
   14000ab1f:	eb 0f                	jmp    0x14000ab30
   14000ab21:	0f cb                	bswap  ebx
   14000ab23:	41 89 5c 06 01       	mov    DWORD PTR [r14+rax*1+0x1],ebx
   14000ab28:	41 c6 04 06 37       	mov    BYTE PTR [r14+rax*1],0x37
   14000ab2d:	89 55 d3             	mov    DWORD PTR [rbp-0x2d],edx
   14000ab30:	0f b6 4d c7          	movzx  ecx,BYTE PTR [rbp-0x39]
   14000ab34:	8b 5d f7             	mov    ebx,DWORD PTR [rbp-0x9]
   14000ab37:	0f b6 45 c8          	movzx  eax,BYTE PTR [rbp-0x38]
   14000ab3b:	48 8b 55 17          	mov    rdx,QWORD PTR [rbp+0x17]
   14000ab3f:	48 03 c1             	add    rax,rcx
   14000ab42:	8b 4d d3             	mov    ecx,DWORD PTR [rbp-0x2d]
   14000ab45:	48 83 c2 0a          	add    rdx,0xa
   14000ab49:	48 03 d0             	add    rdx,rax
   14000ab4c:	49 03 ce             	add    rcx,r14
   14000ab4f:	2b da                	sub    ebx,edx
   14000ab51:	83 c3 03             	add    ebx,0x3
   14000ab54:	44 8b c3             	mov    r8d,ebx
   14000ab57:	e8 e4 d2 ff ff       	call   0x140007e40
   14000ab5c:	44 2b 7d e7          	sub    r15d,DWORD PTR [rbp-0x19]
   14000ab60:	b9 ff 00 00 00       	mov    ecx,0xff
   14000ab65:	8b 55 d3             	mov    edx,DWORD PTR [rbp-0x2d]
   14000ab68:	44 03 7d eb          	add    r15d,DWORD PTR [rbp-0x15]
   14000ab6c:	03 d3                	add    edx,ebx
   14000ab6e:	8b c2                	mov    eax,edx
   14000ab70:	49 03 c6             	add    rax,r14
   14000ab73:	44 3b f9             	cmp    r15d,ecx
   14000ab76:	77 0c                	ja     0x14000ab84
   14000ab78:	c6 00 35             	mov    BYTE PTR [rax],0x35
   14000ab7b:	44 88 78 01          	mov    BYTE PTR [rax+0x1],r15b
   14000ab7f:	41 8b c5             	mov    eax,r13d
   14000ab82:	eb 28                	jmp    0x14000abac
   14000ab84:	45 3b fc             	cmp    r15d,r12d
   14000ab87:	77 14                	ja     0x14000ab9d
   14000ab89:	66 41 c1 c7 08       	rol    r15w,0x8
   14000ab8e:	66 44 89 78 01       	mov    WORD PTR [rax+0x1],r15w
   14000ab93:	c6 00 36             	mov    BYTE PTR [rax],0x36
   14000ab96:	b8 03 00 00 00       	mov    eax,0x3
   14000ab9b:	eb 0f                	jmp    0x14000abac
   14000ab9d:	41 0f cf             	bswap  r15d
   14000aba0:	44 89 78 01          	mov    DWORD PTR [rax+0x1],r15d
   14000aba4:	c6 00 37             	mov    BYTE PTR [rax],0x37
   14000aba7:	b8 05 00 00 00       	mov    eax,0x5
   14000abac:	2b 7d ef             	sub    edi,DWORD PTR [rbp-0x11]
   14000abaf:	03 d0                	add    edx,eax
   14000abb1:	03 7d 0f             	add    edi,DWORD PTR [rbp+0xf]
   14000abb4:	8b c2                	mov    eax,edx
   14000abb6:	49 03 c6             	add    rax,r14
   14000abb9:	3b f9                	cmp    edi,ecx
   14000abbb:	77 0c                	ja     0x14000abc9
   14000abbd:	c6 00 35             	mov    BYTE PTR [rax],0x35
   14000abc0:	40 88 78 01          	mov    BYTE PTR [rax+0x1],dil
   14000abc4:	41 8b c5             	mov    eax,r13d
   14000abc7:	eb 24                	jmp    0x14000abed
   14000abc9:	41 3b fc             	cmp    edi,r12d
   14000abcc:	77 12                	ja     0x14000abe0
   14000abce:	66 c1 c7 08          	rol    di,0x8
   14000abd2:	66 89 78 01          	mov    WORD PTR [rax+0x1],di
   14000abd6:	c6 00 36             	mov    BYTE PTR [rax],0x36
   14000abd9:	b8 03 00 00 00       	mov    eax,0x3
   14000abde:	eb 0d                	jmp    0x14000abed
   14000abe0:	0f cf                	bswap  edi
   14000abe2:	89 78 01             	mov    DWORD PTR [rax+0x1],edi
   14000abe5:	c6 00 37             	mov    BYTE PTR [rax],0x37
   14000abe8:	b8 05 00 00 00       	mov    eax,0x5
   14000abed:	4c 8b 7d 17          	mov    r15,QWORD PTR [rbp+0x17]
   14000abf1:	8d 0c 02             	lea    ecx,[rdx+rax*1]
   14000abf4:	8d 79 02             	lea    edi,[rcx+0x2]
   14000abf7:	ba 08 22 00 00       	mov    edx,0x2208
   14000abfc:	66 42 89 14 31       	mov    WORD PTR [rcx+r14*1],dx
   14000ac01:	41 8b df             	mov    ebx,r15d
   14000ac04:	8b 55 13             	mov    edx,DWORD PTR [rbp+0x13]
   14000ac07:	66 42 c7 04 37 25 74 	mov    WORD PTR [rdi+r14*1],0x7425
   14000ac0e:	41 03 fd             	add    edi,r13d
   14000ac11:	0f 10 05 38 14 00 00 	movups xmm0,XMMWORD PTR [rip+0x1438]        # 0x14000c050
   14000ac18:	8b cf                	mov    ecx,edi
   14000ac1a:	83 c7 74             	add    edi,0x74
   14000ac1d:	49 03 ce             	add    rcx,r14
   14000ac20:	0f 11 01             	movups XMMWORD PTR [rcx],xmm0
   14000ac23:	0f 10 0d 36 14 00 00 	movups xmm1,XMMWORD PTR [rip+0x1436]        # 0x14000c060
   14000ac2a:	0f 11 49 10          	movups XMMWORD PTR [rcx+0x10],xmm1
   14000ac2e:	0f 10 05 3b 14 00 00 	movups xmm0,XMMWORD PTR [rip+0x143b]        # 0x14000c070
   14000ac35:	0f 11 41 20          	movups XMMWORD PTR [rcx+0x20],xmm0
   14000ac39:	0f 10 0d 40 14 00 00 	movups xmm1,XMMWORD PTR [rip+0x1440]        # 0x14000c080
   14000ac40:	0f 11 49 30          	movups XMMWORD PTR [rcx+0x30],xmm1
   14000ac44:	0f 10 05 45 14 00 00 	movups xmm0,XMMWORD PTR [rip+0x1445]        # 0x14000c090
   14000ac4b:	0f 11 41 40          	movups XMMWORD PTR [rcx+0x40],xmm0
   14000ac4f:	0f 10 0d 4a 14 00 00 	movups xmm1,XMMWORD PTR [rip+0x144a]        # 0x14000c0a0
   14000ac56:	0f 11 49 50          	movups XMMWORD PTR [rcx+0x50],xmm1
   14000ac5a:	0f 10 05 4f 14 00 00 	movups xmm0,XMMWORD PTR [rip+0x144f]        # 0x14000c0b0
   14000ac61:	0f 11 41 60          	movups XMMWORD PTR [rcx+0x60],xmm0
   14000ac65:	8b 05 55 14 00 00    	mov    eax,DWORD PTR [rip+0x1455]        # 0x14000c0c0
   14000ac6b:	89 41 70             	mov    DWORD PTR [rcx+0x70],eax
   14000ac6e:	0f b6 45 c9          	movzx  eax,BYTE PTR [rbp-0x37]
   14000ac72:	4c 8b 4d f7          	mov    r9,QWORD PTR [rbp-0x9]
   14000ac76:	2b d8                	sub    ebx,eax
   14000ac78:	0f b6 45 ca          	movzx  eax,BYTE PTR [rbp-0x36]
   14000ac7c:	2b d8                	sub    ebx,eax
   14000ac7e:	8b cf                	mov    ecx,edi
   14000ac80:	0f b6 45 7f          	movzx  eax,BYTE PTR [rbp+0x7f]
   14000ac84:	49 03 ce             	add    rcx,r14
   14000ac87:	2b d8                	sub    ebx,eax
   14000ac89:	0f b6 45 c9          	movzx  eax,BYTE PTR [rbp-0x37]
   14000ac8d:	48 03 45 1f          	add    rax,QWORD PTR [rbp+0x1f]
   14000ac91:	41 2b d9             	sub    ebx,r9d
   14000ac94:	2b da                	sub    ebx,edx
   14000ac96:	49 83 c1 08          	add    r9,0x8
   14000ac9a:	41 03 5f 04          	add    ebx,DWORD PTR [r15+0x4]
   14000ac9e:	48 03 d0             	add    rdx,rax
   14000aca1:	0f b6 45 7f          	movzx  eax,BYTE PTR [rbp+0x7f]
   14000aca5:	48 03 d0             	add    rdx,rax
   14000aca8:	44 8b c3             	mov    r8d,ebx
   14000acab:	49 03 d1             	add    rdx,r9
   14000acae:	e8 8d d1 ff ff       	call   0x140007e40
   14000acb3:	03 fb                	add    edi,ebx
   14000acb5:	49 8d 4f 08          	lea    rcx,[r15+0x8]
   14000acb9:	44 8b c7             	mov    r8d,edi
   14000acbc:	49 8b d6             	mov    rdx,r14
   14000acbf:	e8 7c d1 ff ff       	call   0x140007e40
   14000acc4:	8b 45 cb             	mov    eax,DWORD PTR [rbp-0x35]
   14000acc7:	8b 4d cf             	mov    ecx,DWORD PTR [rbp-0x31]
   14000acca:	48 2b c8             	sub    rcx,rax
   14000accd:	41 89 3f             	mov    DWORD PTR [r15],edi
   14000acd0:	48 8b 45 77          	mov    rax,QWORD PTR [rbp+0x77]
   14000acd4:	41 89 7f 04          	mov    DWORD PTR [r15+0x4],edi
   14000acd8:	48 01 48 10          	add    QWORD PTR [rax+0x10],rcx
   14000acdc:	e9 c8 f9 ff ff       	jmp    0x14000a6a9
   14000ace1:	0f b6 7d 7f          	movzx  edi,BYTE PTR [rbp+0x7f]
   14000ace5:	0f 10 05 64 13 00 00 	movups xmm0,XMMWORD PTR [rip+0x1364]        # 0x14000c050
   14000acec:	41 0f b6 cb          	movzx  ecx,r11b
   14000acf0:	48 03 4d 1f          	add    rcx,QWORD PTR [rbp+0x1f]
   14000acf4:	48 03 cf             	add    rcx,rdi
   14000acf7:	42 0f 11 44 31 08    	movups XMMWORD PTR [rcx+r14*1+0x8],xmm0
   14000acfd:	0f 10 0d 5c 13 00 00 	movups xmm1,XMMWORD PTR [rip+0x135c]        # 0x14000c060
   14000ad04:	42 0f 11 4c 31 18    	movups XMMWORD PTR [rcx+r14*1+0x18],xmm1
   14000ad0a:	0f 10 05 5f 13 00 00 	movups xmm0,XMMWORD PTR [rip+0x135f]        # 0x14000c070
   14000ad11:	42 0f 11 44 31 28    	movups XMMWORD PTR [rcx+r14*1+0x28],xmm0
   14000ad17:	0f 10 0d 62 13 00 00 	movups xmm1,XMMWORD PTR [rip+0x1362]        # 0x14000c080
   14000ad1e:	42 0f 11 4c 31 38    	movups XMMWORD PTR [rcx+r14*1+0x38],xmm1
   14000ad24:	0f 10 05 65 13 00 00 	movups xmm0,XMMWORD PTR [rip+0x1365]        # 0x14000c090
   14000ad2b:	42 0f 11 44 31 48    	movups XMMWORD PTR [rcx+r14*1+0x48],xmm0
   14000ad31:	0f 10 0d 68 13 00 00 	movups xmm1,XMMWORD PTR [rip+0x1368]        # 0x14000c0a0
   14000ad38:	42 0f 11 4c 31 58    	movups XMMWORD PTR [rcx+r14*1+0x58],xmm1
   14000ad3e:	0f 10 05 6b 13 00 00 	movups xmm0,XMMWORD PTR [rip+0x136b]        # 0x14000c0b0
   14000ad45:	42 0f 11 44 31 68    	movups XMMWORD PTR [rcx+r14*1+0x68],xmm0
   14000ad4b:	8b 05 6f 13 00 00    	mov    eax,DWORD PTR [rip+0x136f]        # 0x14000c0c0
   14000ad51:	42 89 44 31 78       	mov    DWORD PTR [rcx+r14*1+0x78],eax
   14000ad56:	48 8b 05 8b 42 00 00 	mov    rax,QWORD PTR [rip+0x428b]        # 0x14000efe8
   14000ad5d:	44 8b c6             	mov    r8d,esi
   14000ad60:	48 8b 55 67          	mov    rdx,QWORD PTR [rbp+0x67]
   14000ad64:	48 8b 0d 85 42 00 00 	mov    rcx,QWORD PTR [rip+0x4285]        # 0x14000eff0
   14000ad6b:	48 8b 80 38 08 00 00 	mov    rax,QWORD PTR [rax+0x838]
   14000ad72:	ff 15 c8 03 00 00    	call   QWORD PTR [rip+0x3c8]        # 0x14000b140
   14000ad78:	48 8b 9c 24 d8 00 00 	mov    rbx,QWORD PTR [rsp+0xd8]
   14000ad7f:	00 
   14000ad80:	48 81 c4 90 00 00 00 	add    rsp,0x90
   14000ad87:	41 5f                	pop    r15
   14000ad89:	41 5e                	pop    r14
   14000ad8b:	41 5d                	pop    r13
   14000ad8d:	41 5c                	pop    r12
   14000ad8f:	5f                   	pop    rdi
   14000ad90:	5e                   	pop    rsi
   14000ad91:	5d                   	pop    rbp
   14000ad92:	c3                   	ret
   14000ad93:	cc                   	int3
   14000ad94:	cc                   	int3
   14000ad95:	cc                   	int3
   14000ad96:	cc                   	int3
   14000ad97:	cc                   	int3
   14000ad98:	cc                   	int3
   14000ad99:	cc                   	int3
   14000ad9a:	cc                   	int3
   14000ad9b:	cc                   	int3
   14000ad9c:	cc                   	int3
   14000ad9d:	cc                   	int3
   14000ad9e:	cc                   	int3
   14000ad9f:	cc                   	int3
   14000ada0:	48 83 ec 28          	sub    rsp,0x28
   14000ada4:	49 8b c0             	mov    rax,r8
   14000ada7:	4d 85 c0             	test   r8,r8
   14000adaa:	75 07                	jne    0x14000adb3
   14000adac:	b8 01 00 00 c0       	mov    eax,0xc0000001
   14000adb1:	eb 13                	jmp    0x14000adc6
   14000adb3:	45 33 c0             	xor    r8d,r8d
   14000adb6:	33 d2                	xor    edx,edx
   14000adb8:	48 8b c8             	mov    rcx,rax
   14000adbb:	ff 15 87 02 00 00    	call   QWORD PTR [rip+0x287]        # 0x14000b048
   14000adc1:	b8 16 00 00 c0       	mov    eax,0xc0000016
   14000adc6:	48 83 c4 28          	add    rsp,0x28
   14000adca:	c3                   	ret

Disassembly of section INIT:

0000000140011000 <INIT>:
   140011000:	40 55                	rex push rbp
   140011002:	48 8d 6c 24 a9       	lea    rbp,[rsp-0x57]
   140011007:	48 81 ec a0 00 00 00 	sub    rsp,0xa0
   14001100e:	48 83 25 fa df ff ff 	and    QWORD PTR [rip+0xffffffffffffdffa],0x0        # 0x14000f010
   140011015:	00 
   140011016:	48 8d 05 e3 7f ff ff 	lea    rax,[rip+0xffffffffffff7fe3]        # 0x140009000
   14001101d:	83 65 fb 00          	and    DWORD PTR [rbp-0x5],0x0
   140011021:	4c 8d 45 77          	lea    r8,[rbp+0x77]
   140011025:	83 65 0f 00          	and    DWORD PTR [rbp+0xf],0x0
   140011029:	45 33 c9             	xor    r9d,r9d
   14001102c:	48 89 45 ff          	mov    QWORD PTR [rbp-0x1],rax
   140011030:	48 8d 05 49 02 ff ff 	lea    rax,[rip+0xffffffffffff0249]        # 0x140001280
   140011037:	4c 89 44 24 28       	mov    QWORD PTR [rsp+0x28],r8
   14001103c:	4c 8d 45 f7          	lea    r8,[rbp-0x9]
   140011040:	48 89 45 07          	mov    QWORD PTR [rbp+0x7],rax
   140011044:	48 8b 05 9d df ff ff 	mov    rax,QWORD PTR [rip+0xffffffffffffdf9d]        # 0x14000efe8
   14001104b:	4c 89 44 24 20       	mov    QWORD PTR [rsp+0x20],r8
   140011050:	4c 8b c2             	mov    r8,rdx
   140011053:	c7 45 f7 20 00 00 00 	mov    DWORD PTR [rbp-0x9],0x20
   14001105a:	48 8b d1             	mov    rdx,rcx
   14001105d:	48 8b 0d 8c df ff ff 	mov    rcx,QWORD PTR [rip+0xffffffffffffdf8c]        # 0x14000eff0
   140011064:	c7 45 13 42 54 4d 54 	mov    DWORD PTR [rbp+0x13],0x544d5442
   14001106b:	48 8b 80 a0 03 00 00 	mov    rax,QWORD PTR [rax+0x3a0]
   140011072:	ff 15 c8 a0 ff ff    	call   QWORD PTR [rip+0xffffffffffffa0c8]        # 0x14000b140
   140011078:	85 c0                	test   eax,eax
   14001107a:	78 74                	js     0x1400110f0
   14001107c:	48 8b 05 65 df ff ff 	mov    rax,QWORD PTR [rip+0xffffffffffffdf65]        # 0x14000efe8
   140011083:	4c 8d 05 7e df ff ff 	lea    r8,[rip+0xffffffffffffdf7e]        # 0x14000f008
   14001108a:	48 8b 0d 5f df ff ff 	mov    rcx,QWORD PTR [rip+0xffffffffffffdf5f]        # 0x14000eff0
   140011091:	33 d2                	xor    edx,edx
   140011093:	48 8b 80 d8 09 00 00 	mov    rax,QWORD PTR [rax+0x9d8]
   14001109a:	ff 15 a0 a0 ff ff    	call   QWORD PTR [rip+0xffffffffffffa0a0]        # 0x14000b140
   1400110a0:	85 c0                	test   eax,eax
   1400110a2:	78 4c                	js     0x1400110f0
   1400110a4:	33 d2                	xor    edx,edx
   1400110a6:	48 8d 4d 17          	lea    rcx,[rbp+0x17]
   1400110aa:	44 8d 42 38          	lea    r8d,[rdx+0x38]
   1400110ae:	e8 8d 6c ff ff       	call   0x140007d40
   1400110b3:	48 8b 0d 36 df ff ff 	mov    rcx,QWORD PTR [rip+0xffffffffffffdf36]        # 0x14000eff0
   1400110ba:	4c 8d 05 57 df ff ff 	lea    r8,[rip+0xffffffffffffdf57]        # 0x14000f018
   1400110c1:	b8 01 00 00 00       	mov    eax,0x1
   1400110c6:	c7 45 17 38 00 00 00 	mov    DWORD PTR [rbp+0x17],0x38
   1400110cd:	89 45 2f             	mov    DWORD PTR [rbp+0x2f],eax
   1400110d0:	48 8d 55 17          	lea    rdx,[rbp+0x17]
   1400110d4:	89 45 33             	mov    DWORD PTR [rbp+0x33],eax
   1400110d7:	48 8b 45 77          	mov    rax,QWORD PTR [rbp+0x77]
   1400110db:	48 89 45 37          	mov    QWORD PTR [rbp+0x37],rax
   1400110df:	48 8b 05 02 df ff ff 	mov    rax,QWORD PTR [rip+0xffffffffffffdf02]        # 0x14000efe8
   1400110e6:	48 8b 40 68          	mov    rax,QWORD PTR [rax+0x68]
   1400110ea:	ff 15 50 a0 ff ff    	call   QWORD PTR [rip+0xffffffffffffa050]        # 0x14000b140
   1400110f0:	48 81 c4 a0 00 00 00 	add    rsp,0xa0
   1400110f7:	5d                   	pop    rbp
   1400110f8:	c3                   	ret
   1400110f9:	cc                   	int3
   1400110fa:	cc                   	int3
   1400110fb:	cc                   	int3
   1400110fc:	48 8b 05 6d b4 ff ff 	mov    rax,QWORD PTR [rip+0xffffffffffffb46d]        # 0x14000c570
   140011103:	48 85 c0             	test   rax,rax
   140011106:	74 1a                	je     0x140011122
   140011108:	48 b9 32 a2 df 2d 99 	movabs rcx,0x2b992ddfa232
   14001110f:	2b 00 00 
   140011112:	48 3b c1             	cmp    rax,rcx
   140011115:	74 0b                	je     0x140011122
   140011117:	48 f7 d0             	not    rax
   14001111a:	48 89 05 57 b4 ff ff 	mov    QWORD PTR [rip+0xffffffffffffb457],rax        # 0x14000c578
   140011121:	c3                   	ret
   140011122:	b9 06 00 00 00       	mov    ecx,0x6
   140011127:	cd 29                	int    0x29
   140011129:	cc                   	int3
   14001112a:	cc                   	int3
   14001112b:	cc                   	int3
   14001112c:	90                   	nop
   14001112d:	11 01                	adc    DWORD PTR [rcx],eax
	...
   140011137:	00 46 15             	add    BYTE PTR [rsi+0x15],al
   14001113a:	01 00                	add    DWORD PTR [rax],eax
   14001113c:	28 b0 00 00 68 11    	sub    BYTE PTR [rax+0x11680000],dh
   140011142:	01 00                	add    DWORD PTR [rax],eax
	...
   14001114c:	ec                   	in     al,dx
   14001114d:	15 01 00 00 b0       	adc    eax,0xb0000001
	...
   140011166:	00 00                	add    BYTE PTR [rax],al
   140011168:	aa                   	stos   BYTE PTR es:[rdi],al
   140011169:	15 01 00 00 00       	adc    eax,0x1
   14001116e:	00 00                	add    BYTE PTR [rax],al
   140011170:	98                   	cwde
   140011171:	15 01 00 00 00       	adc    eax,0x1
   140011176:	00 00                	add    BYTE PTR [rax],al
   140011178:	d4                   	(bad)
   140011179:	15 01 00 00 00       	adc    eax,0x1
   14001117e:	00 00                	add    BYTE PTR [rax],al
   140011180:	be 15 01 00 00       	mov    esi,0x115
	...
   14001118d:	00 00                	add    BYTE PTR [rax],al
   14001118f:	00 14 13             	add    BYTE PTR [rbx+rdx*1],dl
   140011192:	01 00                	add    DWORD PTR [rax],eax
   140011194:	00 00                	add    BYTE PTR [rax],al
   140011196:	00 00                	add    BYTE PTR [rax],al
   140011198:	36 13 01             	ss adc eax,DWORD PTR [rcx]
   14001119b:	00 00                	add    BYTE PTR [rax],al
   14001119d:	00 00                	add    BYTE PTR [rax],al
   14001119f:	00 52 13             	add    BYTE PTR [rdx+0x13],dl
   1400111a2:	01 00                	add    DWORD PTR [rax],eax
   1400111a4:	00 00                	add    BYTE PTR [rax],al
   1400111a6:	00 00                	add    BYTE PTR [rax],al
   1400111a8:	66 13 01             	adc    ax,WORD PTR [rcx]
   1400111ab:	00 00                	add    BYTE PTR [rax],al
   1400111ad:	00 00                	add    BYTE PTR [rax],al
   1400111af:	00 76 13             	add    BYTE PTR [rsi+0x13],dh
   1400111b2:	01 00                	add    DWORD PTR [rax],eax
   1400111b4:	00 00                	add    BYTE PTR [rax],al
   1400111b6:	00 00                	add    BYTE PTR [rax],al
   1400111b8:	84 13                	test   BYTE PTR [rbx],dl
   1400111ba:	01 00                	add    DWORD PTR [rax],eax
   1400111bc:	00 00                	add    BYTE PTR [rax],al
   1400111be:	00 00                	add    BYTE PTR [rax],al
   1400111c0:	a0 13 01 00 00 00 00 	movabs al,ds:0xb800000000000113
   1400111c7:	00 b8 
   1400111c9:	13 01                	adc    eax,DWORD PTR [rcx]
   1400111cb:	00 00                	add    BYTE PTR [rax],al
   1400111cd:	00 00                	add    BYTE PTR [rax],al
   1400111cf:	00 d0                	add    al,dl
   1400111d1:	13 01                	adc    eax,DWORD PTR [rcx]
   1400111d3:	00 00                	add    BYTE PTR [rax],al
   1400111d5:	00 00                	add    BYTE PTR [rax],al
   1400111d7:	00 e4                	add    ah,ah
   1400111d9:	13 01                	adc    eax,DWORD PTR [rcx]
   1400111db:	00 00                	add    BYTE PTR [rax],al
   1400111dd:	00 00                	add    BYTE PTR [rax],al
   1400111df:	00 fc                	add    ah,bh
   1400111e1:	13 01                	adc    eax,DWORD PTR [rcx]
   1400111e3:	00 00                	add    BYTE PTR [rax],al
   1400111e5:	00 00                	add    BYTE PTR [rax],al
   1400111e7:	00 16                	add    BYTE PTR [rsi],dl
   1400111e9:	14 01                	adc    al,0x1
   1400111eb:	00 00                	add    BYTE PTR [rax],al
   1400111ed:	00 00                	add    BYTE PTR [rax],al
   1400111ef:	00 36                	add    BYTE PTR [rsi],dh
   1400111f1:	14 01                	adc    al,0x1
   1400111f3:	00 00                	add    BYTE PTR [rax],al
   1400111f5:	00 00                	add    BYTE PTR [rax],al
   1400111f7:	00 f8                	add    al,bh
   1400111f9:	12 01                	adc    al,BYTE PTR [rcx]
   1400111fb:	00 00                	add    BYTE PTR [rax],al
   1400111fd:	00 00                	add    BYTE PTR [rax],al
   1400111ff:	00 52 14             	add    BYTE PTR [rdx+0x14],dl
   140011202:	01 00                	add    DWORD PTR [rax],eax
   140011204:	00 00                	add    BYTE PTR [rax],al
   140011206:	00 00                	add    BYTE PTR [rax],al
   140011208:	68 14 01 00 00       	push   0x114
   14001120d:	00 00                	add    BYTE PTR [rax],al
   14001120f:	00 84 14 01 00 00 00 	add    BYTE PTR [rsp+rdx*1+0x1],al
   140011216:	00 00                	add    BYTE PTR [rax],al
   140011218:	a0 14 01 00 00 00 00 	movabs al,ds:0xb800000000000114
   14001121f:	00 b8 
   140011221:	14 01                	adc    al,0x1
   140011223:	00 00                	add    BYTE PTR [rax],al
   140011225:	00 00                	add    BYTE PTR [rax],al
   140011227:	00 c2                	add    dl,al
   140011229:	14 01                	adc    al,0x1
   14001122b:	00 00                	add    BYTE PTR [rax],al
   14001122d:	00 00                	add    BYTE PTR [rax],al
   14001122f:	00 e2                	add    dl,ah
   140011231:	14 01                	adc    al,0x1
   140011233:	00 00                	add    BYTE PTR [rax],al
   140011235:	00 00                	add    BYTE PTR [rax],al
   140011237:	00 fc                	add    ah,bh
   140011239:	14 01                	adc    al,0x1
   14001123b:	00 00                	add    BYTE PTR [rax],al
   14001123d:	00 00                	add    BYTE PTR [rax],al
   14001123f:	00 14 15 01 00 00 00 	add    BYTE PTR [rdx*1+0x1],dl
   140011246:	00 00                	add    BYTE PTR [rax],al
   140011248:	2e 15 01 00 00 00    	cs adc eax,0x1
   14001124e:	00 00                	add    BYTE PTR [rax],al
   140011250:	3e 15 01 00 00 00    	ds adc eax,0x1
   140011256:	00 00                	add    BYTE PTR [rax],al
   140011258:	de 12                	ficom  WORD PTR [rdx]
   14001125a:	01 00                	add    DWORD PTR [rax],eax
   14001125c:	00 00                	add    BYTE PTR [rax],al
   14001125e:	00 00                	add    BYTE PTR [rax],al
   140011260:	54                   	push   rsp
   140011261:	15 01 00 00 00       	adc    eax,0x1
   140011266:	00 00                	add    BYTE PTR [rax],al
   140011268:	6c                   	ins    BYTE PTR es:[rdi],dx
   140011269:	15 01 00 00 00       	adc    eax,0x1
   14001126e:	00 00                	add    BYTE PTR [rax],al
   140011270:	80 15 01 00 00 00 00 	adc    BYTE PTR [rip+0x1],0x0        # 0x140011278
   140011277:	00 c6                	add    dh,al
   140011279:	12 01                	adc    al,BYTE PTR [rcx]
   14001127b:	00 00                	add    BYTE PTR [rax],al
   14001127d:	00 00                	add    BYTE PTR [rax],al
   14001127f:	00 aa 12 01 00 00    	add    BYTE PTR [rdx+0x112],ch
   140011285:	00 00                	add    BYTE PTR [rax],al
   140011287:	00 46 14             	add    BYTE PTR [rsi+0x14],al
   14001128a:	01 00                	add    DWORD PTR [rax],eax
   14001128c:	00 00                	add    BYTE PTR [rax],al
   14001128e:	00 00                	add    BYTE PTR [rax],al
   140011290:	a0 12 01 00 00 00 00 	movabs al,ds:0x112
   140011297:	00 00 
   140011299:	00 00                	add    BYTE PTR [rax],al
   14001129b:	00 00                	add    BYTE PTR [rax],al
   14001129d:	00 00                	add    BYTE PTR [rax],al
   14001129f:	00 42 0b             	add    BYTE PTR [rdx+0xb],al
   1400112a2:	77 63                	ja     0x140011307
   1400112a4:	73 73                	jae    0x140011319
   1400112a6:	74 72                	je     0x14001131a
   1400112a8:	00 00                	add    BYTE PTR [rax],al
   1400112aa:	ce                   	(bad)
   1400112ab:	08 52 74             	or     BYTE PTR [rdx+0x74],dl
   1400112ae:	6c                   	ins    BYTE PTR es:[rdi],dx
   1400112af:	55                   	push   rbp
   1400112b0:	6e                   	outs   dx,BYTE PTR ds:[rsi]
   1400112b1:	69 63 6f 64 65 53 74 	imul   esp,DWORD PTR [rbx+0x6f],0x74536564
   1400112b8:	72 69                	jb     0x140011323
   1400112ba:	6e                   	outs   dx,BYTE PTR ds:[rsi]
   1400112bb:	67 54                	addr32 push rsp
   1400112bd:	6f                   	outs   dx,DWORD PTR ds:[rsi]
   1400112be:	49 6e                	rex.WB outs dx,BYTE PTR ds:[rsi]
   1400112c0:	74 65                	je     0x140011327
   1400112c2:	67 65 72 00          	addr32 gs jb 0x1400112c6
   1400112c6:	fc                   	cld
   1400112c7:	07                   	(bad)
   1400112c8:	52                   	push   rdx
   1400112c9:	74 6c                	je     0x140011337
   1400112cb:	49 6e                	rex.WB outs dx,BYTE PTR ds:[rsi]
   1400112cd:	69 74 55 6e 69 63 6f 	imul   esi,DWORD PTR [rbp+rdx*2+0x6e],0x646f6369
   1400112d4:	64 
   1400112d5:	65 53                	gs push rbx
   1400112d7:	74 72                	je     0x14001134b
   1400112d9:	69 6e 67 00 00 7b 08 	imul   ebp,DWORD PTR [rsi+0x67],0x87b0000
   1400112e0:	52                   	push   rdx
   1400112e1:	74 6c                	je     0x14001134f
   1400112e3:	51                   	push   rcx
   1400112e4:	75 65                	jne    0x14001134b
   1400112e6:	72 79                	jb     0x140011361
   1400112e8:	52                   	push   rdx
   1400112e9:	65 67 69 73 74 72 79 	imul   esi,DWORD PTR gs:[ebx+0x74],0x61567972
   1400112f0:	56 61 
   1400112f2:	6c                   	ins    BYTE PTR es:[rdi],dx
   1400112f3:	75 65                	jne    0x14001135a
   1400112f5:	73 00                	jae    0x1400112f7
   1400112f7:	00 13                	add    BYTE PTR [rbx],dl
   1400112f9:	05 4d 6d 47 65       	add    eax,0x65476d4d
   1400112fe:	74 53                	je     0x140011353
   140011300:	79 73                	jns    0x140011375
   140011302:	74 65                	je     0x140011369
   140011304:	6d                   	ins    DWORD PTR es:[rdi],dx
   140011305:	52                   	push   rdx
   140011306:	6f                   	outs   dx,DWORD PTR ds:[rsi]
   140011307:	75 74                	jne    0x14001137d
   140011309:	69 6e 65 41 64 64 72 	imul   ebp,DWORD PTR [rsi+0x65],0x72646441
   140011310:	65 73 73             	gs jae 0x140011386
   140011313:	00 2d 07 52 74 6c    	add    BYTE PTR [rip+0x6c745207],ch        # 0x1ac756520
   140011319:	41 70 70             	rex.B jo 0x14001138c
   14001131c:	65 6e                	outs   dx,BYTE PTR gs:[rsi]
   14001131e:	64 55                	fs push rbp
   140011320:	6e                   	outs   dx,BYTE PTR ds:[rsi]
   140011321:	69 63 6f 64 65 53 74 	imul   esp,DWORD PTR [rbx+0x6f],0x74536564
   140011328:	72 69                	jb     0x140011393
   14001132a:	6e                   	outs   dx,BYTE PTR ds:[rsi]
   14001132b:	67 54                	addr32 push rsp
   14001132d:	6f                   	outs   dx,DWORD PTR ds:[rsi]
   14001132e:	53                   	push   rbx
   14001132f:	74 72                	je     0x1400113a3
   140011331:	69 6e 67 00 00 2e 07 	imul   ebp,DWORD PTR [rsi+0x67],0x72e0000
   140011338:	52                   	push   rdx
   140011339:	74 6c                	je     0x1400113a7
   14001133b:	41 70 70             	rex.B jo 0x1400113ae
   14001133e:	65 6e                	outs   dx,BYTE PTR gs:[rsi]
   140011340:	64 55                	fs push rbp
   140011342:	6e                   	outs   dx,BYTE PTR ds:[rsi]
   140011343:	69 63 6f 64 65 54 6f 	imul   esp,DWORD PTR [rbx+0x6f],0x6f546564
   14001134a:	53                   	push   rbx
   14001134b:	74 72                	je     0x1400113bf
   14001134d:	69 6e 67 00 00 1b 04 	imul   ebp,DWORD PTR [rsi+0x67],0x41b0000
   140011354:	4b                   	rex.WXB
   140011355:	65 49 6e             	rex.WB outs dx,BYTE PTR gs:[rsi]
   140011358:	69 74 69 61 6c 69 7a 	imul   esi,DWORD PTR [rcx+rbp*2+0x61],0x657a696c
   14001135f:	65 
   140011360:	45 76 65             	rex.RB jbe 0x1400113c8
   140011363:	6e                   	outs   dx,BYTE PTR ds:[rsi]
   140011364:	74 00                	je     0x140011366
   140011366:	df 03                	fild   WORD PTR [rbx]
   140011368:	4b                   	rex.WXB
   140011369:	65 43 6c             	gs rex.XB ins BYTE PTR es:[rdi],dx
   14001136c:	65 61                	gs (bad)
   14001136e:	72 45                	jb     0x1400113b5
   140011370:	76 65                	jbe    0x1400113d7
   140011372:	6e                   	outs   dx,BYTE PTR ds:[rsi]
   140011373:	74 00                	je     0x140011375
   140011375:	00 9c 04 4b 65 53 65 	add    BYTE PTR [rsp+rax*1+0x6553654b],bl
   14001137c:	74 45                	je     0x1400113c3
   14001137e:	76 65                	jbe    0x1400113e5
   140011380:	6e                   	outs   dx,BYTE PTR ds:[rsi]
   140011381:	74 00                	je     0x140011383
   140011383:	00 c3                	add    bl,al
   140011385:	04 4b                	add    al,0x4b
   140011387:	65 57                	gs push rdi
   140011389:	61                   	(bad)
   14001138a:	69 74 46 6f 72 4d 75 	imul   esi,DWORD PTR [rsi+rax*2+0x6f],0x6c754d72
   140011391:	6c 
   140011392:	74 69                	je     0x1400113fd
   140011394:	70 6c                	jo     0x140011402
   140011396:	65 4f 62 6a 65 63 74 	(bad)
   14001139d:	73 00                	jae    0x14001139f
   14001139f:	00 c5                	add    ch,al
   1400113a1:	04 4b                	add    al,0x4b
   1400113a3:	65 57                	gs push rdi
   1400113a5:	61                   	(bad)
   1400113a6:	69 74 46 6f 72 53 69 	imul   esi,DWORD PTR [rsi+rax*2+0x6f],0x6e695372
   1400113ad:	6e 
   1400113ae:	67 6c                	ins    BYTE PTR es:[edi],dx
   1400113b0:	65 4f 62 6a 65 63 74 	(bad)
   1400113b7:	00 9c 00 45 78 41 6c 	add    BYTE PTR [rax+rax*1+0x6c417845],bl
   1400113be:	6c                   	ins    BYTE PTR es:[rdi],dx
   1400113bf:	6f                   	outs   dx,DWORD PTR ds:[rsi]
   1400113c0:	63 61 74             	movsxd esp,DWORD PTR [rcx+0x74]
   1400113c3:	65 50                	gs push rax
   1400113c5:	6f                   	outs   dx,DWORD PTR ds:[rsi]
   1400113c6:	6f                   	outs   dx,DWORD PTR ds:[rsi]
   1400113c7:	6c                   	ins    BYTE PTR es:[rdi],dx
   1400113c8:	57                   	push   rdi
   1400113c9:	69 74 68 54 61 67 00 	imul   esi,DWORD PTR [rax+rbp*2+0x54],0xc3006761
   1400113d0:	c3 
   1400113d1:	00 45 78             	add    BYTE PTR [rbp+0x78],al
   1400113d4:	46 72 65             	rex.RX jb 0x14001143c
   1400113d7:	65 50                	gs push rax
   1400113d9:	6f                   	outs   dx,DWORD PTR ds:[rsi]
   1400113da:	6f                   	outs   dx,DWORD PTR ds:[rsi]
   1400113db:	6c                   	ins    BYTE PTR es:[rdi],dx
   1400113dc:	57                   	push   rdi
   1400113dd:	69 74 68 54 61 67 00 	imul   esi,DWORD PTR [rax+rbp*2+0x54],0x67006761
   1400113e4:	67 
   1400113e5:	06                   	(bad)
   1400113e6:	50                   	push   rax
   1400113e7:	73 43                	jae    0x14001142c
   1400113e9:	72 65                	jb     0x140011450
   1400113eb:	61                   	(bad)
   1400113ec:	74 65                	je     0x140011453
   1400113ee:	53                   	push   rbx
   1400113ef:	79 73                	jns    0x140011464
   1400113f1:	74 65                	je     0x140011458
   1400113f3:	6d                   	ins    DWORD PTR es:[rdi],dx
   1400113f4:	54                   	push   rsp
   1400113f5:	68 72 65 61 64       	push   0x64616572
   1400113fa:	00 00                	add    BYTE PTR [rax],al
   1400113fc:	0f 07                	sysretd
   1400113fe:	50                   	push   rax
   1400113ff:	73 54                	jae    0x140011455
   140011401:	65 72 6d             	gs jb  0x140011471
   140011404:	69 6e 61 74 65 53 79 	imul   ebp,DWORD PTR [rsi+0x61],0x79536574
   14001140b:	73 74                	jae    0x140011481
   14001140d:	65 6d                	gs ins DWORD PTR es:[rdi],dx
   14001140f:	54                   	push   rsp
   140011410:	68 72 65 61 64       	push   0x64616572
   140011415:	00 77 02             	add    BYTE PTR [rdi+0x2],dh
   140011418:	49 6f                	rex.WB outs dx,DWORD PTR ds:[rsi]
   14001141a:	42 75 69             	rex.X jne 0x140011486
   14001141d:	6c                   	ins    BYTE PTR es:[rdi],dx
   14001141e:	64 44                	fs rex.R
   140011420:	65 76 69             	gs jbe 0x14001148c
   140011423:	63 65 49             	movsxd esp,DWORD PTR [rbp+0x49]
   140011426:	6f                   	outs   dx,DWORD PTR ds:[rsi]
   140011427:	43 6f                	rex.XB outs dx,DWORD PTR ds:[rsi]
   140011429:	6e                   	outs   dx,BYTE PTR ds:[rsi]
   14001142a:	74 72                	je     0x14001149e
   14001142c:	6f                   	outs   dx,DWORD PTR ds:[rsi]
   14001142d:	6c                   	ins    BYTE PTR es:[rdi],dx
   14001142e:	52                   	push   rdx
   14001142f:	65 71 75             	gs jno 0x1400114a7
   140011432:	65 73 74             	gs jae 0x1400114a9
   140011435:	00 a9 03 49 6f 66    	add    BYTE PTR [rcx+0x666f4903],ch
   14001143b:	43 61                	rex.XB (bad)
   14001143d:	6c                   	ins    BYTE PTR es:[rdi],dx
   14001143e:	6c                   	ins    BYTE PTR es:[rdi],dx
   14001143f:	44 72 69             	rex.R jb 0x1400114ab
   140011442:	76 65                	jbe    0x1400114a9
   140011444:	72 00                	jb     0x140011446
   140011446:	be 02 49 6f 46       	mov    esi,0x466f4902
   14001144b:	72 65                	jb     0x1400114b2
   14001144d:	65 49 72 70          	gs rex.WB jb 0x1400114c1
   140011451:	00 ce                	add    dh,cl
   140011453:	02 49 6f             	add    cl,BYTE PTR [rcx+0x6f]
   140011456:	47                   	rex.RXB
   140011457:	65 74 43             	gs je  0x14001149d
   14001145a:	75 72                	jne    0x1400114ce
   14001145c:	72 65                	jb     0x1400114c3
   14001145e:	6e                   	outs   dx,BYTE PTR ds:[rsi]
   14001145f:	74 50                	je     0x1400114b1
   140011461:	72 6f                	jb     0x1400114d2
   140011463:	63 65 73             	movsxd esp,DWORD PTR [rbp+0x73]
   140011466:	73 00                	jae    0x140011468
   140011468:	d5 02 49             	{rex2 0x2} dec ecx
   14001146b:	6f                   	outs   dx,DWORD PTR ds:[rsi]
   14001146c:	47                   	rex.RXB
   14001146d:	65 74 44             	gs je  0x1400114b4
   140011470:	65 76 69             	gs jbe 0x1400114dc
   140011473:	63 65 4f             	movsxd esp,DWORD PTR [rbp+0x4f]
   140011476:	62 6a 65 63 74       	(bad)
   14001147b:	50                   	push   rax
   14001147c:	6f                   	outs   dx,DWORD PTR ds:[rsi]
   14001147d:	69 6e 74 65 72 00 00 	imul   ebp,DWORD PTR [rsi+0x74],0x7265
   140011484:	e8 05 4f 62 52       	call   0x19263638e
   140011489:	65 66 65 72 65       	gs data16 gs jb 0x1400114f3
   14001148e:	6e                   	outs   dx,BYTE PTR ds:[rsi]
   14001148f:	63 65 4f             	movsxd esp,DWORD PTR [rbp+0x4f]
   140011492:	62 6a 65 63 74       	(bad)
   140011497:	42 79 48             	rex.X jns 0x1400114e2
   14001149a:	61                   	(bad)
   14001149b:	6e                   	outs   dx,BYTE PTR ds:[rsi]
   14001149c:	64 6c                	fs ins BYTE PTR es:[rdi],dx
   14001149e:	65 00 f8             	gs add al,bh
   1400114a1:	05 4f 62 66 44       	add    eax,0x4466624f
   1400114a6:	65 72 65             	gs jb  0x14001150e
   1400114a9:	66 65 72 65          	data16 gs jb 0x140011512
   1400114ad:	6e                   	outs   dx,BYTE PTR ds:[rsi]
   1400114ae:	63 65 4f             	movsxd esp,DWORD PTR [rbp+0x4f]
   1400114b1:	62 6a 65 63 74       	(bad)
   1400114b6:	00 00                	add    BYTE PTR [rax],al
   1400114b8:	e3 09                	jrcxz  0x1400114c3
   1400114ba:	5a                   	pop    rdx
   1400114bb:	77 43                	ja     0x140011500
   1400114bd:	6c                   	ins    BYTE PTR es:[rdi],dx
   1400114be:	6f                   	outs   dx,DWORD PTR ds:[rsi]
   1400114bf:	73 65                	jae    0x140011526
   1400114c1:	00 55 07             	add    BYTE PTR [rbp+0x7],dl
   1400114c4:	52                   	push   rdx
   1400114c5:	74 6c                	je     0x140011533
   1400114c7:	43 6f                	rex.XB outs dx,DWORD PTR ds:[rsi]
   1400114c9:	6e                   	outs   dx,BYTE PTR ds:[rsi]
   1400114ca:	76 65                	jbe    0x140011531
   1400114cc:	72 74                	jb     0x140011542
   1400114ce:	53                   	push   rbx
   1400114cf:	69 64 54 6f 55 6e 69 	imul   esp,DWORD PTR [rsp+rdx*2+0x6f],0x63696e55
   1400114d6:	63 
   1400114d7:	6f                   	outs   dx,DWORD PTR ds:[rsi]
   1400114d8:	64 65 53             	fs gs push rbx
   1400114db:	74 72                	je     0x14001154f
   1400114dd:	69 6e 67 00 00 e2 06 	imul   ebp,DWORD PTR [rsi+0x67],0x6e20000
   1400114e4:	50                   	push   rax
   1400114e5:	73 52                	jae    0x140011539
   1400114e7:	65 66 65 72 65       	gs data16 gs jb 0x140011551
   1400114ec:	6e                   	outs   dx,BYTE PTR ds:[rsi]
   1400114ed:	63 65 50             	movsxd esp,DWORD PTR [rbp+0x50]
   1400114f0:	72 69                	jb     0x14001155b
   1400114f2:	6d                   	ins    DWORD PTR es:[rdi],dx
   1400114f3:	61                   	(bad)
   1400114f4:	72 79                	jb     0x14001156f
   1400114f6:	54                   	push   rsp
   1400114f7:	6f                   	outs   dx,DWORD PTR ds:[rsi]
   1400114f8:	6b 65 6e 00          	imul   esp,DWORD PTR [rbp+0x6e],0x0
   1400114fc:	e3 05                	jrcxz  0x140011503
   1400114fe:	4f 62 4f 70 65 6e    	(bad)
   140011504:	4f 62 6a 65 63 74    	(bad)
   14001150a:	42 79 50             	rex.X jns 0x14001155d
   14001150d:	6f                   	outs   dx,DWORD PTR ds:[rsi]
   14001150e:	69 6e 74 65 72 00 5e 	imul   ebp,DWORD PTR [rsi+0x74],0x5e007265
   140011515:	0a 5a 77             	or     bl,BYTE PTR [rdx+0x77]
   140011518:	51                   	push   rcx
   140011519:	75 65                	jne    0x140011580
   14001151b:	72 79                	jb     0x140011596
   14001151d:	49 6e                	rex.WB outs dx,BYTE PTR ds:[rsi]
   14001151f:	66 6f                	outs   dx,WORD PTR ds:[rsi]
   140011521:	72 6d                	jb     0x140011590
   140011523:	61                   	(bad)
   140011524:	74 69                	je     0x14001158f
   140011526:	6f                   	outs   dx,DWORD PTR ds:[rsi]
   140011527:	6e                   	outs   dx,BYTE PTR ds:[rsi]
   140011528:	54                   	push   rsp
   140011529:	6f                   	outs   dx,DWORD PTR ds:[rsi]
   14001152a:	6b 65 6e 00          	imul   esp,DWORD PTR [rbp+0x6e],0x0
   14001152e:	69 02 49 6f 41 6c    	imul   eax,DWORD PTR [rdx],0x6c416f49
   140011534:	6c                   	ins    BYTE PTR es:[rdi],dx
   140011535:	6f                   	outs   dx,DWORD PTR ds:[rsi]
   140011536:	63 61 74             	movsxd esp,DWORD PTR [rcx+0x74]
   140011539:	65 49 72 70          	gs rex.WB jb 0x1400115ad
   14001153d:	00 11                	add    BYTE PTR [rcx],dl
   14001153f:	0b 73 71             	or     esi,DWORD PTR [rbx+0x71]
   140011542:	72 74                	jb     0x1400115b8
   140011544:	00 00                	add    BYTE PTR [rax],al
   140011546:	6e                   	outs   dx,BYTE PTR ds:[rsi]
   140011547:	74 6f                	je     0x1400115b8
   140011549:	73 6b                	jae    0x1400115b6
   14001154b:	72 6e                	jb     0x1400115bb
   14001154d:	6c                   	ins    BYTE PTR es:[rdi],dx
   14001154e:	2e 65 78 65          	cs gs js 0x1400115b7
   140011552:	00 00                	add    BYTE PTR [rax],al
   140011554:	bb 0a 5f 5f 43       	mov    ebx,0x435f5f0a
   140011559:	5f                   	pop    rdi
   14001155a:	73 70                	jae    0x1400115cc
   14001155c:	65 63 69 66          	movsxd ebp,DWORD PTR gs:[rcx+0x66]
   140011560:	69 63 5f 68 61 6e 64 	imul   esp,DWORD PTR [rbx+0x5f],0x646e6168
   140011567:	6c                   	ins    BYTE PTR es:[rdi],dx
   140011568:	65 72 00             	gs jb  0x14001156b
   14001156b:	00 81 08 52 74 6c    	add    BYTE PTR [rcx+0x6c745208],al
   140011571:	52                   	push   rdx
   140011572:	61                   	(bad)
   140011573:	69 73 65 45 78 63 65 	imul   esi,DWORD PTR [rbx+0x65],0x65637845
   14001157a:	70 74                	jo     0x1400115f0
   14001157c:	69 6f 6e 00 60 07 52 	imul   ebp,DWORD PTR [rdi+0x6e],0x52076000
   140011583:	74 6c                	je     0x1400115f1
   140011585:	43 6f                	rex.XB outs dx,DWORD PTR ds:[rsi]
   140011587:	70 79                	jo     0x140011602
   140011589:	55                   	push   rbp
   14001158a:	6e                   	outs   dx,BYTE PTR ds:[rsi]
   14001158b:	69 63 6f 64 65 53 74 	imul   esp,DWORD PTR [rbx+0x6f],0x74536564
   140011592:	72 69                	jb     0x1400115fd
   140011594:	6e                   	outs   dx,BYTE PTR ds:[rsi]
   140011595:	67 00 00             	add    BYTE PTR [eax],al
   140011598:	06                   	(bad)
   140011599:	00 57 64             	add    BYTE PTR [rdi+0x64],dl
   14001159c:	66 56                	push   si
   14001159e:	65 72 73             	gs jb  0x140011614
   1400115a1:	69 6f 6e 42 69 6e 64 	imul   ebp,DWORD PTR [rdi+0x6e],0x646e6942
   1400115a8:	00 00                	add    BYTE PTR [rax],al
   1400115aa:	08 00                	or     BYTE PTR [rax],al
   1400115ac:	57                   	push   rdi
   1400115ad:	64 66 56             	fs push si
   1400115b0:	65 72 73             	gs jb  0x140011626
   1400115b3:	69 6f 6e 55 6e 62 69 	imul   ebp,DWORD PTR [rdi+0x6e],0x69626e55
   1400115ba:	6e                   	outs   dx,BYTE PTR ds:[rsi]
   1400115bb:	64 00 00             	add    BYTE PTR fs:[rax],al
   1400115be:	07                   	(bad)
   1400115bf:	00 57 64             	add    BYTE PTR [rdi+0x64],dl
   1400115c2:	66 56                	push   si
   1400115c4:	65 72 73             	gs jb  0x14001163a
   1400115c7:	69 6f 6e 42 69 6e 64 	imul   ebp,DWORD PTR [rdi+0x6e],0x646e6942
   1400115ce:	43 6c                	rex.XB ins BYTE PTR es:[rdi],dx
   1400115d0:	61                   	(bad)
   1400115d1:	73 73                	jae    0x140011646
   1400115d3:	00 09                	add    BYTE PTR [rcx],cl
   1400115d5:	00 57 64             	add    BYTE PTR [rdi+0x64],dl
   1400115d8:	66 56                	push   si
   1400115da:	65 72 73             	gs jb  0x140011650
   1400115dd:	69 6f 6e 55 6e 62 69 	imul   ebp,DWORD PTR [rdi+0x6e],0x69626e55
   1400115e4:	6e                   	outs   dx,BYTE PTR ds:[rsi]
   1400115e5:	64 43 6c             	fs rex.XB ins BYTE PTR es:[rdi],dx
   1400115e8:	61                   	(bad)
   1400115e9:	73 73                	jae    0x14001165e
   1400115eb:	00 57 44             	add    BYTE PTR [rdi+0x44],dl
   1400115ee:	46                   	rex.RX
   1400115ef:	4c                   	rex.WR
   1400115f0:	44 52                	rex.R push rdx
   1400115f2:	2e 53                	cs push rbx
   1400115f4:	59                   	pop    rcx
   1400115f5:	53                   	push   rbx
	...
